C000  4C F5 C5	 JMP abs			A:00 X:00 Y:00 P:24 SP:FD - 
C5F5  A2 00 86	 LDX #			A:00 X:00 Y:00 P:24 SP:FD - 
C5F7  86 00 86	 STX zpg			A:00 X:00 Y:00 P:26 SP:FD - 
C5F9  86 10 86	 STX zpg			A:00 X:00 Y:00 P:26 SP:FD - 
C5FB  86 11 20	 STX zpg			A:00 X:00 Y:00 P:26 SP:FD - 
C5FD  20 2D C7	 JSR abs			A:00 X:00 Y:00 P:26 SP:FD - 
C72D  EA 38 B0	 NOP impl			A:00 X:00 Y:00 P:26 SP:FB - 
C72E  38 B0 04	 SEC impl			A:00 X:00 Y:00 P:26 SP:FB - 
C72F  B0 04 A2	 BCS rel			A:00 X:00 Y:00 P:27 SP:FB - 
C735  EA 18 B0	 NOP impl			A:00 X:00 Y:00 P:27 SP:FB - 
C736  18 B0 03	 CLC impl			A:00 X:00 Y:00 P:27 SP:FB - 
C737  B0 03 4C	 BCS rel			A:00 X:00 Y:00 P:26 SP:FB - 
C739  4C 40 C7	 JMP abs			A:00 X:00 Y:00 P:26 SP:FB - 
C740  EA 38 90	 NOP impl			A:00 X:00 Y:00 P:26 SP:FB - 
C741  38 90 03	 SEC impl			A:00 X:00 Y:00 P:26 SP:FB - 
C742  90 03 4C	 BCC rel			A:00 X:00 Y:00 P:27 SP:FB - 
C744  4C 4B C7	 JMP abs			A:00 X:00 Y:00 P:27 SP:FB - 
C74B  EA 18 90	 NOP impl			A:00 X:00 Y:00 P:27 SP:FB - 
C74C  18 90 04	 CLC impl			A:00 X:00 Y:00 P:27 SP:FB - 
C74D  90 04 A2	 BCC rel			A:00 X:00 Y:00 P:26 SP:FB - 
C753  EA A9 00	 NOP impl			A:00 X:00 Y:00 P:26 SP:FB - 
C754  A9 00 F0	 LDA #			A:00 X:00 Y:00 P:26 SP:FB - 
C756  F0 04 A2	 BEQ rel			A:00 X:00 Y:00 P:26 SP:FB - 
C75C  EA A9 40	 NOP impl			A:00 X:00 Y:00 P:26 SP:FB - 
C75D  A9 40 F0	 LDA #			A:00 X:00 Y:00 P:26 SP:FB - 
C75F  F0 03 4C	 BEQ rel			A:40 X:00 Y:00 P:24 SP:FB - 
C761  4C 68 C7	 JMP abs			A:40 X:00 Y:00 P:24 SP:FB - 
C768  EA A9 40	 NOP impl			A:40 X:00 Y:00 P:24 SP:FB - 
C769  A9 40 D0	 LDA #			A:40 X:00 Y:00 P:24 SP:FB - 
C76B  D0 04 A2	 BNE rel			A:40 X:00 Y:00 P:24 SP:FB - 
C771  EA A9 00	 NOP impl			A:40 X:00 Y:00 P:24 SP:FB - 
C772  A9 00 D0	 LDA #			A:40 X:00 Y:00 P:24 SP:FB - 
C774  D0 03 4C	 BNE rel			A:00 X:00 Y:00 P:26 SP:FB - 
C776  4C 7D C7	 JMP abs			A:00 X:00 Y:00 P:26 SP:FB - 
C77D  EA A9 FF	 NOP impl			A:00 X:00 Y:00 P:26 SP:FB - 
C77E  A9 FF 85	 LDA #			A:00 X:00 Y:00 P:26 SP:FB - 
C780  85 01 24	 STA zpg			A:FF X:00 Y:00 P:A4 SP:FB - 
C782  24 01 70	 BIT zpg			A:FF X:00 Y:00 P:A4 SP:FB - 
C784  70 04 A2	 BVS rel			A:FF X:00 Y:00 P:E4 SP:FB - 
C78A  EA 24 01	 NOP impl			A:FF X:00 Y:00 P:E4 SP:FB - 
C78B  24 01 50	 BIT zpg			A:FF X:00 Y:00 P:E4 SP:FB - 
C78D  50 03 4C	 BVC rel			A:FF X:00 Y:00 P:E4 SP:FB - 
C78F  4C 96 C7	 JMP abs			A:FF X:00 Y:00 P:E4 SP:FB - 
C796  EA A9 00	 NOP impl			A:FF X:00 Y:00 P:E4 SP:FB - 
C797  A9 00 85	 LDA #			A:FF X:00 Y:00 P:E4 SP:FB - 
C799  85 01 24	 STA zpg			A:00 X:00 Y:00 P:66 SP:FB - 
C79B  24 01 50	 BIT zpg			A:00 X:00 Y:00 P:66 SP:FB - 
C79D  50 04 A2	 BVC rel			A:00 X:00 Y:00 P:26 SP:FB - 
C7A3  EA 24 01	 NOP impl			A:00 X:00 Y:00 P:26 SP:FB - 
C7A4  24 01 70	 BIT zpg			A:00 X:00 Y:00 P:26 SP:FB - 
C7A6  70 03 4C	 BVS rel			A:00 X:00 Y:00 P:26 SP:FB - 
C7A8  4C AF C7	 JMP abs			A:00 X:00 Y:00 P:26 SP:FB - 
C7AF  EA A9 00	 NOP impl			A:00 X:00 Y:00 P:26 SP:FB - 
C7B0  A9 00 10	 LDA #			A:00 X:00 Y:00 P:26 SP:FB - 
C7B2  10 04 A2	 BPL rel			A:00 X:00 Y:00 P:26 SP:FB - 
C7B8  EA A9 80	 NOP impl			A:00 X:00 Y:00 P:26 SP:FB - 
C7B9  A9 80 10	 LDA #			A:00 X:00 Y:00 P:26 SP:FB - 
C7BB  10 03 4C	 BPL rel			A:80 X:00 Y:00 P:A4 SP:FB - 
C7BD  4C D9 C7	 JMP abs			A:80 X:00 Y:00 P:A4 SP:FB - 
C7D9  EA 60 EA	 NOP impl			A:80 X:00 Y:00 P:A4 SP:FB - 
C7DA  60 EA A9	 RTS impl			A:80 X:00 Y:00 P:A4 SP:FB - 
C600  20 DB C7	 JSR abs			A:80 X:00 Y:00 P:A4 SP:FD - 
C7DB  EA A9 FF	 NOP impl			A:80 X:00 Y:00 P:A4 SP:FB - 
C7DC  A9 FF 85	 LDA #			A:80 X:00 Y:00 P:A4 SP:FB - 
C7DE  85 01 24	 STA zpg			A:FF X:00 Y:00 P:A4 SP:FB - 
C7E0  24 01 A9	 BIT zpg			A:FF X:00 Y:00 P:A4 SP:FB - 
C7E2  A9 00 38	 LDA #			A:FF X:00 Y:00 P:E4 SP:FB - 
C7E4  38 78 F8	 SEC impl			A:00 X:00 Y:00 P:66 SP:FB - 
C7E5  78 F8 08	 SEI impl			A:00 X:00 Y:00 P:67 SP:FB - 
C7E6  F8 08 68	 SED impl			A:00 X:00 Y:00 P:67 SP:FB - 
C7E7  08 68 29	 PHP impl			A:00 X:00 Y:00 P:6F SP:FB - 
C7E8  68 29 EF	 PLA impl			A:00 X:00 Y:00 P:6F SP:FA - 
C7E9  29 EF C9	 AND #			A:7F X:00 Y:00 P:6D SP:FB - 
C7EB  C9 6F F0	 CMP #			A:6F X:00 Y:00 P:6D SP:FB - 
C7ED  F0 04 A2	 BEQ rel			A:6F X:00 Y:00 P:6F SP:FB - 
C7F3  EA A9 40	 NOP impl			A:6F X:00 Y:00 P:6F SP:FB - 
C7F4  A9 40 85	 LDA #			A:6F X:00 Y:00 P:6F SP:FB - 
C7F6  85 01 24	 STA zpg			A:40 X:00 Y:00 P:6D SP:FB - 
C7F8  24 01 D8	 BIT zpg			A:40 X:00 Y:00 P:6D SP:FB - 
C7FA  D8 A9 10	 CLD impl			A:40 X:00 Y:00 P:6D SP:FB - 
C7FB  A9 10 18	 LDA #			A:40 X:00 Y:00 P:65 SP:FB - 
C7FD  18 08 68	 CLC impl			A:10 X:00 Y:00 P:65 SP:FB - 
C7FE  08 68 29	 PHP impl			A:10 X:00 Y:00 P:64 SP:FB - 
C7FF  68 29 EF	 PLA impl			A:10 X:00 Y:00 P:64 SP:FA - 
C800  29 EF C9	 AND #			A:74 X:00 Y:00 P:64 SP:FB - 
C802  C9 64 F0	 CMP #			A:64 X:00 Y:00 P:64 SP:FB - 
C804  F0 04 A2	 BEQ rel			A:64 X:00 Y:00 P:67 SP:FB - 
C80A  EA A9 80	 NOP impl			A:64 X:00 Y:00 P:67 SP:FB - 
C80B  A9 80 85	 LDA #			A:64 X:00 Y:00 P:67 SP:FB - 
C80D  85 01 24	 STA zpg			A:80 X:00 Y:00 P:E5 SP:FB - 
C80F  24 01 F8	 BIT zpg			A:80 X:00 Y:00 P:E5 SP:FB - 
C811  F8 A9 00	 SED impl			A:80 X:00 Y:00 P:A5 SP:FB - 
C812  A9 00 38	 LDA #			A:80 X:00 Y:00 P:AD SP:FB - 
C814  38 08 68	 SEC impl			A:00 X:00 Y:00 P:2F SP:FB - 
C815  08 68 29	 PHP impl			A:00 X:00 Y:00 P:2F SP:FB - 
C816  68 29 EF	 PLA impl			A:00 X:00 Y:00 P:2F SP:FA - 
C817  29 EF C9	 AND #			A:3F X:00 Y:00 P:2D SP:FB - 
C819  C9 2F F0	 CMP #			A:2F X:00 Y:00 P:2D SP:FB - 
C81B  F0 04 A2	 BEQ rel			A:2F X:00 Y:00 P:2F SP:FB - 
C821  EA A9 FF	 NOP impl			A:2F X:00 Y:00 P:2F SP:FB - 
C822  A9 FF 48	 LDA #			A:2F X:00 Y:00 P:2F SP:FB - 
C824  48 28 D0	 PHA impl			A:FF X:00 Y:00 P:AD SP:FB - 
C825  28 D0 09	 PLP impl			A:FF X:00 Y:00 P:AD SP:FA - 
C826  D0 09 10	 BNE rel			A:FF X:00 Y:00 P:EF SP:FB - 
C828  10 07 50	 BPL rel			A:FF X:00 Y:00 P:EF SP:FB - 
C82A  50 05 90	 BVC rel			A:FF X:00 Y:00 P:EF SP:FB - 
C82C  90 03 4C	 BCC rel			A:FF X:00 Y:00 P:EF SP:FB - 
C82E  4C 35 C8	 JMP abs			A:FF X:00 Y:00 P:EF SP:FB - 
C835  EA A9 04	 NOP impl			A:FF X:00 Y:00 P:EF SP:FB - 
C836  A9 04 48	 LDA #			A:FF X:00 Y:00 P:EF SP:FB - 
C838  48 28 F0	 PHA impl			A:04 X:00 Y:00 P:6D SP:FB - 
C839  28 F0 09	 PLP impl			A:04 X:00 Y:00 P:6D SP:FA - 
C83A  F0 09 30	 BEQ rel			A:04 X:00 Y:00 P:24 SP:FB - 
C83C  30 07 70	 BMI rel			A:04 X:00 Y:00 P:24 SP:FB - 
C83E  70 05 B0	 BVS rel			A:04 X:00 Y:00 P:24 SP:FB - 
C840  B0 03 4C	 BCS rel			A:04 X:00 Y:00 P:24 SP:FB - 
C842  4C 49 C8	 JMP abs			A:04 X:00 Y:00 P:24 SP:FB - 
C849  EA F8 A9	 NOP impl			A:04 X:00 Y:00 P:24 SP:FB - 
C84A  F8 A9 FF	 SED impl			A:04 X:00 Y:00 P:24 SP:FB - 
C84B  A9 FF 85	 LDA #			A:04 X:00 Y:00 P:2C SP:FB - 
C84D  85 01 24	 STA zpg			A:FF X:00 Y:00 P:AC SP:FB - 
C84F  24 01 18	 BIT zpg			A:FF X:00 Y:00 P:AC SP:FB - 
C851  18 A9 00	 CLC impl			A:FF X:00 Y:00 P:EC SP:FB - 
C852  A9 00 48	 LDA #			A:FF X:00 Y:00 P:EC SP:FB - 
C854  48 A9 FF	 PHA impl			A:00 X:00 Y:00 P:6E SP:FB - 
C855  A9 FF 68	 LDA #			A:00 X:00 Y:00 P:6E SP:FA - 
C857  68 D0 09	 PLA impl			A:FF X:00 Y:00 P:EC SP:FA - 
C858  D0 09 30	 BNE rel			A:00 X:00 Y:00 P:6E SP:FB - 
C85A  30 07 50	 BMI rel			A:00 X:00 Y:00 P:6E SP:FB - 
C85C  50 05 B0	 BVC rel			A:00 X:00 Y:00 P:6E SP:FB - 
C85E  B0 03 4C	 BCS rel			A:00 X:00 Y:00 P:6E SP:FB - 
C860  4C 67 C8	 JMP abs			A:00 X:00 Y:00 P:6E SP:FB - 
C867  EA A9 00	 NOP impl			A:00 X:00 Y:00 P:6E SP:FB - 
C868  A9 00 85	 LDA #			A:00 X:00 Y:00 P:6E SP:FB - 
C86A  85 01 24	 STA zpg			A:00 X:00 Y:00 P:6E SP:FB - 
C86C  24 01 38	 BIT zpg			A:00 X:00 Y:00 P:6E SP:FB - 
C86E  38 A9 FF	 SEC impl			A:00 X:00 Y:00 P:2E SP:FB - 
C86F  A9 FF 48	 LDA #			A:00 X:00 Y:00 P:2F SP:FB - 
C871  48 A9 00	 PHA impl			A:FF X:00 Y:00 P:AD SP:FB - 
C872  A9 00 68	 LDA #			A:FF X:00 Y:00 P:AD SP:FA - 
C874  68 F0 09	 PLA impl			A:00 X:00 Y:00 P:2F SP:FA - 
C875  F0 09 10	 BEQ rel			A:FF X:00 Y:00 P:AD SP:FB - 
C877  10 07 70	 BPL rel			A:FF X:00 Y:00 P:AD SP:FB - 
C879  70 05 90	 BVS rel			A:FF X:00 Y:00 P:AD SP:FB - 
C87B  90 03 4C	 BCC rel			A:FF X:00 Y:00 P:AD SP:FB - 
C87D  4C 84 C8	 JMP abs			A:FF X:00 Y:00 P:AD SP:FB - 
C884  60 EA 18	 RTS impl			A:FF X:00 Y:00 P:AD SP:FB - 
C603  20 85 C8	 JSR abs			A:FF X:00 Y:00 P:AD SP:FD - 
C885  EA 18 A9	 NOP impl			A:FF X:00 Y:00 P:AD SP:FB - 
C886  18 A9 FF	 CLC impl			A:FF X:00 Y:00 P:AD SP:FB - 
C887  A9 FF 85	 LDA #			A:FF X:00 Y:00 P:AC SP:FB - 
C889  85 01 24	 STA zpg			A:FF X:00 Y:00 P:AC SP:FB - 
C88B  24 01 A9	 BIT zpg			A:FF X:00 Y:00 P:AC SP:FB - 
C88D  A9 55 09	 LDA #			A:FF X:00 Y:00 P:EC SP:FB - 
C88F  09 AA B0	 ORA #			A:55 X:00 Y:00 P:6C SP:FB - 
C891  B0 0B 10	 BCS rel			A:FF X:00 Y:00 P:EC SP:FB - 
C893  10 09 C9	 BPL rel			A:FF X:00 Y:00 P:EC SP:FB - 
C895  C9 FF D0	 CMP #			A:FF X:00 Y:00 P:EC SP:FB - 
C897  D0 05 50	 BNE rel			A:FF X:00 Y:00 P:6F SP:FB - 
C899  50 03 4C	 BVC rel			A:FF X:00 Y:00 P:6F SP:FB - 
C89B  4C A2 C8	 JMP abs			A:FF X:00 Y:00 P:6F SP:FB - 
C8A2  EA 38 B8	 NOP impl			A:FF X:00 Y:00 P:6F SP:FB - 
C8A3  38 B8 A9	 SEC impl			A:FF X:00 Y:00 P:6F SP:FB - 
C8A4  B8 A9 00	 CLV impl			A:FF X:00 Y:00 P:6F SP:FB - 
C8A5  A9 00 09	 LDA #			A:FF X:00 Y:00 P:2F SP:FB - 
C8A7  09 00 D0	 ORA #			A:00 X:00 Y:00 P:2F SP:FB - 
C8A9  D0 09 70	 BNE rel			A:00 X:00 Y:00 P:2F SP:FB - 
C8AB  70 07 90	 BVS rel			A:00 X:00 Y:00 P:2F SP:FB - 
C8AD  90 05 30	 BCC rel			A:00 X:00 Y:00 P:2F SP:FB - 
C8AF  30 03 4C	 BMI rel			A:00 X:00 Y:00 P:2F SP:FB - 
C8B1  4C B8 C8	 JMP abs			A:00 X:00 Y:00 P:2F SP:FB - 
C8B8  EA 18 24	 NOP impl			A:00 X:00 Y:00 P:2F SP:FB - 
C8B9  18 24 01	 CLC impl			A:00 X:00 Y:00 P:2F SP:FB - 
C8BA  24 01 A9	 BIT zpg			A:00 X:00 Y:00 P:2E SP:FB - 
C8BC  A9 55 29	 LDA #			A:00 X:00 Y:00 P:EE SP:FB - 
C8BE  29 AA D0	 AND #			A:55 X:00 Y:00 P:6C SP:FB - 
C8C0  D0 09 50	 BNE rel			A:00 X:00 Y:00 P:6E SP:FB - 
C8C2  50 07 B0	 BVC rel			A:00 X:00 Y:00 P:6E SP:FB - 
C8C4  B0 05 30	 BCS rel			A:00 X:00 Y:00 P:6E SP:FB - 
C8C6  30 03 4C	 BMI rel			A:00 X:00 Y:00 P:6E SP:FB - 
C8C8  4C CF C8	 JMP abs			A:00 X:00 Y:00 P:6E SP:FB - 
C8CF  EA 38 B8	 NOP impl			A:00 X:00 Y:00 P:6E SP:FB - 
C8D0  38 B8 A9	 SEC impl			A:00 X:00 Y:00 P:6E SP:FB - 
C8D1  B8 A9 F8	 CLV impl			A:00 X:00 Y:00 P:6F SP:FB - 
C8D2  A9 F8 29	 LDA #			A:00 X:00 Y:00 P:2F SP:FB - 
C8D4  29 EF 90	 AND #			A:F8 X:00 Y:00 P:AD SP:FB - 
C8D6  90 0B 10	 BCC rel			A:E8 X:00 Y:00 P:AD SP:FB - 
C8D8  10 09 C9	 BPL rel			A:E8 X:00 Y:00 P:AD SP:FB - 
C8DA  C9 E8 D0	 CMP #			A:E8 X:00 Y:00 P:AD SP:FB - 
C8DC  D0 05 70	 BNE rel			A:E8 X:00 Y:00 P:2F SP:FB - 
C8DE  70 03 4C	 BVS rel			A:E8 X:00 Y:00 P:2F SP:FB - 
C8E0  4C E7 C8	 JMP abs			A:E8 X:00 Y:00 P:2F SP:FB - 
C8E7  EA 18 24	 NOP impl			A:E8 X:00 Y:00 P:2F SP:FB - 
C8E8  18 24 01	 CLC impl			A:E8 X:00 Y:00 P:2F SP:FB - 
C8E9  24 01 A9	 BIT zpg			A:E8 X:00 Y:00 P:2E SP:FB - 
C8EB  A9 5F 49	 LDA #			A:E8 X:00 Y:00 P:EC SP:FB - 
C8ED  49 AA B0	 EOR #			A:5F X:00 Y:00 P:6C SP:FB - 
C8EF  B0 0B 10	 BCS rel			A:F5 X:00 Y:00 P:EC SP:FB - 
C8F1  10 09 C9	 BPL rel			A:F5 X:00 Y:00 P:EC SP:FB - 
C8F3  C9 F5 D0	 CMP #			A:F5 X:00 Y:00 P:EC SP:FB - 
C8F5  D0 05 50	 BNE rel			A:F5 X:00 Y:00 P:6F SP:FB - 
C8F7  50 03 4C	 BVC rel			A:F5 X:00 Y:00 P:6F SP:FB - 
C8F9  4C 00 C9	 JMP abs			A:F5 X:00 Y:00 P:6F SP:FB - 
C900  EA 38 B8	 NOP impl			A:F5 X:00 Y:00 P:6F SP:FB - 
C901  38 B8 A9	 SEC impl			A:F5 X:00 Y:00 P:6F SP:FB - 
C902  B8 A9 70	 CLV impl			A:F5 X:00 Y:00 P:6F SP:FB - 
C903  A9 70 49	 LDA #			A:F5 X:00 Y:00 P:2F SP:FB - 
C905  49 70 D0	 EOR #			A:70 X:00 Y:00 P:2D SP:FB - 
C907  D0 09 70	 BNE rel			A:00 X:00 Y:00 P:2F SP:FB - 
C909  70 07 90	 BVS rel			A:00 X:00 Y:00 P:2F SP:FB - 
C90B  90 05 30	 BCC rel			A:00 X:00 Y:00 P:2F SP:FB - 
C90D  30 03 4C	 BMI rel			A:00 X:00 Y:00 P:2F SP:FB - 
C90F  4C 16 C9	 JMP abs			A:00 X:00 Y:00 P:2F SP:FB - 
C916  EA 18 24	 NOP impl			A:00 X:00 Y:00 P:2F SP:FB - 
C917  18 24 01	 CLC impl			A:00 X:00 Y:00 P:2F SP:FB - 
C918  24 01 A9	 BIT zpg			A:00 X:00 Y:00 P:2E SP:FB - 
C91A  A9 00 69	 LDA #			A:00 X:00 Y:00 P:EE SP:FB - 
C91C  69 69 30	 ADC #			A:00 X:00 Y:00 P:6E SP:FB - 
C91E  30 0B B0	 BMI rel			A:69 X:00 Y:00 P:2C SP:FB - 
C920  B0 09 C9	 BCS rel			A:69 X:00 Y:00 P:2C SP:FB - 
C922  C9 69 D0	 CMP #			A:69 X:00 Y:00 P:2C SP:FB - 
C924  D0 05 70	 BNE rel			A:69 X:00 Y:00 P:2F SP:FB - 
C926  70 03 4C	 BVS rel			A:69 X:00 Y:00 P:2F SP:FB - 
C928  4C 2F C9	 JMP abs			A:69 X:00 Y:00 P:2F SP:FB - 
C92F  EA 38 F8	 NOP impl			A:69 X:00 Y:00 P:2F SP:FB - 
C930  38 F8 24	 SEC impl			A:69 X:00 Y:00 P:2F SP:FB - 
C931  F8 24 01	 SED impl			A:69 X:00 Y:00 P:2F SP:FB - 
C932  24 01 A9	 BIT zpg			A:69 X:00 Y:00 P:2F SP:FB - 
C934  A9 01 69	 LDA #			A:69 X:00 Y:00 P:ED SP:FB - 
C936  69 69 30	 ADC #			A:01 X:00 Y:00 P:6D SP:FB - 
C938  30 0B B0	 BMI rel			A:6B X:00 Y:00 P:2C SP:FB - 
C93A  B0 09 C9	 BCS rel			A:6B X:00 Y:00 P:2C SP:FB - 
C93C  C9 6B D0	 CMP #			A:6B X:00 Y:00 P:2C SP:FB - 
C93E  D0 05 70	 BNE rel			A:6B X:00 Y:00 P:2F SP:FB - 
C940  70 03 4C	 BVS rel			A:6B X:00 Y:00 P:2F SP:FB - 
C942  4C 49 C9	 JMP abs			A:6B X:00 Y:00 P:2F SP:FB - 
C949  EA D8 38	 NOP impl			A:6B X:00 Y:00 P:2F SP:FB - 
C94A  D8 38 B8	 CLD impl			A:6B X:00 Y:00 P:2F SP:FB - 
C94B  38 B8 A9	 SEC impl			A:6B X:00 Y:00 P:27 SP:FB - 
C94C  B8 A9 7F	 CLV impl			A:6B X:00 Y:00 P:27 SP:FB - 
C94D  A9 7F 69	 LDA #			A:6B X:00 Y:00 P:27 SP:FB - 
C94F  69 7F 10	 ADC #			A:7F X:00 Y:00 P:25 SP:FB - 
C951  10 0B B0	 BPL rel			A:FF X:00 Y:00 P:E4 SP:FB - 
C953  B0 09 C9	 BCS rel			A:FF X:00 Y:00 P:E4 SP:FB - 
C955  C9 FF D0	 CMP #			A:FF X:00 Y:00 P:E4 SP:FB - 
C957  D0 05 50	 BNE rel			A:FF X:00 Y:00 P:67 SP:FB - 
C959  50 03 4C	 BVC rel			A:FF X:00 Y:00 P:67 SP:FB - 
C95B  4C 62 C9	 JMP abs			A:FF X:00 Y:00 P:67 SP:FB - 
C962  EA 18 24	 NOP impl			A:FF X:00 Y:00 P:67 SP:FB - 
C963  18 24 01	 CLC impl			A:FF X:00 Y:00 P:67 SP:FB - 
C964  24 01 A9	 BIT zpg			A:FF X:00 Y:00 P:66 SP:FB - 
C966  A9 7F 69	 LDA #			A:FF X:00 Y:00 P:E4 SP:FB - 
C968  69 80 10	 ADC #			A:7F X:00 Y:00 P:64 SP:FB - 
C96A  10 0B B0	 BPL rel			A:FF X:00 Y:00 P:A4 SP:FB - 
C96C  B0 09 C9	 BCS rel			A:FF X:00 Y:00 P:A4 SP:FB - 
C96E  C9 FF D0	 CMP #			A:FF X:00 Y:00 P:A4 SP:FB - 
C970  D0 05 70	 BNE rel			A:FF X:00 Y:00 P:27 SP:FB - 
C972  70 03 4C	 BVS rel			A:FF X:00 Y:00 P:27 SP:FB - 
C974  4C 7B C9	 JMP abs			A:FF X:00 Y:00 P:27 SP:FB - 
C97B  EA 38 B8	 NOP impl			A:FF X:00 Y:00 P:27 SP:FB - 
C97C  38 B8 A9	 SEC impl			A:FF X:00 Y:00 P:27 SP:FB - 
C97D  B8 A9 7F	 CLV impl			A:FF X:00 Y:00 P:27 SP:FB - 
C97E  A9 7F 69	 LDA #			A:FF X:00 Y:00 P:27 SP:FB - 
C980  69 80 D0	 ADC #			A:7F X:00 Y:00 P:25 SP:FB - 
C982  D0 09 30	 BNE rel			A:00 X:00 Y:00 P:27 SP:FB - 
C984  30 07 70	 BMI rel			A:00 X:00 Y:00 P:27 SP:FB - 
C986  70 05 90	 BVS rel			A:00 X:00 Y:00 P:27 SP:FB - 
C988  90 03 4C	 BCC rel			A:00 X:00 Y:00 P:27 SP:FB - 
C98A  4C 91 C9	 JMP abs			A:00 X:00 Y:00 P:27 SP:FB - 
C991  EA 38 B8	 NOP impl			A:00 X:00 Y:00 P:27 SP:FB - 
C992  38 B8 A9	 SEC impl			A:00 X:00 Y:00 P:27 SP:FB - 
C993  B8 A9 9F	 CLV impl			A:00 X:00 Y:00 P:27 SP:FB - 
C994  A9 9F F0	 LDA #			A:00 X:00 Y:00 P:27 SP:FB - 
C996  F0 09 10	 BEQ rel			A:9F X:00 Y:00 P:A5 SP:FB - 
C998  10 07 70	 BPL rel			A:9F X:00 Y:00 P:A5 SP:FB - 
C99A  70 05 90	 BVS rel			A:9F X:00 Y:00 P:A5 SP:FB - 
C99C  90 03 4C	 BCC rel			A:9F X:00 Y:00 P:A5 SP:FB - 
C99E  4C A5 C9	 JMP abs			A:9F X:00 Y:00 P:A5 SP:FB - 
C9A5  EA 18 24	 NOP impl			A:9F X:00 Y:00 P:A5 SP:FB - 
C9A6  18 24 01	 CLC impl			A:9F X:00 Y:00 P:A5 SP:FB - 
C9A7  24 01 A9	 BIT zpg			A:9F X:00 Y:00 P:A4 SP:FB - 
C9A9  A9 00 D0	 LDA #			A:9F X:00 Y:00 P:E4 SP:FB - 
C9AB  D0 09 30	 BNE rel			A:00 X:00 Y:00 P:66 SP:FB - 
C9AD  30 07 50	 BMI rel			A:00 X:00 Y:00 P:66 SP:FB - 
C9AF  50 05 B0	 BVC rel			A:00 X:00 Y:00 P:66 SP:FB - 
C9B1  B0 03 4C	 BCS rel			A:00 X:00 Y:00 P:66 SP:FB - 
C9B3  4C BA C9	 JMP abs			A:00 X:00 Y:00 P:66 SP:FB - 
C9BA  EA 24 01	 NOP impl			A:00 X:00 Y:00 P:66 SP:FB - 
C9BB  24 01 A9	 BIT zpg			A:00 X:00 Y:00 P:66 SP:FB - 
C9BD  A9 40 C9	 LDA #			A:00 X:00 Y:00 P:E6 SP:FB - 
C9BF  C9 40 30	 CMP #			A:40 X:00 Y:00 P:64 SP:FB - 
C9C1  30 09 90	 BMI rel			A:40 X:00 Y:00 P:67 SP:FB - 
C9C3  90 07 D0	 BCC rel			A:40 X:00 Y:00 P:67 SP:FB - 
C9C5  D0 05 50	 BNE rel			A:40 X:00 Y:00 P:67 SP:FB - 
C9C7  50 03 4C	 BVC rel			A:40 X:00 Y:00 P:67 SP:FB - 
C9C9  4C D0 C9	 JMP abs			A:40 X:00 Y:00 P:67 SP:FB - 
C9D0  EA B8 C9	 NOP impl			A:40 X:00 Y:00 P:67 SP:FB - 
C9D1  B8 C9 3F	 CLV impl			A:40 X:00 Y:00 P:67 SP:FB - 
C9D2  C9 3F F0	 CMP #			A:40 X:00 Y:00 P:27 SP:FB - 
C9D4  F0 09 30	 BEQ rel			A:40 X:00 Y:00 P:25 SP:FB - 
C9D6  30 07 90	 BMI rel			A:40 X:00 Y:00 P:25 SP:FB - 
C9D8  90 05 70	 BCC rel			A:40 X:00 Y:00 P:25 SP:FB - 
C9DA  70 03 4C	 BVS rel			A:40 X:00 Y:00 P:25 SP:FB - 
C9DC  4C E3 C9	 JMP abs			A:40 X:00 Y:00 P:25 SP:FB - 
C9E3  EA C9 41	 NOP impl			A:40 X:00 Y:00 P:25 SP:FB - 
C9E4  C9 41 F0	 CMP #			A:40 X:00 Y:00 P:25 SP:FB - 
C9E6  F0 07 10	 BEQ rel			A:40 X:00 Y:00 P:A4 SP:FB - 
C9E8  10 05 10	 BPL rel			A:40 X:00 Y:00 P:A4 SP:FB - 
C9EA  10 03 4C	 BPL rel			A:40 X:00 Y:00 P:A4 SP:FB - 
C9EC  4C F3 C9	 JMP abs			A:40 X:00 Y:00 P:A4 SP:FB - 
C9F3  EA A9 80	 NOP impl			A:40 X:00 Y:00 P:A4 SP:FB - 
C9F4  A9 80 C9	 LDA #			A:40 X:00 Y:00 P:A4 SP:FB - 
C9F6  C9 00 F0	 CMP #			A:80 X:00 Y:00 P:A4 SP:FB - 
C9F8  F0 07 10	 BEQ rel			A:80 X:00 Y:00 P:A5 SP:FB - 
C9FA  10 05 90	 BPL rel			A:80 X:00 Y:00 P:A5 SP:FB - 
C9FC  90 03 4C	 BCC rel			A:80 X:00 Y:00 P:A5 SP:FB - 
C9FE  4C 05 CA	 JMP abs			A:80 X:00 Y:00 P:A5 SP:FB - 
CA05  EA C9 80	 NOP impl			A:80 X:00 Y:00 P:A5 SP:FB - 
CA06  C9 80 D0	 CMP #			A:80 X:00 Y:00 P:A5 SP:FB - 
CA08  D0 07 30	 BNE rel			A:80 X:00 Y:00 P:27 SP:FB - 
CA0A  30 05 90	 BMI rel			A:80 X:00 Y:00 P:27 SP:FB - 
CA0C  90 03 4C	 BCC rel			A:80 X:00 Y:00 P:27 SP:FB - 
CA0E  4C 15 CA	 JMP abs			A:80 X:00 Y:00 P:27 SP:FB - 
CA15  EA C9 81	 NOP impl			A:80 X:00 Y:00 P:27 SP:FB - 
CA16  C9 81 B0	 CMP #			A:80 X:00 Y:00 P:27 SP:FB - 
CA18  B0 07 F0	 BCS rel			A:80 X:00 Y:00 P:A4 SP:FB - 
CA1A  F0 05 10	 BEQ rel			A:80 X:00 Y:00 P:A4 SP:FB - 
CA1C  10 03 4C	 BPL rel			A:80 X:00 Y:00 P:A4 SP:FB - 
CA1E  4C 25 CA	 JMP abs			A:80 X:00 Y:00 P:A4 SP:FB - 
CA25  EA C9 7F	 NOP impl			A:80 X:00 Y:00 P:A4 SP:FB - 
CA26  C9 7F 90	 CMP #			A:80 X:00 Y:00 P:A4 SP:FB - 
CA28  90 07 F0	 BCC rel			A:80 X:00 Y:00 P:25 SP:FB - 
CA2A  F0 05 30	 BEQ rel			A:80 X:00 Y:00 P:25 SP:FB - 
CA2C  30 03 4C	 BMI rel			A:80 X:00 Y:00 P:25 SP:FB - 
CA2E  4C 35 CA	 JMP abs			A:80 X:00 Y:00 P:25 SP:FB - 
CA35  EA 24 01	 NOP impl			A:80 X:00 Y:00 P:25 SP:FB - 
CA36  24 01 A0	 BIT zpg			A:80 X:00 Y:00 P:25 SP:FB - 
CA38  A0 40 C0	 LDY #			A:80 X:00 Y:00 P:E5 SP:FB - 
CA3A  C0 40 D0	 CPY #			A:80 X:00 Y:40 P:65 SP:FB - 
CA3C  D0 09 30	 BNE rel			A:80 X:00 Y:40 P:67 SP:FB - 
CA3E  30 07 90	 BMI rel			A:80 X:00 Y:40 P:67 SP:FB - 
CA40  90 05 50	 BCC rel			A:80 X:00 Y:40 P:67 SP:FB - 
CA42  50 03 4C	 BVC rel			A:80 X:00 Y:40 P:67 SP:FB - 
CA44  4C 4B CA	 JMP abs			A:80 X:00 Y:40 P:67 SP:FB - 
CA4B  EA B8 C0	 NOP impl			A:80 X:00 Y:40 P:67 SP:FB - 
CA4C  B8 C0 3F	 CLV impl			A:80 X:00 Y:40 P:67 SP:FB - 
CA4D  C0 3F F0	 CPY #			A:80 X:00 Y:40 P:27 SP:FB - 
CA4F  F0 09 30	 BEQ rel			A:80 X:00 Y:40 P:25 SP:FB - 
CA51  30 07 90	 BMI rel			A:80 X:00 Y:40 P:25 SP:FB - 
CA53  90 05 70	 BCC rel			A:80 X:00 Y:40 P:25 SP:FB - 
CA55  70 03 4C	 BVS rel			A:80 X:00 Y:40 P:25 SP:FB - 
CA57  4C 5E CA	 JMP abs			A:80 X:00 Y:40 P:25 SP:FB - 
CA5E  EA C0 41	 NOP impl			A:80 X:00 Y:40 P:25 SP:FB - 
CA5F  C0 41 F0	 CPY #			A:80 X:00 Y:40 P:25 SP:FB - 
CA61  F0 07 10	 BEQ rel			A:80 X:00 Y:40 P:A4 SP:FB - 
CA63  10 05 10	 BPL rel			A:80 X:00 Y:40 P:A4 SP:FB - 
CA65  10 03 4C	 BPL rel			A:80 X:00 Y:40 P:A4 SP:FB - 
CA67  4C 6E CA	 JMP abs			A:80 X:00 Y:40 P:A4 SP:FB - 
CA6E  EA A0 80	 NOP impl			A:80 X:00 Y:40 P:A4 SP:FB - 
CA6F  A0 80 C0	 LDY #			A:80 X:00 Y:40 P:A4 SP:FB - 
CA71  C0 00 F0	 CPY #			A:80 X:00 Y:80 P:A4 SP:FB - 
CA73  F0 07 10	 BEQ rel			A:80 X:00 Y:80 P:A5 SP:FB - 
CA75  10 05 90	 BPL rel			A:80 X:00 Y:80 P:A5 SP:FB - 
CA77  90 03 4C	 BCC rel			A:80 X:00 Y:80 P:A5 SP:FB - 
CA79  4C 80 CA	 JMP abs			A:80 X:00 Y:80 P:A5 SP:FB - 
CA80  EA C0 80	 NOP impl			A:80 X:00 Y:80 P:A5 SP:FB - 
CA81  C0 80 D0	 CPY #			A:80 X:00 Y:80 P:A5 SP:FB - 
CA83  D0 07 30	 BNE rel			A:80 X:00 Y:80 P:27 SP:FB - 
CA85  30 05 90	 BMI rel			A:80 X:00 Y:80 P:27 SP:FB - 
CA87  90 03 4C	 BCC rel			A:80 X:00 Y:80 P:27 SP:FB - 
CA89  4C 90 CA	 JMP abs			A:80 X:00 Y:80 P:27 SP:FB - 
CA90  EA C0 81	 NOP impl			A:80 X:00 Y:80 P:27 SP:FB - 
CA91  C0 81 B0	 CPY #			A:80 X:00 Y:80 P:27 SP:FB - 
CA93  B0 07 F0	 BCS rel			A:80 X:00 Y:80 P:A4 SP:FB - 
CA95  F0 05 10	 BEQ rel			A:80 X:00 Y:80 P:A4 SP:FB - 
CA97  10 03 4C	 BPL rel			A:80 X:00 Y:80 P:A4 SP:FB - 
CA99  4C A0 CA	 JMP abs			A:80 X:00 Y:80 P:A4 SP:FB - 
CAA0  EA C0 7F	 NOP impl			A:80 X:00 Y:80 P:A4 SP:FB - 
CAA1  C0 7F 90	 CPY #			A:80 X:00 Y:80 P:A4 SP:FB - 
CAA3  90 07 F0	 BCC rel			A:80 X:00 Y:80 P:25 SP:FB - 
CAA5  F0 05 30	 BEQ rel			A:80 X:00 Y:80 P:25 SP:FB - 
CAA7  30 03 4C	 BMI rel			A:80 X:00 Y:80 P:25 SP:FB - 
CAA9  4C B0 CA	 JMP abs			A:80 X:00 Y:80 P:25 SP:FB - 
CAB0  EA 24 01	 NOP impl			A:80 X:00 Y:80 P:25 SP:FB - 
CAB1  24 01 A2	 BIT zpg			A:80 X:00 Y:80 P:25 SP:FB - 
CAB3  A2 40 E0	 LDX #			A:80 X:00 Y:80 P:E5 SP:FB - 
CAB5  E0 40 D0	 CPX #			A:80 X:40 Y:80 P:65 SP:FB - 
CAB7  D0 09 30	 BNE rel			A:80 X:40 Y:80 P:67 SP:FB - 
CAB9  30 07 90	 BMI rel			A:80 X:40 Y:80 P:67 SP:FB - 
CABB  90 05 50	 BCC rel			A:80 X:40 Y:80 P:67 SP:FB - 
CABD  50 03 4C	 BVC rel			A:80 X:40 Y:80 P:67 SP:FB - 
CABF  4C C6 CA	 JMP abs			A:80 X:40 Y:80 P:67 SP:FB - 
CAC6  EA B8 E0	 NOP impl			A:80 X:40 Y:80 P:67 SP:FB - 
CAC7  B8 E0 3F	 CLV impl			A:80 X:40 Y:80 P:67 SP:FB - 
CAC8  E0 3F F0	 CPX #			A:80 X:40 Y:80 P:27 SP:FB - 
CACA  F0 09 30	 BEQ rel			A:80 X:40 Y:80 P:25 SP:FB - 
CACC  30 07 90	 BMI rel			A:80 X:40 Y:80 P:25 SP:FB - 
CACE  90 05 70	 BCC rel			A:80 X:40 Y:80 P:25 SP:FB - 
CAD0  70 03 4C	 BVS rel			A:80 X:40 Y:80 P:25 SP:FB - 
CAD2  4C D9 CA	 JMP abs			A:80 X:40 Y:80 P:25 SP:FB - 
CAD9  EA E0 41	 NOP impl			A:80 X:40 Y:80 P:25 SP:FB - 
CADA  E0 41 F0	 CPX #			A:80 X:40 Y:80 P:25 SP:FB - 
CADC  F0 07 10	 BEQ rel			A:80 X:40 Y:80 P:A4 SP:FB - 
CADE  10 05 10	 BPL rel			A:80 X:40 Y:80 P:A4 SP:FB - 
CAE0  10 03 4C	 BPL rel			A:80 X:40 Y:80 P:A4 SP:FB - 
CAE2  4C E9 CA	 JMP abs			A:80 X:40 Y:80 P:A4 SP:FB - 
CAE9  EA A2 80	 NOP impl			A:80 X:40 Y:80 P:A4 SP:FB - 
CAEA  A2 80 E0	 LDX #			A:80 X:40 Y:80 P:A4 SP:FB - 
CAEC  E0 00 F0	 CPX #			A:80 X:80 Y:80 P:A4 SP:FB - 
CAEE  F0 07 10	 BEQ rel			A:80 X:80 Y:80 P:A5 SP:FB - 
CAF0  10 05 90	 BPL rel			A:80 X:80 Y:80 P:A5 SP:FB - 
CAF2  90 03 4C	 BCC rel			A:80 X:80 Y:80 P:A5 SP:FB - 
CAF4  4C FB CA	 JMP abs			A:80 X:80 Y:80 P:A5 SP:FB - 
CAFB  EA E0 80	 NOP impl			A:80 X:80 Y:80 P:A5 SP:FB - 
CAFC  E0 80 D0	 CPX #			A:80 X:80 Y:80 P:A5 SP:FB - 
CAFE  D0 07 30	 BNE rel			A:80 X:80 Y:80 P:27 SP:FB - 
CB00  30 05 90	 BMI rel			A:80 X:80 Y:80 P:27 SP:FB - 
CB02  90 03 4C	 BCC rel			A:80 X:80 Y:80 P:27 SP:FB - 
CB04  4C 0B CB	 JMP abs			A:80 X:80 Y:80 P:27 SP:FB - 
CB0B  EA E0 81	 NOP impl			A:80 X:80 Y:80 P:27 SP:FB - 
CB0C  E0 81 B0	 CPX #			A:80 X:80 Y:80 P:27 SP:FB - 
CB0E  B0 07 F0	 BCS rel			A:80 X:80 Y:80 P:A4 SP:FB - 
CB10  F0 05 10	 BEQ rel			A:80 X:80 Y:80 P:A4 SP:FB - 
CB12  10 03 4C	 BPL rel			A:80 X:80 Y:80 P:A4 SP:FB - 
CB14  4C 1B CB	 JMP abs			A:80 X:80 Y:80 P:A4 SP:FB - 
CB1B  EA E0 7F	 NOP impl			A:80 X:80 Y:80 P:A4 SP:FB - 
CB1C  E0 7F 90	 CPX #			A:80 X:80 Y:80 P:A4 SP:FB - 
CB1E  90 07 F0	 BCC rel			A:80 X:80 Y:80 P:25 SP:FB - 
CB20  F0 05 30	 BEQ rel			A:80 X:80 Y:80 P:25 SP:FB - 
CB22  30 03 4C	 BMI rel			A:80 X:80 Y:80 P:25 SP:FB - 
CB24  4C 2B CB	 JMP abs			A:80 X:80 Y:80 P:25 SP:FB - 
CB2B  EA 38 B8	 NOP impl			A:80 X:80 Y:80 P:25 SP:FB - 
CB2C  38 B8 A2	 SEC impl			A:80 X:80 Y:80 P:25 SP:FB - 
CB2D  B8 A2 9F	 CLV impl			A:80 X:80 Y:80 P:25 SP:FB - 
CB2E  A2 9F F0	 LDX #			A:80 X:80 Y:80 P:25 SP:FB - 
CB30  F0 09 10	 BEQ rel			A:80 X:9F Y:80 P:A5 SP:FB - 
CB32  10 07 70	 BPL rel			A:80 X:9F Y:80 P:A5 SP:FB - 
CB34  70 05 90	 BVS rel			A:80 X:9F Y:80 P:A5 SP:FB - 
CB36  90 03 4C	 BCC rel			A:80 X:9F Y:80 P:A5 SP:FB - 
CB38  4C 3F CB	 JMP abs			A:80 X:9F Y:80 P:A5 SP:FB - 
CB3F  EA 18 24	 NOP impl			A:80 X:9F Y:80 P:A5 SP:FB - 
CB40  18 24 01	 CLC impl			A:80 X:9F Y:80 P:A5 SP:FB - 
CB41  24 01 A2	 BIT zpg			A:80 X:9F Y:80 P:A4 SP:FB - 
CB43  A2 00 D0	 LDX #			A:80 X:9F Y:80 P:E4 SP:FB - 
CB45  D0 09 30	 BNE rel			A:80 X:00 Y:80 P:66 SP:FB - 
CB47  30 07 50	 BMI rel			A:80 X:00 Y:80 P:66 SP:FB - 
CB49  50 05 B0	 BVC rel			A:80 X:00 Y:80 P:66 SP:FB - 
CB4B  B0 03 4C	 BCS rel			A:80 X:00 Y:80 P:66 SP:FB - 
CB4D  4C 54 CB	 JMP abs			A:80 X:00 Y:80 P:66 SP:FB - 
CB54  EA 38 B8	 NOP impl			A:80 X:00 Y:80 P:66 SP:FB - 
CB55  38 B8 A0	 SEC impl			A:80 X:00 Y:80 P:66 SP:FB - 
CB56  B8 A0 9F	 CLV impl			A:80 X:00 Y:80 P:67 SP:FB - 
CB57  A0 9F F0	 LDY #			A:80 X:00 Y:80 P:27 SP:FB - 
CB59  F0 09 10	 BEQ rel			A:80 X:00 Y:9F P:A5 SP:FB - 
CB5B  10 07 70	 BPL rel			A:80 X:00 Y:9F P:A5 SP:FB - 
CB5D  70 05 90	 BVS rel			A:80 X:00 Y:9F P:A5 SP:FB - 
CB5F  90 03 4C	 BCC rel			A:80 X:00 Y:9F P:A5 SP:FB - 
CB61  4C 68 CB	 JMP abs			A:80 X:00 Y:9F P:A5 SP:FB - 
CB68  EA 18 24	 NOP impl			A:80 X:00 Y:9F P:A5 SP:FB - 
CB69  18 24 01	 CLC impl			A:80 X:00 Y:9F P:A5 SP:FB - 
CB6A  24 01 A0	 BIT zpg			A:80 X:00 Y:9F P:A4 SP:FB - 
CB6C  A0 00 D0	 LDY #			A:80 X:00 Y:9F P:E4 SP:FB - 
CB6E  D0 09 30	 BNE rel			A:80 X:00 Y:00 P:66 SP:FB - 
CB70  30 07 50	 BMI rel			A:80 X:00 Y:00 P:66 SP:FB - 
CB72  50 05 B0	 BVC rel			A:80 X:00 Y:00 P:66 SP:FB - 
CB74  B0 03 4C	 BCS rel			A:80 X:00 Y:00 P:66 SP:FB - 
CB76  4C 7D CB	 JMP abs			A:80 X:00 Y:00 P:66 SP:FB - 
CB7D  EA A9 55	 NOP impl			A:80 X:00 Y:00 P:66 SP:FB - 
CB7E  A9 55 A2	 LDA #			A:80 X:00 Y:00 P:66 SP:FB - 
CB80  A2 AA A0	 LDX #			A:55 X:00 Y:00 P:64 SP:FB - 
CB82  A0 33 C9	 LDY #			A:55 X:AA Y:00 P:E4 SP:FB - 
CB84  C9 55 D0	 CMP #			A:55 X:AA Y:33 P:64 SP:FB - 
CB86  D0 23 E0	 BNE rel			A:55 X:AA Y:33 P:67 SP:FB - 
CB88  E0 AA D0	 CPX #			A:55 X:AA Y:33 P:67 SP:FB - 
CB8A  D0 1F C0	 BNE rel			A:55 X:AA Y:33 P:67 SP:FB - 
CB8C  C0 33 D0	 CPY #			A:55 X:AA Y:33 P:67 SP:FB - 
CB8E  D0 1B C9	 BNE rel			A:55 X:AA Y:33 P:67 SP:FB - 
CB90  C9 55 D0	 CMP #			A:55 X:AA Y:33 P:67 SP:FB - 
CB92  D0 17 E0	 BNE rel			A:55 X:AA Y:33 P:67 SP:FB - 
CB94  E0 AA D0	 CPX #			A:55 X:AA Y:33 P:67 SP:FB - 
CB96  D0 13 C0	 BNE rel			A:55 X:AA Y:33 P:67 SP:FB - 
CB98  C0 33 D0	 CPY #			A:55 X:AA Y:33 P:67 SP:FB - 
CB9A  D0 0F C9	 BNE rel			A:55 X:AA Y:33 P:67 SP:FB - 
CB9C  C9 56 F0	 CMP #			A:55 X:AA Y:33 P:67 SP:FB - 
CB9E  F0 0B E0	 BEQ rel			A:55 X:AA Y:33 P:E4 SP:FB - 
CBA0  E0 AB F0	 CPX #			A:55 X:AA Y:33 P:E4 SP:FB - 
CBA2  F0 07 C0	 BEQ rel			A:55 X:AA Y:33 P:E4 SP:FB - 
CBA4  C0 34 F0	 CPY #			A:55 X:AA Y:33 P:E4 SP:FB - 
CBA6  F0 03 4C	 BEQ rel			A:55 X:AA Y:33 P:E4 SP:FB - 
CBA8  4C AF CB	 JMP abs			A:55 X:AA Y:33 P:E4 SP:FB - 
CBAF  A0 71 20	 LDY #			A:55 X:AA Y:33 P:E4 SP:FB - 
CBB1  20 31 F9	 JSR abs			A:55 X:AA Y:71 P:64 SP:FB - 
F931  24 01 A9	 BIT zpg			A:55 X:AA Y:71 P:64 SP:F9 - 
F933  A9 40 38	 LDA #			A:55 X:AA Y:71 P:E4 SP:F9 - 
F935  38 60 30	 SEC impl			A:40 X:AA Y:71 P:64 SP:F9 - 
F936  60 30 0B	 RTS impl			A:40 X:AA Y:71 P:65 SP:F9 - 
CBB4  E9 40 20	 SBC #			A:40 X:AA Y:71 P:65 SP:FB - 
CBB6  20 37 F9	 JSR abs			A:00 X:AA Y:71 P:27 SP:FB - 
F937  30 0B 90	 BMI rel			A:00 X:AA Y:71 P:27 SP:F9 - 
F939  90 09 D0	 BCC rel			A:00 X:AA Y:71 P:27 SP:F9 - 
F93B  D0 07 70	 BNE rel			A:00 X:AA Y:71 P:27 SP:F9 - 
F93D  70 05 C9	 BVS rel			A:00 X:AA Y:71 P:27 SP:F9 - 
F93F  C9 00 D0	 CMP #			A:00 X:AA Y:71 P:27 SP:F9 - 
F941  D0 01 60	 BNE rel			A:00 X:AA Y:71 P:27 SP:F9 - 
F943  60 84 00	 RTS impl			A:00 X:AA Y:71 P:27 SP:F9 - 
CBB9  C8 20 47	 INY impl			A:00 X:AA Y:71 P:27 SP:FB - 
CBBA  20 47 F9	 JSR abs			A:00 X:AA Y:72 P:25 SP:FB - 
F947  B8 38 A9	 CLV impl			A:00 X:AA Y:72 P:25 SP:F9 - 
F948  38 A9 40	 SEC impl			A:00 X:AA Y:72 P:25 SP:F9 - 
F949  A9 40 60	 LDA #			A:00 X:AA Y:72 P:25 SP:F9 - 
F94B  60 F0 0B	 RTS impl			A:40 X:AA Y:72 P:25 SP:F9 - 
CBBD  E9 3F 20	 SBC #			A:40 X:AA Y:72 P:25 SP:FB - 
CBBF  20 4C F9	 JSR abs			A:01 X:AA Y:72 P:25 SP:FB - 
F94C  F0 0B 30	 BEQ rel			A:01 X:AA Y:72 P:25 SP:F9 - 
F94E  30 09 90	 BMI rel			A:01 X:AA Y:72 P:25 SP:F9 - 
F950  90 07 70	 BCC rel			A:01 X:AA Y:72 P:25 SP:F9 - 
F952  70 05 C9	 BVS rel			A:01 X:AA Y:72 P:25 SP:F9 - 
F954  C9 01 D0	 CMP #			A:01 X:AA Y:72 P:25 SP:F9 - 
F956  D0 01 60	 BNE rel			A:01 X:AA Y:72 P:27 SP:F9 - 
F958  60 84 00	 RTS impl			A:01 X:AA Y:72 P:27 SP:F9 - 
CBC2  C8 20 5C	 INY impl			A:01 X:AA Y:72 P:27 SP:FB - 
CBC3  20 5C F9	 JSR abs			A:01 X:AA Y:73 P:25 SP:FB - 
F95C  A9 40 38	 LDA #			A:01 X:AA Y:73 P:25 SP:F9 - 
F95E  38 24 01	 SEC impl			A:40 X:AA Y:73 P:25 SP:F9 - 
F95F  24 01 60	 BIT zpg			A:40 X:AA Y:73 P:25 SP:F9 - 
F961  60 B0 0B	 RTS impl			A:40 X:AA Y:73 P:E5 SP:F9 - 
CBC6  E9 41 20	 SBC #			A:40 X:AA Y:73 P:E5 SP:FB - 
CBC8  20 62 F9	 JSR abs			A:FF X:AA Y:73 P:A4 SP:FB - 
F962  B0 0B F0	 BCS rel			A:FF X:AA Y:73 P:A4 SP:F9 - 
F964  F0 09 10	 BEQ rel			A:FF X:AA Y:73 P:A4 SP:F9 - 
F966  10 07 70	 BPL rel			A:FF X:AA Y:73 P:A4 SP:F9 - 
F968  70 05 C9	 BVS rel			A:FF X:AA Y:73 P:A4 SP:F9 - 
F96A  C9 FF D0	 CMP #			A:FF X:AA Y:73 P:A4 SP:F9 - 
F96C  D0 01 60	 BNE rel			A:FF X:AA Y:73 P:27 SP:F9 - 
F96E  60 84 00	 RTS impl			A:FF X:AA Y:73 P:27 SP:F9 - 
CBCB  C8 20 72	 INY impl			A:FF X:AA Y:73 P:27 SP:FB - 
CBCC  20 72 F9	 JSR abs			A:FF X:AA Y:74 P:25 SP:FB - 
F972  18 A9 80	 CLC impl			A:FF X:AA Y:74 P:25 SP:F9 - 
F973  A9 80 60	 LDA #			A:FF X:AA Y:74 P:24 SP:F9 - 
F975  60 90 05	 RTS impl			A:80 X:AA Y:74 P:A4 SP:F9 - 
CBCF  E9 00 20	 SBC #			A:80 X:AA Y:74 P:A4 SP:FB - 
CBD1  20 76 F9	 JSR abs			A:7F X:AA Y:74 P:65 SP:FB - 
F976  90 05 C9	 BCC rel			A:7F X:AA Y:74 P:65 SP:F9 - 
F978  C9 7F D0	 CMP #			A:7F X:AA Y:74 P:65 SP:F9 - 
F97A  D0 01 60	 BNE rel			A:7F X:AA Y:74 P:67 SP:F9 - 
F97C  60 84 00	 RTS impl			A:7F X:AA Y:74 P:67 SP:F9 - 
CBD4  C8 20 80	 INY impl			A:7F X:AA Y:74 P:67 SP:FB - 
CBD5  20 80 F9	 JSR abs			A:7F X:AA Y:75 P:65 SP:FB - 
F980  38 A9 81	 SEC impl			A:7F X:AA Y:75 P:65 SP:F9 - 
F981  A9 81 60	 LDA #			A:7F X:AA Y:75 P:65 SP:F9 - 
F983  60 50 07	 RTS impl			A:81 X:AA Y:75 P:E5 SP:F9 - 
CBD8  E9 7F 20	 SBC #			A:81 X:AA Y:75 P:E5 SP:FB - 
CBDA  20 84 F9	 JSR abs			A:02 X:AA Y:75 P:65 SP:FB - 
F984  50 07 90	 BVC rel			A:02 X:AA Y:75 P:65 SP:F9 - 
F986  90 05 C9	 BCC rel			A:02 X:AA Y:75 P:65 SP:F9 - 
F988  C9 02 D0	 CMP #			A:02 X:AA Y:75 P:65 SP:F9 - 
F98A  D0 01 60	 BNE rel			A:02 X:AA Y:75 P:67 SP:F9 - 
F98C  60 84 00	 RTS impl			A:02 X:AA Y:75 P:67 SP:F9 - 
CBDD  60 EA A9	 RTS impl			A:02 X:AA Y:75 P:67 SP:FB - 
C606  20 DE CB	 JSR abs			A:02 X:AA Y:75 P:67 SP:FD - 
CBDE  EA A9 FF	 NOP impl			A:02 X:AA Y:75 P:67 SP:FB - 
CBDF  A9 FF 85	 LDA #			A:02 X:AA Y:75 P:67 SP:FB - 
CBE1  85 01 A9	 STA zpg			A:FF X:AA Y:75 P:E5 SP:FB - 
CBE3  A9 44 A2	 LDA #			A:FF X:AA Y:75 P:E5 SP:FB - 
CBE5  A2 55 A0	 LDX #			A:44 X:AA Y:75 P:65 SP:FB - 
CBE7  A0 66 E8	 LDY #			A:44 X:55 Y:75 P:65 SP:FB - 
CBE9  E8 88 E0	 INX impl			A:44 X:55 Y:66 P:65 SP:FB - 
CBEA  88 E0 56	 DEY impl			A:44 X:56 Y:66 P:65 SP:FB - 
CBEB  E0 56 D0	 CPX #			A:44 X:56 Y:65 P:65 SP:FB - 
CBED  D0 21 C0	 BNE rel			A:44 X:56 Y:65 P:67 SP:FB - 
CBEF  C0 65 D0	 CPY #			A:44 X:56 Y:65 P:67 SP:FB - 
CBF1  D0 1D E8	 BNE rel			A:44 X:56 Y:65 P:67 SP:FB - 
CBF3  E8 E8 88	 INX impl			A:44 X:56 Y:65 P:67 SP:FB - 
CBF4  E8 88 88	 INX impl			A:44 X:57 Y:65 P:65 SP:FB - 
CBF5  88 88 E0	 DEY impl			A:44 X:58 Y:65 P:65 SP:FB - 
CBF6  88 E0 58	 DEY impl			A:44 X:58 Y:64 P:65 SP:FB - 
CBF7  E0 58 D0	 CPX #			A:44 X:58 Y:63 P:65 SP:FB - 
CBF9  D0 15 C0	 BNE rel			A:44 X:58 Y:63 P:67 SP:FB - 
CBFB  C0 63 D0	 CPY #			A:44 X:58 Y:63 P:67 SP:FB - 
CBFD  D0 11 CA	 BNE rel			A:44 X:58 Y:63 P:67 SP:FB - 
CBFF  CA C8 E0	 DEX impl			A:44 X:58 Y:63 P:67 SP:FB - 
CC00  C8 E0 57	 INY impl			A:44 X:57 Y:63 P:65 SP:FB - 
CC01  E0 57 D0	 CPX #			A:44 X:57 Y:64 P:65 SP:FB - 
CC03  D0 0B C0	 BNE rel			A:44 X:57 Y:64 P:67 SP:FB - 
CC05  C0 64 D0	 CPY #			A:44 X:57 Y:64 P:67 SP:FB - 
CC07  D0 07 C9	 BNE rel			A:44 X:57 Y:64 P:67 SP:FB - 
CC09  C9 44 D0	 CMP #			A:44 X:57 Y:64 P:67 SP:FB - 
CC0B  D0 03 4C	 BNE rel			A:44 X:57 Y:64 P:67 SP:FB - 
CC0D  4C 14 CC	 JMP abs			A:44 X:57 Y:64 P:67 SP:FB - 
CC14  EA 38 A2	 NOP impl			A:44 X:57 Y:64 P:67 SP:FB - 
CC15  38 A2 69	 SEC impl			A:44 X:57 Y:64 P:67 SP:FB - 
CC16  A2 69 A9	 LDX #			A:44 X:57 Y:64 P:67 SP:FB - 
CC18  A9 96 24	 LDA #			A:44 X:69 Y:64 P:65 SP:FB - 
CC1A  24 01 A0	 BIT zpg			A:96 X:69 Y:64 P:E5 SP:FB - 
CC1C  A0 FF C8	 LDY #			A:96 X:69 Y:64 P:E5 SP:FB - 
CC1E  C8 D0 3D	 INY impl			A:96 X:69 Y:FF P:E5 SP:FB - 
CC1F  D0 3D 30	 BNE rel			A:96 X:69 Y:00 P:67 SP:FB - 
CC21  30 3B 90	 BMI rel			A:96 X:69 Y:00 P:67 SP:FB - 
CC23  90 39 50	 BCC rel			A:96 X:69 Y:00 P:67 SP:FB - 
CC25  50 37 C0	 BVC rel			A:96 X:69 Y:00 P:67 SP:FB - 
CC27  C0 00 D0	 CPY #			A:96 X:69 Y:00 P:67 SP:FB - 
CC29  D0 33 C8	 BNE rel			A:96 X:69 Y:00 P:67 SP:FB - 
CC2B  C8 F0 30	 INY impl			A:96 X:69 Y:00 P:67 SP:FB - 
CC2C  F0 30 30	 BEQ rel			A:96 X:69 Y:01 P:65 SP:FB - 
CC2E  30 2E 90	 BMI rel			A:96 X:69 Y:01 P:65 SP:FB - 
CC30  90 2C 50	 BCC rel			A:96 X:69 Y:01 P:65 SP:FB - 
CC32  50 2A 18	 BVC rel			A:96 X:69 Y:01 P:65 SP:FB - 
CC34  18 B8 A0	 CLC impl			A:96 X:69 Y:01 P:65 SP:FB - 
CC35  B8 A0 00	 CLV impl			A:96 X:69 Y:01 P:64 SP:FB - 
CC36  A0 00 88	 LDY #			A:96 X:69 Y:01 P:24 SP:FB - 
CC38  88 F0 23	 DEY impl			A:96 X:69 Y:00 P:26 SP:FB - 
CC39  F0 23 10	 BEQ rel			A:96 X:69 Y:FF P:A4 SP:FB - 
CC3B  10 21 B0	 BPL rel			A:96 X:69 Y:FF P:A4 SP:FB - 
CC3D  B0 1F 70	 BCS rel			A:96 X:69 Y:FF P:A4 SP:FB - 
CC3F  70 1D C0	 BVS rel			A:96 X:69 Y:FF P:A4 SP:FB - 
CC41  C0 FF D0	 CPY #			A:96 X:69 Y:FF P:A4 SP:FB - 
CC43  D0 19 18	 BNE rel			A:96 X:69 Y:FF P:27 SP:FB - 
CC45  18 88 F0	 CLC impl			A:96 X:69 Y:FF P:27 SP:FB - 
CC46  88 F0 15	 DEY impl			A:96 X:69 Y:FF P:26 SP:FB - 
CC47  F0 15 10	 BEQ rel			A:96 X:69 Y:FE P:A4 SP:FB - 
CC49  10 13 B0	 BPL rel			A:96 X:69 Y:FE P:A4 SP:FB - 
CC4B  B0 11 70	 BCS rel			A:96 X:69 Y:FE P:A4 SP:FB - 
CC4D  70 0F C0	 BVS rel			A:96 X:69 Y:FE P:A4 SP:FB - 
CC4F  C0 FE D0	 CPY #			A:96 X:69 Y:FE P:A4 SP:FB - 
CC51  D0 0B C9	 BNE rel			A:96 X:69 Y:FE P:27 SP:FB - 
CC53  C9 96 D0	 CMP #			A:96 X:69 Y:FE P:27 SP:FB - 
CC55  D0 07 E0	 BNE rel			A:96 X:69 Y:FE P:27 SP:FB - 
CC57  E0 69 D0	 CPX #			A:96 X:69 Y:FE P:27 SP:FB - 
CC59  D0 03 4C	 BNE rel			A:96 X:69 Y:FE P:27 SP:FB - 
CC5B  4C 62 CC	 JMP abs			A:96 X:69 Y:FE P:27 SP:FB - 
CC62  EA 38 A0	 NOP impl			A:96 X:69 Y:FE P:27 SP:FB - 
CC63  38 A0 69	 SEC impl			A:96 X:69 Y:FE P:27 SP:FB - 
CC64  A0 69 A9	 LDY #			A:96 X:69 Y:FE P:27 SP:FB - 
CC66  A9 96 24	 LDA #			A:96 X:69 Y:69 P:25 SP:FB - 
CC68  24 01 A2	 BIT zpg			A:96 X:69 Y:69 P:A5 SP:FB - 
CC6A  A2 FF E8	 LDX #			A:96 X:69 Y:69 P:E5 SP:FB - 
CC6C  E8 D0 3D	 INX impl			A:96 X:FF Y:69 P:E5 SP:FB - 
CC6D  D0 3D 30	 BNE rel			A:96 X:00 Y:69 P:67 SP:FB - 
CC6F  30 3B 90	 BMI rel			A:96 X:00 Y:69 P:67 SP:FB - 
CC71  90 39 50	 BCC rel			A:96 X:00 Y:69 P:67 SP:FB - 
CC73  50 37 E0	 BVC rel			A:96 X:00 Y:69 P:67 SP:FB - 
CC75  E0 00 D0	 CPX #			A:96 X:00 Y:69 P:67 SP:FB - 
CC77  D0 33 E8	 BNE rel			A:96 X:00 Y:69 P:67 SP:FB - 
CC79  E8 F0 30	 INX impl			A:96 X:00 Y:69 P:67 SP:FB - 
CC7A  F0 30 30	 BEQ rel			A:96 X:01 Y:69 P:65 SP:FB - 
CC7C  30 2E 90	 BMI rel			A:96 X:01 Y:69 P:65 SP:FB - 
CC7E  90 2C 50	 BCC rel			A:96 X:01 Y:69 P:65 SP:FB - 
CC80  50 2A 18	 BVC rel			A:96 X:01 Y:69 P:65 SP:FB - 
CC82  18 B8 A2	 CLC impl			A:96 X:01 Y:69 P:65 SP:FB - 
CC83  B8 A2 00	 CLV impl			A:96 X:01 Y:69 P:64 SP:FB - 
CC84  A2 00 CA	 LDX #			A:96 X:01 Y:69 P:24 SP:FB - 
CC86  CA F0 23	 DEX impl			A:96 X:00 Y:69 P:26 SP:FB - 
CC87  F0 23 10	 BEQ rel			A:96 X:FF Y:69 P:A4 SP:FB - 
CC89  10 21 B0	 BPL rel			A:96 X:FF Y:69 P:A4 SP:FB - 
CC8B  B0 1F 70	 BCS rel			A:96 X:FF Y:69 P:A4 SP:FB - 
CC8D  70 1D E0	 BVS rel			A:96 X:FF Y:69 P:A4 SP:FB - 
CC8F  E0 FF D0	 CPX #			A:96 X:FF Y:69 P:A4 SP:FB - 
CC91  D0 19 18	 BNE rel			A:96 X:FF Y:69 P:27 SP:FB - 
CC93  18 CA F0	 CLC impl			A:96 X:FF Y:69 P:27 SP:FB - 
CC94  CA F0 15	 DEX impl			A:96 X:FF Y:69 P:26 SP:FB - 
CC95  F0 15 10	 BEQ rel			A:96 X:FE Y:69 P:A4 SP:FB - 
CC97  10 13 B0	 BPL rel			A:96 X:FE Y:69 P:A4 SP:FB - 
CC99  B0 11 70	 BCS rel			A:96 X:FE Y:69 P:A4 SP:FB - 
CC9B  70 0F E0	 BVS rel			A:96 X:FE Y:69 P:A4 SP:FB - 
CC9D  E0 FE D0	 CPX #			A:96 X:FE Y:69 P:A4 SP:FB - 
CC9F  D0 0B C9	 BNE rel			A:96 X:FE Y:69 P:27 SP:FB - 
CCA1  C9 96 D0	 CMP #			A:96 X:FE Y:69 P:27 SP:FB - 
CCA3  D0 07 C0	 BNE rel			A:96 X:FE Y:69 P:27 SP:FB - 
CCA5  C0 69 D0	 CPY #			A:96 X:FE Y:69 P:27 SP:FB - 
CCA7  D0 03 4C	 BNE rel			A:96 X:FE Y:69 P:27 SP:FB - 
CCA9  4C B0 CC	 JMP abs			A:96 X:FE Y:69 P:27 SP:FB - 
CCB0  EA A9 85	 NOP impl			A:96 X:FE Y:69 P:27 SP:FB - 
CCB1  A9 85 A2	 LDA #			A:96 X:FE Y:69 P:27 SP:FB - 
CCB3  A2 34 A0	 LDX #			A:85 X:FE Y:69 P:A5 SP:FB - 
CCB5  A0 99 18	 LDY #			A:85 X:34 Y:69 P:25 SP:FB - 
CCB7  18 24 01	 CLC impl			A:85 X:34 Y:99 P:A5 SP:FB - 
CCB8  24 01 A8	 BIT zpg			A:85 X:34 Y:99 P:A4 SP:FB - 
CCBA  A8 F0 2E	 TAY impl			A:85 X:34 Y:99 P:E4 SP:FB - 
CCBB  F0 2E B0	 BEQ rel			A:85 X:34 Y:85 P:E4 SP:FB - 
CCBD  B0 2C 50	 BCS rel			A:85 X:34 Y:85 P:E4 SP:FB - 
CCBF  50 2A 10	 BVC rel			A:85 X:34 Y:85 P:E4 SP:FB - 
CCC1  10 28 C9	 BPL rel			A:85 X:34 Y:85 P:E4 SP:FB - 
CCC3  C9 85 D0	 CMP #			A:85 X:34 Y:85 P:E4 SP:FB - 
CCC5  D0 24 E0	 BNE rel			A:85 X:34 Y:85 P:67 SP:FB - 
CCC7  E0 34 D0	 CPX #			A:85 X:34 Y:85 P:67 SP:FB - 
CCC9  D0 20 C0	 BNE rel			A:85 X:34 Y:85 P:67 SP:FB - 
CCCB  C0 85 D0	 CPY #			A:85 X:34 Y:85 P:67 SP:FB - 
CCCD  D0 1C A9	 BNE rel			A:85 X:34 Y:85 P:67 SP:FB - 
CCCF  A9 00 38	 LDA #			A:85 X:34 Y:85 P:67 SP:FB - 
CCD1  38 B8 A8	 SEC impl			A:00 X:34 Y:85 P:67 SP:FB - 
CCD2  B8 A8 D0	 CLV impl			A:00 X:34 Y:85 P:67 SP:FB - 
CCD3  A8 D0 15	 TAY impl			A:00 X:34 Y:85 P:27 SP:FB - 
CCD4  D0 15 90	 BNE rel			A:00 X:34 Y:00 P:27 SP:FB - 
CCD6  90 13 70	 BCC rel			A:00 X:34 Y:00 P:27 SP:FB - 
CCD8  70 11 30	 BVS rel			A:00 X:34 Y:00 P:27 SP:FB - 
CCDA  30 0F C9	 BMI rel			A:00 X:34 Y:00 P:27 SP:FB - 
CCDC  C9 00 D0	 CMP #			A:00 X:34 Y:00 P:27 SP:FB - 
CCDE  D0 0B E0	 BNE rel			A:00 X:34 Y:00 P:27 SP:FB - 
CCE0  E0 34 D0	 CPX #			A:00 X:34 Y:00 P:27 SP:FB - 
CCE2  D0 07 C0	 BNE rel			A:00 X:34 Y:00 P:27 SP:FB - 
CCE4  C0 00 D0	 CPY #			A:00 X:34 Y:00 P:27 SP:FB - 
CCE6  D0 03 4C	 BNE rel			A:00 X:34 Y:00 P:27 SP:FB - 
CCE8  4C EF CC	 JMP abs			A:00 X:34 Y:00 P:27 SP:FB - 
CCEF  EA A9 85	 NOP impl			A:00 X:34 Y:00 P:27 SP:FB - 
CCF0  A9 85 A2	 LDA #			A:00 X:34 Y:00 P:27 SP:FB - 
CCF2  A2 34 A0	 LDX #			A:85 X:34 Y:00 P:A5 SP:FB - 
CCF4  A0 99 18	 LDY #			A:85 X:34 Y:00 P:25 SP:FB - 
CCF6  18 24 01	 CLC impl			A:85 X:34 Y:99 P:A5 SP:FB - 
CCF7  24 01 AA	 BIT zpg			A:85 X:34 Y:99 P:A4 SP:FB - 
CCF9  AA F0 2E	 TAX impl			A:85 X:34 Y:99 P:E4 SP:FB - 
CCFA  F0 2E B0	 BEQ rel			A:85 X:85 Y:99 P:E4 SP:FB - 
CCFC  B0 2C 50	 BCS rel			A:85 X:85 Y:99 P:E4 SP:FB - 
CCFE  50 2A 10	 BVC rel			A:85 X:85 Y:99 P:E4 SP:FB - 
CD00  10 28 C9	 BPL rel			A:85 X:85 Y:99 P:E4 SP:FB - 
CD02  C9 85 D0	 CMP #			A:85 X:85 Y:99 P:E4 SP:FB - 
CD04  D0 24 E0	 BNE rel			A:85 X:85 Y:99 P:67 SP:FB - 
CD06  E0 85 D0	 CPX #			A:85 X:85 Y:99 P:67 SP:FB - 
CD08  D0 20 C0	 BNE rel			A:85 X:85 Y:99 P:67 SP:FB - 
CD0A  C0 99 D0	 CPY #			A:85 X:85 Y:99 P:67 SP:FB - 
CD0C  D0 1C A9	 BNE rel			A:85 X:85 Y:99 P:67 SP:FB - 
CD0E  A9 00 38	 LDA #			A:85 X:85 Y:99 P:67 SP:FB - 
CD10  38 B8 AA	 SEC impl			A:00 X:85 Y:99 P:67 SP:FB - 
CD11  B8 AA D0	 CLV impl			A:00 X:85 Y:99 P:67 SP:FB - 
CD12  AA D0 15	 TAX impl			A:00 X:85 Y:99 P:27 SP:FB - 
CD13  D0 15 90	 BNE rel			A:00 X:00 Y:99 P:27 SP:FB - 
CD15  90 13 70	 BCC rel			A:00 X:00 Y:99 P:27 SP:FB - 
CD17  70 11 30	 BVS rel			A:00 X:00 Y:99 P:27 SP:FB - 
CD19  30 0F C9	 BMI rel			A:00 X:00 Y:99 P:27 SP:FB - 
CD1B  C9 00 D0	 CMP #			A:00 X:00 Y:99 P:27 SP:FB - 
CD1D  D0 0B E0	 BNE rel			A:00 X:00 Y:99 P:27 SP:FB - 
CD1F  E0 00 D0	 CPX #			A:00 X:00 Y:99 P:27 SP:FB - 
CD21  D0 07 C0	 BNE rel			A:00 X:00 Y:99 P:27 SP:FB - 
CD23  C0 99 D0	 CPY #			A:00 X:00 Y:99 P:27 SP:FB - 
CD25  D0 03 4C	 BNE rel			A:00 X:00 Y:99 P:27 SP:FB - 
CD27  4C 2E CD	 JMP abs			A:00 X:00 Y:99 P:27 SP:FB - 
CD2E  EA A9 85	 NOP impl			A:00 X:00 Y:99 P:27 SP:FB - 
CD2F  A9 85 A2	 LDA #			A:00 X:00 Y:99 P:27 SP:FB - 
CD31  A2 34 A0	 LDX #			A:85 X:00 Y:99 P:A5 SP:FB - 
CD33  A0 99 18	 LDY #			A:85 X:34 Y:99 P:25 SP:FB - 
CD35  18 24 01	 CLC impl			A:85 X:34 Y:99 P:A5 SP:FB - 
CD36  24 01 98	 BIT zpg			A:85 X:34 Y:99 P:A4 SP:FB - 
CD38  98 F0 2E	 TYA impl			A:85 X:34 Y:99 P:E4 SP:FB - 
CD39  F0 2E B0	 BEQ rel			A:99 X:34 Y:99 P:E4 SP:FB - 
CD3B  B0 2C 50	 BCS rel			A:99 X:34 Y:99 P:E4 SP:FB - 
CD3D  50 2A 10	 BVC rel			A:99 X:34 Y:99 P:E4 SP:FB - 
CD3F  10 28 C9	 BPL rel			A:99 X:34 Y:99 P:E4 SP:FB - 
CD41  C9 99 D0	 CMP #			A:99 X:34 Y:99 P:E4 SP:FB - 
CD43  D0 24 E0	 BNE rel			A:99 X:34 Y:99 P:67 SP:FB - 
CD45  E0 34 D0	 CPX #			A:99 X:34 Y:99 P:67 SP:FB - 
CD47  D0 20 C0	 BNE rel			A:99 X:34 Y:99 P:67 SP:FB - 
CD49  C0 99 D0	 CPY #			A:99 X:34 Y:99 P:67 SP:FB - 
CD4B  D0 1C A0	 BNE rel			A:99 X:34 Y:99 P:67 SP:FB - 
CD4D  A0 00 38	 LDY #			A:99 X:34 Y:99 P:67 SP:FB - 
CD4F  38 B8 98	 SEC impl			A:99 X:34 Y:00 P:67 SP:FB - 
CD50  B8 98 D0	 CLV impl			A:99 X:34 Y:00 P:67 SP:FB - 
CD51  98 D0 15	 TYA impl			A:99 X:34 Y:00 P:27 SP:FB - 
CD52  D0 15 90	 BNE rel			A:00 X:34 Y:00 P:27 SP:FB - 
CD54  90 13 70	 BCC rel			A:00 X:34 Y:00 P:27 SP:FB - 
CD56  70 11 30	 BVS rel			A:00 X:34 Y:00 P:27 SP:FB - 
CD58  30 0F C9	 BMI rel			A:00 X:34 Y:00 P:27 SP:FB - 
CD5A  C9 00 D0	 CMP #			A:00 X:34 Y:00 P:27 SP:FB - 
CD5C  D0 0B E0	 BNE rel			A:00 X:34 Y:00 P:27 SP:FB - 
CD5E  E0 34 D0	 CPX #			A:00 X:34 Y:00 P:27 SP:FB - 
CD60  D0 07 C0	 BNE rel			A:00 X:34 Y:00 P:27 SP:FB - 
CD62  C0 00 D0	 CPY #			A:00 X:34 Y:00 P:27 SP:FB - 
CD64  D0 03 4C	 BNE rel			A:00 X:34 Y:00 P:27 SP:FB - 
CD66  4C 6D CD	 JMP abs			A:00 X:34 Y:00 P:27 SP:FB - 
CD6D  EA A9 85	 NOP impl			A:00 X:34 Y:00 P:27 SP:FB - 
CD6E  A9 85 A2	 LDA #			A:00 X:34 Y:00 P:27 SP:FB - 
CD70  A2 34 A0	 LDX #			A:85 X:34 Y:00 P:A5 SP:FB - 
CD72  A0 99 18	 LDY #			A:85 X:34 Y:00 P:25 SP:FB - 
CD74  18 24 01	 CLC impl			A:85 X:34 Y:99 P:A5 SP:FB - 
CD75  24 01 8A	 BIT zpg			A:85 X:34 Y:99 P:A4 SP:FB - 
CD77  8A F0 2E	 TXA impl			A:85 X:34 Y:99 P:E4 SP:FB - 
CD78  F0 2E B0	 BEQ rel			A:34 X:34 Y:99 P:64 SP:FB - 
CD7A  B0 2C 50	 BCS rel			A:34 X:34 Y:99 P:64 SP:FB - 
CD7C  50 2A 30	 BVC rel			A:34 X:34 Y:99 P:64 SP:FB - 
CD7E  30 28 C9	 BMI rel			A:34 X:34 Y:99 P:64 SP:FB - 
CD80  C9 34 D0	 CMP #			A:34 X:34 Y:99 P:64 SP:FB - 
CD82  D0 24 E0	 BNE rel			A:34 X:34 Y:99 P:67 SP:FB - 
CD84  E0 34 D0	 CPX #			A:34 X:34 Y:99 P:67 SP:FB - 
CD86  D0 20 C0	 BNE rel			A:34 X:34 Y:99 P:67 SP:FB - 
CD88  C0 99 D0	 CPY #			A:34 X:34 Y:99 P:67 SP:FB - 
CD8A  D0 1C A2	 BNE rel			A:34 X:34 Y:99 P:67 SP:FB - 
CD8C  A2 00 38	 LDX #			A:34 X:34 Y:99 P:67 SP:FB - 
CD8E  38 B8 8A	 SEC impl			A:34 X:00 Y:99 P:67 SP:FB - 
CD8F  B8 8A D0	 CLV impl			A:34 X:00 Y:99 P:67 SP:FB - 
CD90  8A D0 15	 TXA impl			A:34 X:00 Y:99 P:27 SP:FB - 
CD91  D0 15 90	 BNE rel			A:00 X:00 Y:99 P:27 SP:FB - 
CD93  90 13 70	 BCC rel			A:00 X:00 Y:99 P:27 SP:FB - 
CD95  70 11 30	 BVS rel			A:00 X:00 Y:99 P:27 SP:FB - 
CD97  30 0F C9	 BMI rel			A:00 X:00 Y:99 P:27 SP:FB - 
CD99  C9 00 D0	 CMP #			A:00 X:00 Y:99 P:27 SP:FB - 
CD9B  D0 0B E0	 BNE rel			A:00 X:00 Y:99 P:27 SP:FB - 
CD9D  E0 00 D0	 CPX #			A:00 X:00 Y:99 P:27 SP:FB - 
CD9F  D0 07 C0	 BNE rel			A:00 X:00 Y:99 P:27 SP:FB - 
CDA1  C0 99 D0	 CPY #			A:00 X:00 Y:99 P:27 SP:FB - 
CDA3  D0 03 4C	 BNE rel			A:00 X:00 Y:99 P:27 SP:FB - 
CDA5  4C AC CD	 JMP abs			A:00 X:00 Y:99 P:27 SP:FB - 
CDAC  EA BA 8E	 NOP impl			A:00 X:00 Y:99 P:27 SP:FB - 
CDAD  BA 8E FF	 TSX impl			A:00 X:00 Y:99 P:27 SP:FB - 
CDAE  8E FF 07	 STX abs			A:00 X:FB Y:99 P:A5 SP:FB - 
CDB1  A0 33 A2	 LDY #			A:00 X:FB Y:99 P:A5 SP:FB - 
CDB3  A2 69 A9	 LDX #			A:00 X:FB Y:33 P:25 SP:FB - 
CDB5  A9 84 18	 LDA #			A:00 X:69 Y:33 P:25 SP:FB - 
CDB7  18 24 01	 CLC impl			A:84 X:69 Y:33 P:A5 SP:FB - 
CDB8  24 01 9A	 BIT zpg			A:84 X:69 Y:33 P:A4 SP:FB - 
CDBA  9A F0 32	 TXS impl			A:84 X:69 Y:33 P:E4 SP:FB - 
CDBB  F0 32 10	 BEQ rel			A:84 X:69 Y:33 P:E4 SP:69 - 
CDBD  10 30 B0	 BPL rel			A:84 X:69 Y:33 P:E4 SP:69 - 
CDBF  B0 2E 50	 BCS rel			A:84 X:69 Y:33 P:E4 SP:69 - 
CDC1  50 2C C9	 BVC rel			A:84 X:69 Y:33 P:E4 SP:69 - 
CDC3  C9 84 D0	 CMP #			A:84 X:69 Y:33 P:E4 SP:69 - 
CDC5  D0 28 E0	 BNE rel			A:84 X:69 Y:33 P:67 SP:69 - 
CDC7  E0 69 D0	 CPX #			A:84 X:69 Y:33 P:67 SP:69 - 
CDC9  D0 24 C0	 BNE rel			A:84 X:69 Y:33 P:67 SP:69 - 
CDCB  C0 33 D0	 CPY #			A:84 X:69 Y:33 P:67 SP:69 - 
CDCD  D0 20 A0	 BNE rel			A:84 X:69 Y:33 P:67 SP:69 - 
CDCF  A0 01 A9	 LDY #			A:84 X:69 Y:33 P:67 SP:69 - 
CDD1  A9 04 38	 LDA #			A:84 X:69 Y:01 P:65 SP:69 - 
CDD3  38 B8 A2	 SEC impl			A:04 X:69 Y:01 P:65 SP:69 - 
CDD4  B8 A2 00	 CLV impl			A:04 X:69 Y:01 P:65 SP:69 - 
CDD5  A2 00 BA	 LDX #			A:04 X:69 Y:01 P:25 SP:69 - 
CDD7  BA F0 15	 TSX impl			A:04 X:00 Y:01 P:27 SP:69 - 
CDD8  F0 15 30	 BEQ rel			A:04 X:69 Y:01 P:25 SP:69 - 
CDDA  30 13 90	 BMI rel			A:04 X:69 Y:01 P:25 SP:69 - 
CDDC  90 11 70	 BCC rel			A:04 X:69 Y:01 P:25 SP:69 - 
CDDE  70 0F E0	 BVS rel			A:04 X:69 Y:01 P:25 SP:69 - 
CDE0  E0 69 D0	 CPX #			A:04 X:69 Y:01 P:25 SP:69 - 
CDE2  D0 0B C9	 BNE rel			A:04 X:69 Y:01 P:27 SP:69 - 
CDE4  C9 04 D0	 CMP #			A:04 X:69 Y:01 P:27 SP:69 - 
CDE6  D0 07 C0	 BNE rel			A:04 X:69 Y:01 P:27 SP:69 - 
CDE8  C0 01 D0	 CPY #			A:04 X:69 Y:01 P:27 SP:69 - 
CDEA  D0 03 4C	 BNE rel			A:04 X:69 Y:01 P:27 SP:69 - 
CDEC  4C F3 CD	 JMP abs			A:04 X:69 Y:01 P:27 SP:69 - 
CDF3  AE FF 07	 LDX abs			A:04 X:69 Y:01 P:27 SP:69 - 
CDF6  9A 60 A9	 TXS impl			A:04 X:FB Y:01 P:A5 SP:69 - 
CDF7  60 A9 FF	 RTS impl			A:04 X:FB Y:01 P:A5 SP:FB - 
C609  20 F8 CD	 JSR abs			A:04 X:FB Y:01 P:A5 SP:FD - 
CDF8  A9 FF 85	 LDA #			A:04 X:FB Y:01 P:A5 SP:FB - 
CDFA  85 01 BA	 STA zpg			A:FF X:FB Y:01 P:A5 SP:FB - 
CDFC  BA 8E FF	 TSX impl			A:FF X:FB Y:01 P:A5 SP:FB - 
CDFD  8E FF 07	 STX abs			A:FF X:FB Y:01 P:A5 SP:FB - 
CE00  EA A2 80	 NOP impl			A:FF X:FB Y:01 P:A5 SP:FB - 
CE01  A2 80 9A	 LDX #			A:FF X:FB Y:01 P:A5 SP:FB - 
CE03  9A A9 33	 TXS impl			A:FF X:80 Y:01 P:A5 SP:FB - 
CE04  A9 33 48	 LDA #			A:FF X:80 Y:01 P:A5 SP:80 - 
CE06  48 A9 69	 PHA impl			A:33 X:80 Y:01 P:25 SP:80 - 
CE07  A9 69 48	 LDA #			A:33 X:80 Y:01 P:25 SP:7F - 
CE09  48 BA E0	 PHA impl			A:69 X:80 Y:01 P:25 SP:7F - 
CE0A  BA E0 7E	 TSX impl			A:69 X:80 Y:01 P:25 SP:7E - 
CE0B  E0 7E D0	 CPX #			A:69 X:7E Y:01 P:25 SP:7E - 
CE0D  D0 20 68	 BNE rel			A:69 X:7E Y:01 P:27 SP:7E - 
CE0F  68 C9 69	 PLA impl			A:69 X:7E Y:01 P:27 SP:7E - 
CE10  C9 69 D0	 CMP #			A:69 X:7E Y:01 P:25 SP:7F - 
CE12  D0 1B 68	 BNE rel			A:69 X:7E Y:01 P:27 SP:7F - 
CE14  68 C9 33	 PLA impl			A:69 X:7E Y:01 P:27 SP:7F - 
CE15  C9 33 D0	 CMP #			A:33 X:7E Y:01 P:25 SP:80 - 
CE17  D0 16 BA	 BNE rel			A:33 X:7E Y:01 P:27 SP:80 - 
CE19  BA E0 80	 TSX impl			A:33 X:7E Y:01 P:27 SP:80 - 
CE1A  E0 80 D0	 CPX #			A:33 X:80 Y:01 P:A5 SP:80 - 
CE1C  D0 11 AD	 BNE rel			A:33 X:80 Y:01 P:27 SP:80 - 
CE1E  AD 80 01	 LDA abs			A:33 X:80 Y:01 P:27 SP:80 - 
CE21  C9 33 D0	 CMP #			A:33 X:80 Y:01 P:25 SP:80 - 
CE23  D0 0A AD	 BNE rel			A:33 X:80 Y:01 P:27 SP:80 - 
CE25  AD 7F 01	 LDA abs			A:33 X:80 Y:01 P:27 SP:80 - 
CE28  C9 69 D0	 CMP #			A:69 X:80 Y:01 P:25 SP:80 - 
CE2A  D0 03 4C	 BNE rel			A:69 X:80 Y:01 P:27 SP:80 - 
CE2C  4C 33 CE	 JMP abs			A:69 X:80 Y:01 P:27 SP:80 - 
CE33  EA A2 80	 NOP impl			A:69 X:80 Y:01 P:27 SP:80 - 
CE34  A2 80 9A	 LDX #			A:69 X:80 Y:01 P:27 SP:80 - 
CE36  9A 20 3D	 TXS impl			A:69 X:80 Y:01 P:A5 SP:80 - 
CE37  20 3D CE	 JSR abs			A:69 X:80 Y:01 P:A5 SP:80 - 
CE3D  BA E0 7E	 TSX impl			A:69 X:80 Y:01 P:A5 SP:7E - 
CE3E  E0 7E D0	 CPX #			A:69 X:7E Y:01 P:25 SP:7E - 
CE40  D0 19 68	 BNE rel			A:69 X:7E Y:01 P:27 SP:7E - 
CE42  68 68 BA	 PLA impl			A:69 X:7E Y:01 P:27 SP:7E - 
CE43  68 BA E0	 PLA impl			A:39 X:7E Y:01 P:25 SP:7F - 
CE44  BA E0 80	 TSX impl			A:CE X:7E Y:01 P:A5 SP:80 - 
CE45  E0 80 D0	 CPX #			A:CE X:80 Y:01 P:A5 SP:80 - 
CE47  D0 12 A9	 BNE rel			A:CE X:80 Y:01 P:27 SP:80 - 
CE49  A9 00 20	 LDA #			A:CE X:80 Y:01 P:27 SP:80 - 
CE4B  20 4E CE	 JSR abs			A:00 X:80 Y:01 P:27 SP:80 - 
CE4E  68 C9 4D	 PLA impl			A:00 X:80 Y:01 P:27 SP:7E - 
CE4F  C9 4D D0	 CMP #			A:4D X:80 Y:01 P:25 SP:7F - 
CE51  D0 08 68	 BNE rel			A:4D X:80 Y:01 P:27 SP:7F - 
CE53  68 C9 CE	 PLA impl			A:4D X:80 Y:01 P:27 SP:7F - 
CE54  C9 CE D0	 CMP #			A:CE X:80 Y:01 P:A5 SP:80 - 
CE56  D0 03 4C	 BNE rel			A:CE X:80 Y:01 P:27 SP:80 - 
CE58  4C 5F CE	 JMP abs			A:CE X:80 Y:01 P:27 SP:80 - 
CE5F  EA A9 CE	 NOP impl			A:CE X:80 Y:01 P:27 SP:80 - 
CE60  A9 CE 48	 LDA #			A:CE X:80 Y:01 P:27 SP:80 - 
CE62  48 A9 66	 PHA impl			A:CE X:80 Y:01 P:A5 SP:80 - 
CE63  A9 66 48	 LDA #			A:CE X:80 Y:01 P:A5 SP:7F - 
CE65  48 60 A2	 PHA impl			A:66 X:80 Y:01 P:25 SP:7F - 
CE66  60 A2 77	 RTS impl			A:66 X:80 Y:01 P:25 SP:7E - 
CE67  A2 77 A0	 LDX #			A:66 X:80 Y:01 P:25 SP:80 - 
CE69  A0 69 18	 LDY #			A:66 X:77 Y:01 P:25 SP:80 - 
CE6B  18 24 01	 CLC impl			A:66 X:77 Y:69 P:25 SP:80 - 
CE6C  24 01 A9	 BIT zpg			A:66 X:77 Y:69 P:24 SP:80 - 
CE6E  A9 83 20	 LDA #			A:66 X:77 Y:69 P:E4 SP:80 - 
CE70  20 66 CE	 JSR abs			A:83 X:77 Y:69 P:E4 SP:80 - 
CE66  60 A2 77	 RTS impl			A:83 X:77 Y:69 P:E4 SP:7E - 
CE73  F0 24 10	 BEQ rel			A:83 X:77 Y:69 P:E4 SP:80 - 
CE75  10 22 B0	 BPL rel			A:83 X:77 Y:69 P:E4 SP:80 - 
CE77  B0 20 50	 BCS rel			A:83 X:77 Y:69 P:E4 SP:80 - 
CE79  50 1E C9	 BVC rel			A:83 X:77 Y:69 P:E4 SP:80 - 
CE7B  C9 83 D0	 CMP #			A:83 X:77 Y:69 P:E4 SP:80 - 
CE7D  D0 1A C0	 BNE rel			A:83 X:77 Y:69 P:67 SP:80 - 
CE7F  C0 69 D0	 CPY #			A:83 X:77 Y:69 P:67 SP:80 - 
CE81  D0 16 E0	 BNE rel			A:83 X:77 Y:69 P:67 SP:80 - 
CE83  E0 77 D0	 CPX #			A:83 X:77 Y:69 P:67 SP:80 - 
CE85  D0 12 38	 BNE rel			A:83 X:77 Y:69 P:67 SP:80 - 
CE87  38 B8 A9	 SEC impl			A:83 X:77 Y:69 P:67 SP:80 - 
CE88  B8 A9 00	 CLV impl			A:83 X:77 Y:69 P:67 SP:80 - 
CE89  A9 00 20	 LDA #			A:83 X:77 Y:69 P:27 SP:80 - 
CE8B  20 66 CE	 JSR abs			A:00 X:77 Y:69 P:27 SP:80 - 
CE66  60 A2 77	 RTS impl			A:00 X:77 Y:69 P:27 SP:7E - 
CE8E  D0 09 30	 BNE rel			A:00 X:77 Y:69 P:27 SP:80 - 
CE90  30 07 90	 BMI rel			A:00 X:77 Y:69 P:27 SP:80 - 
CE92  90 05 70	 BCC rel			A:00 X:77 Y:69 P:27 SP:80 - 
CE94  70 03 4C	 BVS rel			A:00 X:77 Y:69 P:27 SP:80 - 
CE96  4C 9D CE	 JMP abs			A:00 X:77 Y:69 P:27 SP:80 - 
CE9D  EA A9 CE	 NOP impl			A:00 X:77 Y:69 P:27 SP:80 - 
CE9E  A9 CE 48	 LDA #			A:00 X:77 Y:69 P:27 SP:80 - 
CEA0  48 A9 AE	 PHA impl			A:CE X:77 Y:69 P:A5 SP:80 - 
CEA1  A9 AE 48	 LDA #			A:CE X:77 Y:69 P:A5 SP:7F - 
CEA3  48 A9 65	 PHA impl			A:AE X:77 Y:69 P:A5 SP:7F - 
CEA4  A9 65 48	 LDA #			A:AE X:77 Y:69 P:A5 SP:7E - 
CEA6  48 A9 55	 PHA impl			A:65 X:77 Y:69 P:25 SP:7E - 
CEA7  A9 55 A0	 LDA #			A:65 X:77 Y:69 P:25 SP:7D - 
CEA9  A0 88 A2	 LDY #			A:55 X:77 Y:69 P:25 SP:7D - 
CEAB  A2 99 40	 LDX #			A:55 X:77 Y:88 P:A5 SP:7D - 
CEAD  40 30 35	 RTI impl			A:55 X:99 Y:88 P:A5 SP:7D - 
CEAE  30 35 50	 BMI rel			A:55 X:99 Y:88 P:65 SP:80 - 
CEB0  50 33 F0	 BVC rel			A:55 X:99 Y:88 P:65 SP:80 - 
CEB2  F0 31 90	 BEQ rel			A:55 X:99 Y:88 P:65 SP:80 - 
CEB4  90 2F C9	 BCC rel			A:55 X:99 Y:88 P:65 SP:80 - 
CEB6  C9 55 D0	 CMP #			A:55 X:99 Y:88 P:65 SP:80 - 
CEB8  D0 2B C0	 BNE rel			A:55 X:99 Y:88 P:67 SP:80 - 
CEBA  C0 88 D0	 CPY #			A:55 X:99 Y:88 P:67 SP:80 - 
CEBC  D0 27 E0	 BNE rel			A:55 X:99 Y:88 P:67 SP:80 - 
CEBE  E0 99 D0	 CPX #			A:55 X:99 Y:88 P:67 SP:80 - 
CEC0  D0 23 A9	 BNE rel			A:55 X:99 Y:88 P:67 SP:80 - 
CEC2  A9 CE 48	 LDA #			A:55 X:99 Y:88 P:67 SP:80 - 
CEC4  48 A9 CE	 PHA impl			A:CE X:99 Y:88 P:E5 SP:80 - 
CEC5  A9 CE 48	 LDA #			A:CE X:99 Y:88 P:E5 SP:7F - 
CEC7  48 A9 87	 PHA impl			A:CE X:99 Y:88 P:E5 SP:7F - 
CEC8  A9 87 48	 LDA #			A:CE X:99 Y:88 P:E5 SP:7E - 
CECA  48 A9 55	 PHA impl			A:87 X:99 Y:88 P:E5 SP:7E - 
CECB  A9 55 40	 LDA #			A:87 X:99 Y:88 P:E5 SP:7D - 
CECD  40 10 15	 RTI impl			A:55 X:99 Y:88 P:65 SP:7D - 
CECE  10 15 70	 BPL rel			A:55 X:99 Y:88 P:A7 SP:80 - 
CED0  70 13 D0	 BVS rel			A:55 X:99 Y:88 P:A7 SP:80 - 
CED2  D0 11 90	 BNE rel			A:55 X:99 Y:88 P:A7 SP:80 - 
CED4  90 0F C9	 BCC rel			A:55 X:99 Y:88 P:A7 SP:80 - 
CED6  C9 55 D0	 CMP #			A:55 X:99 Y:88 P:A7 SP:80 - 
CED8  D0 0B C0	 BNE rel			A:55 X:99 Y:88 P:27 SP:80 - 
CEDA  C0 88 D0	 CPY #			A:55 X:99 Y:88 P:27 SP:80 - 
CEDC  D0 07 E0	 BNE rel			A:55 X:99 Y:88 P:27 SP:80 - 
CEDE  E0 99 D0	 CPX #			A:55 X:99 Y:88 P:27 SP:80 - 
CEE0  D0 03 4C	 BNE rel			A:55 X:99 Y:88 P:27 SP:80 - 
CEE2  4C E9 CE	 JMP abs			A:55 X:99 Y:88 P:27 SP:80 - 
CEE9  AE FF 07	 LDX abs			A:55 X:99 Y:88 P:27 SP:80 - 
CEEC  9A 60 A2	 TXS impl			A:55 X:FB Y:88 P:A5 SP:80 - 
CEED  60 A2 55	 RTS impl			A:55 X:FB Y:88 P:A5 SP:FB - 
C60C  20 EE CE	 JSR abs			A:55 X:FB Y:88 P:A5 SP:FD - 
CEEE  A2 55 A0	 LDX #			A:55 X:FB Y:88 P:A5 SP:FB - 
CEF0  A0 69 A9	 LDY #			A:55 X:55 Y:88 P:25 SP:FB - 
CEF2  A9 FF 85	 LDA #			A:55 X:55 Y:69 P:25 SP:FB - 
CEF4  85 01 EA	 STA zpg			A:FF X:55 Y:69 P:A5 SP:FB - 
CEF6  EA 24 01	 NOP impl			A:FF X:55 Y:69 P:A5 SP:FB - 
CEF7  24 01 38	 BIT zpg			A:FF X:55 Y:69 P:A5 SP:FB - 
CEF9  38 A9 01	 SEC impl			A:FF X:55 Y:69 P:E5 SP:FB - 
CEFA  A9 01 4A	 LDA #			A:FF X:55 Y:69 P:E5 SP:FB - 
CEFC  4A 90 1D	 LSR A			A:01 X:55 Y:69 P:65 SP:FB - 
CEFD  90 1D D0	 BCC rel			A:00 X:55 Y:69 P:67 SP:FB - 
CEFF  D0 1B 30	 BNE rel			A:00 X:55 Y:69 P:67 SP:FB - 
CF01  30 19 50	 BMI rel			A:00 X:55 Y:69 P:67 SP:FB - 
CF03  50 17 C9	 BVC rel			A:00 X:55 Y:69 P:67 SP:FB - 
CF05  C9 00 D0	 CMP #			A:00 X:55 Y:69 P:67 SP:FB - 
CF07  D0 13 B8	 BNE rel			A:00 X:55 Y:69 P:67 SP:FB - 
CF09  B8 A9 AA	 CLV impl			A:00 X:55 Y:69 P:67 SP:FB - 
CF0A  A9 AA 4A	 LDA #			A:00 X:55 Y:69 P:27 SP:FB - 
CF0C  4A B0 0D	 LSR A			A:AA X:55 Y:69 P:A5 SP:FB - 
CF0D  B0 0D F0	 BCS rel			A:55 X:55 Y:69 P:24 SP:FB - 
CF0F  F0 0B 30	 BEQ rel			A:55 X:55 Y:69 P:24 SP:FB - 
CF11  30 09 70	 BMI rel			A:55 X:55 Y:69 P:24 SP:FB - 
CF13  70 07 C9	 BVS rel			A:55 X:55 Y:69 P:24 SP:FB - 
CF15  C9 55 D0	 CMP #			A:55 X:55 Y:69 P:24 SP:FB - 
CF17  D0 03 4C	 BNE rel			A:55 X:55 Y:69 P:27 SP:FB - 
CF19  4C 20 CF	 JMP abs			A:55 X:55 Y:69 P:27 SP:FB - 
CF20  EA 24 01	 NOP impl			A:55 X:55 Y:69 P:27 SP:FB - 
CF21  24 01 38	 BIT zpg			A:55 X:55 Y:69 P:27 SP:FB - 
CF23  38 A9 80	 SEC impl			A:55 X:55 Y:69 P:E5 SP:FB - 
CF24  A9 80 0A	 LDA #			A:55 X:55 Y:69 P:E5 SP:FB - 
CF26  0A 90 1E	 ASL A			A:80 X:55 Y:69 P:E5 SP:FB - 
CF27  90 1E D0	 BCC rel			A:00 X:55 Y:69 P:67 SP:FB - 
CF29  D0 1C 30	 BNE rel			A:00 X:55 Y:69 P:67 SP:FB - 
CF2B  30 1A 50	 BMI rel			A:00 X:55 Y:69 P:67 SP:FB - 
CF2D  50 18 C9	 BVC rel			A:00 X:55 Y:69 P:67 SP:FB - 
CF2F  C9 00 D0	 CMP #			A:00 X:55 Y:69 P:67 SP:FB - 
CF31  D0 14 B8	 BNE rel			A:00 X:55 Y:69 P:67 SP:FB - 
CF33  B8 38 A9	 CLV impl			A:00 X:55 Y:69 P:67 SP:FB - 
CF34  38 A9 55	 SEC impl			A:00 X:55 Y:69 P:27 SP:FB - 
CF35  A9 55 0A	 LDA #			A:00 X:55 Y:69 P:27 SP:FB - 
CF37  0A B0 0D	 ASL A			A:55 X:55 Y:69 P:25 SP:FB - 
CF38  B0 0D F0	 BCS rel			A:AA X:55 Y:69 P:A4 SP:FB - 
CF3A  F0 0B 10	 BEQ rel			A:AA X:55 Y:69 P:A4 SP:FB - 
CF3C  10 09 70	 BPL rel			A:AA X:55 Y:69 P:A4 SP:FB - 
CF3E  70 07 C9	 BVS rel			A:AA X:55 Y:69 P:A4 SP:FB - 
CF40  C9 AA D0	 CMP #			A:AA X:55 Y:69 P:A4 SP:FB - 
CF42  D0 03 4C	 BNE rel			A:AA X:55 Y:69 P:27 SP:FB - 
CF44  4C 4B CF	 JMP abs			A:AA X:55 Y:69 P:27 SP:FB - 
CF4B  EA 24 01	 NOP impl			A:AA X:55 Y:69 P:27 SP:FB - 
CF4C  24 01 38	 BIT zpg			A:AA X:55 Y:69 P:27 SP:FB - 
CF4E  38 A9 01	 SEC impl			A:AA X:55 Y:69 P:E5 SP:FB - 
CF4F  A9 01 6A	 LDA #			A:AA X:55 Y:69 P:E5 SP:FB - 
CF51  6A 90 1E	 ROR A			A:01 X:55 Y:69 P:65 SP:FB - 
CF52  90 1E F0	 BCC rel			A:80 X:55 Y:69 P:E5 SP:FB - 
CF54  F0 1C 10	 BEQ rel			A:80 X:55 Y:69 P:E5 SP:FB - 
CF56  10 1A 50	 BPL rel			A:80 X:55 Y:69 P:E5 SP:FB - 
CF58  50 18 C9	 BVC rel			A:80 X:55 Y:69 P:E5 SP:FB - 
CF5A  C9 80 D0	 CMP #			A:80 X:55 Y:69 P:E5 SP:FB - 
CF5C  D0 14 B8	 BNE rel			A:80 X:55 Y:69 P:67 SP:FB - 
CF5E  B8 18 A9	 CLV impl			A:80 X:55 Y:69 P:67 SP:FB - 
CF5F  18 A9 55	 CLC impl			A:80 X:55 Y:69 P:27 SP:FB - 
CF60  A9 55 6A	 LDA #			A:80 X:55 Y:69 P:26 SP:FB - 
CF62  6A 90 0D	 ROR A			A:55 X:55 Y:69 P:24 SP:FB - 
CF63  90 0D F0	 BCC rel			A:2A X:55 Y:69 P:25 SP:FB - 
CF65  F0 0B 30	 BEQ rel			A:2A X:55 Y:69 P:25 SP:FB - 
CF67  30 09 70	 BMI rel			A:2A X:55 Y:69 P:25 SP:FB - 
CF69  70 07 C9	 BVS rel			A:2A X:55 Y:69 P:25 SP:FB - 
CF6B  C9 2A D0	 CMP #			A:2A X:55 Y:69 P:25 SP:FB - 
CF6D  D0 03 4C	 BNE rel			A:2A X:55 Y:69 P:27 SP:FB - 
CF6F  4C 76 CF	 JMP abs			A:2A X:55 Y:69 P:27 SP:FB - 
CF76  EA 24 01	 NOP impl			A:2A X:55 Y:69 P:27 SP:FB - 
CF77  24 01 38	 BIT zpg			A:2A X:55 Y:69 P:27 SP:FB - 
CF79  38 A9 80	 SEC impl			A:2A X:55 Y:69 P:E5 SP:FB - 
CF7A  A9 80 2A	 LDA #			A:2A X:55 Y:69 P:E5 SP:FB - 
CF7C  2A 90 1E	 ROL A			A:80 X:55 Y:69 P:E5 SP:FB - 
CF7D  90 1E F0	 BCC rel			A:01 X:55 Y:69 P:65 SP:FB - 
CF7F  F0 1C 30	 BEQ rel			A:01 X:55 Y:69 P:65 SP:FB - 
CF81  30 1A 50	 BMI rel			A:01 X:55 Y:69 P:65 SP:FB - 
CF83  50 18 C9	 BVC rel			A:01 X:55 Y:69 P:65 SP:FB - 
CF85  C9 01 D0	 CMP #			A:01 X:55 Y:69 P:65 SP:FB - 
CF87  D0 14 B8	 BNE rel			A:01 X:55 Y:69 P:67 SP:FB - 
CF89  B8 18 A9	 CLV impl			A:01 X:55 Y:69 P:67 SP:FB - 
CF8A  18 A9 55	 CLC impl			A:01 X:55 Y:69 P:27 SP:FB - 
CF8B  A9 55 2A	 LDA #			A:01 X:55 Y:69 P:26 SP:FB - 
CF8D  2A B0 0D	 ROL A			A:55 X:55 Y:69 P:24 SP:FB - 
CF8E  B0 0D F0	 BCS rel			A:AA X:55 Y:69 P:A4 SP:FB - 
CF90  F0 0B 10	 BEQ rel			A:AA X:55 Y:69 P:A4 SP:FB - 
CF92  10 09 70	 BPL rel			A:AA X:55 Y:69 P:A4 SP:FB - 
CF94  70 07 C9	 BVS rel			A:AA X:55 Y:69 P:A4 SP:FB - 
CF96  C9 AA D0	 CMP #			A:AA X:55 Y:69 P:A4 SP:FB - 
CF98  D0 03 4C	 BNE rel			A:AA X:55 Y:69 P:27 SP:FB - 
CF9A  4C A1 CF	 JMP abs			A:AA X:55 Y:69 P:27 SP:FB - 
CFA1  60 A5 00	 RTS impl			A:AA X:55 Y:69 P:27 SP:FB - 
C60F  20 A2 CF	 JSR abs			A:AA X:55 Y:69 P:27 SP:FD - 
CFA2  A5 00 8D	 LDA zpg			A:AA X:55 Y:69 P:27 SP:FB - 
CFA4  8D FF 07	 STA abs			A:00 X:55 Y:69 P:27 SP:FB - 
CFA7  A9 00 85	 LDA #			A:00 X:55 Y:69 P:27 SP:FB - 
CFA9  85 80 A9	 STA zpg			A:00 X:55 Y:69 P:27 SP:FB - 
CFAB  A9 02 85	 LDA #			A:00 X:55 Y:69 P:27 SP:FB - 
CFAD  85 81 A9	 STA zpg			A:02 X:55 Y:69 P:25 SP:FB - 
CFAF  A9 FF 85	 LDA #			A:02 X:55 Y:69 P:25 SP:FB - 
CFB1  85 01 A9	 STA zpg			A:FF X:55 Y:69 P:A5 SP:FB - 
CFB3  A9 00 85	 LDA #			A:FF X:55 Y:69 P:A5 SP:FB - 
CFB5  85 82 A9	 STA zpg			A:00 X:55 Y:69 P:27 SP:FB - 
CFB7  A9 03 85	 LDA #			A:00 X:55 Y:69 P:27 SP:FB - 
CFB9  85 83 85	 STA zpg			A:03 X:55 Y:69 P:25 SP:FB - 
CFBB  85 84 A9	 STA zpg			A:03 X:55 Y:69 P:25 SP:FB - 
CFBD  A9 00 85	 LDA #			A:03 X:55 Y:69 P:25 SP:FB - 
CFBF  85 FF A9	 STA zpg			A:00 X:55 Y:69 P:27 SP:FB - 
CFC1  A9 04 85	 LDA #			A:00 X:55 Y:69 P:27 SP:FB - 
CFC3  85 00 A9	 STA zpg			A:04 X:55 Y:69 P:25 SP:FB - 
CFC5  A9 5A 8D	 LDA #			A:04 X:55 Y:69 P:25 SP:FB - 
CFC7  8D 00 02	 STA abs			A:5A X:55 Y:69 P:25 SP:FB - 
CFCA  A9 5B 8D	 LDA #			A:5A X:55 Y:69 P:25 SP:FB - 
CFCC  8D 00 03	 STA abs			A:5B X:55 Y:69 P:25 SP:FB - 
CFCF  A9 5C 8D	 LDA #			A:5B X:55 Y:69 P:25 SP:FB - 
CFD1  8D 03 03	 STA abs			A:5C X:55 Y:69 P:25 SP:FB - 
CFD4  A9 5D 8D	 LDA #			A:5C X:55 Y:69 P:25 SP:FB - 
CFD6  8D 00 04	 STA abs			A:5D X:55 Y:69 P:25 SP:FB - 
CFD9  A2 00 A1	 LDX #			A:5D X:55 Y:69 P:25 SP:FB - 
CFDB  A1 80 C9	 LDA X,ind			A:5D X:00 Y:69 P:27 SP:FB - 
CFDD  C9 5A D0	 CMP #			A:5A X:00 Y:69 P:25 SP:FB - 
CFDF  D0 1F E8	 BNE rel			A:5A X:00 Y:69 P:27 SP:FB - 
CFE1  E8 E8 A1	 INX impl			A:5A X:00 Y:69 P:27 SP:FB - 
CFE2  E8 A1 80	 INX impl			A:5A X:01 Y:69 P:25 SP:FB - 
CFE3  A1 80 C9	 LDA X,ind			A:5A X:02 Y:69 P:25 SP:FB - 
CFE5  C9 5B D0	 CMP #			A:5B X:02 Y:69 P:25 SP:FB - 
CFE7  D0 17 E8	 BNE rel			A:5B X:02 Y:69 P:27 SP:FB - 
CFE9  E8 A1 80	 INX impl			A:5B X:02 Y:69 P:27 SP:FB - 
CFEA  A1 80 C9	 LDA X,ind			A:5B X:03 Y:69 P:25 SP:FB - 
CFEC  C9 5C D0	 CMP #			A:5C X:03 Y:69 P:25 SP:FB - 
CFEE  D0 10 A2	 BNE rel			A:5C X:03 Y:69 P:27 SP:FB - 
CFF0  A2 00 A1	 LDX #			A:5C X:03 Y:69 P:27 SP:FB - 
CFF2  A1 FF C9	 LDA X,ind			A:5C X:00 Y:69 P:27 SP:FB - 
CFF4  C9 5D D0	 CMP #			A:5D X:00 Y:69 P:25 SP:FB - 
CFF6  D0 08 A2	 BNE rel			A:5D X:00 Y:69 P:27 SP:FB - 
CFF8  A2 81 A1	 LDX #			A:5D X:00 Y:69 P:27 SP:FB - 
CFFA  A1 FF C9	 LDA X,ind			A:5D X:81 Y:69 P:A5 SP:FB - 
CFFC  C9 5A F0	 CMP #			A:5A X:81 Y:69 P:25 SP:FB - 
CFFE  F0 05 A9	 BEQ rel			A:5A X:81 Y:69 P:27 SP:FB - 
D005  A9 AA A2	 LDA #			A:5A X:81 Y:69 P:27 SP:FB - 
D007  A2 00 81	 LDX #			A:AA X:81 Y:69 P:A5 SP:FB - 
D009  81 80 E8	 STA X,ind			A:AA X:00 Y:69 P:27 SP:FB - 
D00B  E8 E8 A9	 INX impl			A:AA X:00 Y:69 P:27 SP:FB - 
D00C  E8 A9 AB	 INX impl			A:AA X:01 Y:69 P:25 SP:FB - 
D00D  A9 AB 81	 LDA #			A:AA X:02 Y:69 P:25 SP:FB - 
D00F  81 80 E8	 STA X,ind			A:AB X:02 Y:69 P:A5 SP:FB - 
D011  E8 A9 AC	 INX impl			A:AB X:02 Y:69 P:A5 SP:FB - 
D012  A9 AC 81	 LDA #			A:AB X:03 Y:69 P:25 SP:FB - 
D014  81 80 A2	 STA X,ind			A:AC X:03 Y:69 P:A5 SP:FB - 
D016  A2 00 A9	 LDX #			A:AC X:03 Y:69 P:A5 SP:FB - 
D018  A9 AD 81	 LDA #			A:AC X:00 Y:69 P:27 SP:FB - 
D01A  81 FF AD	 STA X,ind			A:AD X:00 Y:69 P:A5 SP:FB - 
D01C  AD 00 02	 LDA abs			A:AD X:00 Y:69 P:A5 SP:FB - 
D01F  C9 AA D0	 CMP #			A:AA X:00 Y:69 P:A5 SP:FB - 
D021  D0 15 AD	 BNE rel			A:AA X:00 Y:69 P:27 SP:FB - 
D023  AD 00 03	 LDA abs			A:AA X:00 Y:69 P:27 SP:FB - 
D026  C9 AB D0	 CMP #			A:AB X:00 Y:69 P:A5 SP:FB - 
D028  D0 0E AD	 BNE rel			A:AB X:00 Y:69 P:27 SP:FB - 
D02A  AD 03 03	 LDA abs			A:AB X:00 Y:69 P:27 SP:FB - 
D02D  C9 AC D0	 CMP #			A:AC X:00 Y:69 P:A5 SP:FB - 
D02F  D0 07 AD	 BNE rel			A:AC X:00 Y:69 P:27 SP:FB - 
D031  AD 00 04	 LDA abs			A:AC X:00 Y:69 P:27 SP:FB - 
D034  C9 AD F0	 CMP #			A:AD X:00 Y:69 P:A5 SP:FB - 
D036  F0 05 A9	 BEQ rel			A:AD X:00 Y:69 P:27 SP:FB - 
D03D  AD FF 07	 LDA abs			A:AD X:00 Y:69 P:27 SP:FB - 
D040  85 00 A9	 STA zpg			A:00 X:00 Y:69 P:27 SP:FB - 
D042  A9 00 8D	 LDA #			A:00 X:00 Y:69 P:27 SP:FB - 
D044  8D 00 03	 STA abs			A:00 X:00 Y:69 P:27 SP:FB - 
D047  A9 AA 8D	 LDA #			A:00 X:00 Y:69 P:27 SP:FB - 
D049  8D 00 02	 STA abs			A:AA X:00 Y:69 P:A5 SP:FB - 
D04C  A2 00 A0	 LDX #			A:AA X:00 Y:69 P:A5 SP:FB - 
D04E  A0 5A 20	 LDY #			A:AA X:00 Y:69 P:27 SP:FB - 
D050  20 B6 F7	 JSR abs			A:AA X:00 Y:5A P:25 SP:FB - 
F7B6  18 A9 FF	 CLC impl			A:AA X:00 Y:5A P:25 SP:F9 - 
F7B7  A9 FF 85	 LDA #			A:AA X:00 Y:5A P:24 SP:F9 - 
F7B9  85 01 24	 STA zpg			A:FF X:00 Y:5A P:A4 SP:F9 - 
F7BB  24 01 A9	 BIT zpg			A:FF X:00 Y:5A P:A4 SP:F9 - 
F7BD  A9 55 60	 LDA #			A:FF X:00 Y:5A P:E4 SP:F9 - 
F7BF  60 B0 09	 RTS impl			A:55 X:00 Y:5A P:64 SP:F9 - 
D053  01 80 20	 ORA X,ind			A:55 X:00 Y:5A P:64 SP:FB - 
D055  20 C0 F7	 JSR abs			A:FF X:00 Y:5A P:E4 SP:FB - 
F7C0  B0 09 10	 BCS rel			A:FF X:00 Y:5A P:E4 SP:F9 - 
F7C2  10 07 C9	 BPL rel			A:FF X:00 Y:5A P:E4 SP:F9 - 
F7C4  C9 FF D0	 CMP #			A:FF X:00 Y:5A P:E4 SP:F9 - 
F7C6  D0 03 50	 BNE rel			A:FF X:00 Y:5A P:67 SP:F9 - 
F7C8  50 01 60	 BVC rel			A:FF X:00 Y:5A P:67 SP:F9 - 
F7CA  60 84 00	 RTS impl			A:FF X:00 Y:5A P:67 SP:F9 - 
D058  C8 20 CE	 INY impl			A:FF X:00 Y:5A P:67 SP:FB - 
D059  20 CE F7	 JSR abs			A:FF X:00 Y:5B P:65 SP:FB - 
F7CE  38 B8 A9	 SEC impl			A:FF X:00 Y:5B P:65 SP:F9 - 
F7CF  B8 A9 00	 CLV impl			A:FF X:00 Y:5B P:65 SP:F9 - 
F7D0  A9 00 60	 LDA #			A:FF X:00 Y:5B P:25 SP:F9 - 
F7D2  60 D0 07	 RTS impl			A:00 X:00 Y:5B P:27 SP:F9 - 
D05C  01 82 20	 ORA X,ind			A:00 X:00 Y:5B P:27 SP:FB - 
D05E  20 D3 F7	 JSR abs			A:00 X:00 Y:5B P:27 SP:FB - 
F7D3  D0 07 70	 BNE rel			A:00 X:00 Y:5B P:27 SP:F9 - 
F7D5  70 05 90	 BVS rel			A:00 X:00 Y:5B P:27 SP:F9 - 
F7D7  90 03 30	 BCC rel			A:00 X:00 Y:5B P:27 SP:F9 - 
F7D9  30 01 60	 BMI rel			A:00 X:00 Y:5B P:27 SP:F9 - 
F7DB  60 84 00	 RTS impl			A:00 X:00 Y:5B P:27 SP:F9 - 
D061  C8 20 DF	 INY impl			A:00 X:00 Y:5B P:27 SP:FB - 
D062  20 DF F7	 JSR abs			A:00 X:00 Y:5C P:25 SP:FB - 
F7DF  18 24 01	 CLC impl			A:00 X:00 Y:5C P:25 SP:F9 - 
F7E0  24 01 A9	 BIT zpg			A:00 X:00 Y:5C P:24 SP:F9 - 
F7E2  A9 55 60	 LDA #			A:00 X:00 Y:5C P:E6 SP:F9 - 
F7E4  60 D0 07	 RTS impl			A:55 X:00 Y:5C P:64 SP:F9 - 
D065  21 80 20	 AND X,ind			A:55 X:00 Y:5C P:64 SP:FB - 
D067  20 E5 F7	 JSR abs			A:00 X:00 Y:5C P:66 SP:FB - 
F7E5  D0 07 50	 BNE rel			A:00 X:00 Y:5C P:66 SP:F9 - 
F7E7  50 05 B0	 BVC rel			A:00 X:00 Y:5C P:66 SP:F9 - 
F7E9  B0 03 30	 BCS rel			A:00 X:00 Y:5C P:66 SP:F9 - 
F7EB  30 01 60	 BMI rel			A:00 X:00 Y:5C P:66 SP:F9 - 
F7ED  60 84 00	 RTS impl			A:00 X:00 Y:5C P:66 SP:F9 - 
D06A  C8 A9 EF	 INY impl			A:00 X:00 Y:5C P:66 SP:FB - 
D06B  A9 EF 8D	 LDA #			A:00 X:00 Y:5D P:64 SP:FB - 
D06D  8D 00 03	 STA abs			A:EF X:00 Y:5D P:E4 SP:FB - 
D070  20 F1 F7	 JSR abs			A:EF X:00 Y:5D P:E4 SP:FB - 
F7F1  38 B8 A9	 SEC impl			A:EF X:00 Y:5D P:E4 SP:F9 - 
F7F2  B8 A9 F8	 CLV impl			A:EF X:00 Y:5D P:E5 SP:F9 - 
F7F3  A9 F8 60	 LDA #			A:EF X:00 Y:5D P:A5 SP:F9 - 
F7F5  60 90 09	 RTS impl			A:F8 X:00 Y:5D P:A5 SP:F9 - 
D073  21 82 20	 AND X,ind			A:F8 X:00 Y:5D P:A5 SP:FB - 
D075  20 F6 F7	 JSR abs			A:E8 X:00 Y:5D P:A5 SP:FB - 
F7F6  90 09 10	 BCC rel			A:E8 X:00 Y:5D P:A5 SP:F9 - 
F7F8  10 07 C9	 BPL rel			A:E8 X:00 Y:5D P:A5 SP:F9 - 
F7FA  C9 E8 D0	 CMP #			A:E8 X:00 Y:5D P:A5 SP:F9 - 
F7FC  D0 03 70	 BNE rel			A:E8 X:00 Y:5D P:27 SP:F9 - 
F7FE  70 01 60	 BVS rel			A:E8 X:00 Y:5D P:27 SP:F9 - 
F800  60 84 00	 RTS impl			A:E8 X:00 Y:5D P:27 SP:F9 - 
D078  C8 20 04	 INY impl			A:E8 X:00 Y:5D P:27 SP:FB - 
D079  20 04 F8	 JSR abs			A:E8 X:00 Y:5E P:25 SP:FB - 
F804  18 24 01	 CLC impl			A:E8 X:00 Y:5E P:25 SP:F9 - 
F805  24 01 A9	 BIT zpg			A:E8 X:00 Y:5E P:24 SP:F9 - 
F807  A9 5F 60	 LDA #			A:E8 X:00 Y:5E P:E4 SP:F9 - 
F809  60 B0 09	 RTS impl			A:5F X:00 Y:5E P:64 SP:F9 - 
D07C  41 80 20	 EOR X,ind			A:5F X:00 Y:5E P:64 SP:FB - 
D07E  20 0A F8	 JSR abs			A:F5 X:00 Y:5E P:E4 SP:FB - 
F80A  B0 09 10	 BCS rel			A:F5 X:00 Y:5E P:E4 SP:F9 - 
F80C  10 07 C9	 BPL rel			A:F5 X:00 Y:5E P:E4 SP:F9 - 
F80E  C9 F5 D0	 CMP #			A:F5 X:00 Y:5E P:E4 SP:F9 - 
F810  D0 03 50	 BNE rel			A:F5 X:00 Y:5E P:67 SP:F9 - 
F812  50 01 60	 BVC rel			A:F5 X:00 Y:5E P:67 SP:F9 - 
F814  60 84 00	 RTS impl			A:F5 X:00 Y:5E P:67 SP:F9 - 
D081  C8 A9 70	 INY impl			A:F5 X:00 Y:5E P:67 SP:FB - 
D082  A9 70 8D	 LDA #			A:F5 X:00 Y:5F P:65 SP:FB - 
D084  8D 00 03	 STA abs			A:70 X:00 Y:5F P:65 SP:FB - 
D087  20 18 F8	 JSR abs			A:70 X:00 Y:5F P:65 SP:FB - 
F818  38 B8 A9	 SEC impl			A:70 X:00 Y:5F P:65 SP:F9 - 
F819  B8 A9 70	 CLV impl			A:70 X:00 Y:5F P:65 SP:F9 - 
F81A  A9 70 60	 LDA #			A:70 X:00 Y:5F P:25 SP:F9 - 
F81C  60 D0 07	 RTS impl			A:70 X:00 Y:5F P:25 SP:F9 - 
D08A  41 82 20	 EOR X,ind			A:70 X:00 Y:5F P:25 SP:FB - 
D08C  20 1D F8	 JSR abs			A:00 X:00 Y:5F P:27 SP:FB - 
F81D  D0 07 70	 BNE rel			A:00 X:00 Y:5F P:27 SP:F9 - 
F81F  70 05 90	 BVS rel			A:00 X:00 Y:5F P:27 SP:F9 - 
F821  90 03 30	 BCC rel			A:00 X:00 Y:5F P:27 SP:F9 - 
F823  30 01 60	 BMI rel			A:00 X:00 Y:5F P:27 SP:F9 - 
F825  60 84 00	 RTS impl			A:00 X:00 Y:5F P:27 SP:F9 - 
D08F  C8 A9 69	 INY impl			A:00 X:00 Y:5F P:27 SP:FB - 
D090  A9 69 8D	 LDA #			A:00 X:00 Y:60 P:25 SP:FB - 
D092  8D 00 02	 STA abs			A:69 X:00 Y:60 P:25 SP:FB - 
D095  20 29 F8	 JSR abs			A:69 X:00 Y:60 P:25 SP:FB - 
F829  18 24 01	 CLC impl			A:69 X:00 Y:60 P:25 SP:F9 - 
F82A  24 01 A9	 BIT zpg			A:69 X:00 Y:60 P:24 SP:F9 - 
F82C  A9 00 60	 LDA #			A:69 X:00 Y:60 P:E4 SP:F9 - 
F82E  60 30 09	 RTS impl			A:00 X:00 Y:60 P:66 SP:F9 - 
D098  61 80 20	 ADC X,ind			A:00 X:00 Y:60 P:66 SP:FB - 
D09A  20 2F F8	 JSR abs			A:69 X:00 Y:60 P:24 SP:FB - 
F82F  30 09 B0	 BMI rel			A:69 X:00 Y:60 P:24 SP:F9 - 
F831  B0 07 C9	 BCS rel			A:69 X:00 Y:60 P:24 SP:F9 - 
F833  C9 69 D0	 CMP #			A:69 X:00 Y:60 P:24 SP:F9 - 
F835  D0 03 70	 BNE rel			A:69 X:00 Y:60 P:27 SP:F9 - 
F837  70 01 60	 BVS rel			A:69 X:00 Y:60 P:27 SP:F9 - 
F839  60 84 00	 RTS impl			A:69 X:00 Y:60 P:27 SP:F9 - 
D09D  C8 20 3D	 INY impl			A:69 X:00 Y:60 P:27 SP:FB - 
D09E  20 3D F8	 JSR abs			A:69 X:00 Y:61 P:25 SP:FB - 
F83D  38 24 01	 SEC impl			A:69 X:00 Y:61 P:25 SP:F9 - 
F83E  24 01 A9	 BIT zpg			A:69 X:00 Y:61 P:25 SP:F9 - 
F840  A9 00 60	 LDA #			A:69 X:00 Y:61 P:E5 SP:F9 - 
F842  60 30 09	 RTS impl			A:00 X:00 Y:61 P:67 SP:F9 - 
D0A1  61 80 20	 ADC X,ind			A:00 X:00 Y:61 P:67 SP:FB - 
D0A3  20 43 F8	 JSR abs			A:6A X:00 Y:61 P:24 SP:FB - 
F843  30 09 B0	 BMI rel			A:6A X:00 Y:61 P:24 SP:F9 - 
F845  B0 07 C9	 BCS rel			A:6A X:00 Y:61 P:24 SP:F9 - 
F847  C9 6A D0	 CMP #			A:6A X:00 Y:61 P:24 SP:F9 - 
F849  D0 03 70	 BNE rel			A:6A X:00 Y:61 P:27 SP:F9 - 
F84B  70 01 60	 BVS rel			A:6A X:00 Y:61 P:27 SP:F9 - 
F84D  60 84 00	 RTS impl			A:6A X:00 Y:61 P:27 SP:F9 - 
D0A6  C8 A9 7F	 INY impl			A:6A X:00 Y:61 P:27 SP:FB - 
D0A7  A9 7F 8D	 LDA #			A:6A X:00 Y:62 P:25 SP:FB - 
D0A9  8D 00 02	 STA abs			A:7F X:00 Y:62 P:25 SP:FB - 
D0AC  20 51 F8	 JSR abs			A:7F X:00 Y:62 P:25 SP:FB - 
F851  38 B8 A9	 SEC impl			A:7F X:00 Y:62 P:25 SP:F9 - 
F852  B8 A9 7F	 CLV impl			A:7F X:00 Y:62 P:25 SP:F9 - 
F853  A9 7F 60	 LDA #			A:7F X:00 Y:62 P:25 SP:F9 - 
F855  60 10 09	 RTS impl			A:7F X:00 Y:62 P:25 SP:F9 - 
D0AF  61 80 20	 ADC X,ind			A:7F X:00 Y:62 P:25 SP:FB - 
D0B1  20 56 F8	 JSR abs			A:FF X:00 Y:62 P:E4 SP:FB - 
F856  10 09 B0	 BPL rel			A:FF X:00 Y:62 P:E4 SP:F9 - 
F858  B0 07 C9	 BCS rel			A:FF X:00 Y:62 P:E4 SP:F9 - 
F85A  C9 FF D0	 CMP #			A:FF X:00 Y:62 P:E4 SP:F9 - 
F85C  D0 03 50	 BNE rel			A:FF X:00 Y:62 P:67 SP:F9 - 
F85E  50 01 60	 BVC rel			A:FF X:00 Y:62 P:67 SP:F9 - 
F860  60 84 00	 RTS impl			A:FF X:00 Y:62 P:67 SP:F9 - 
D0B4  C8 A9 80	 INY impl			A:FF X:00 Y:62 P:67 SP:FB - 
D0B5  A9 80 8D	 LDA #			A:FF X:00 Y:63 P:65 SP:FB - 
D0B7  8D 00 02	 STA abs			A:80 X:00 Y:63 P:E5 SP:FB - 
D0BA  20 64 F8	 JSR abs			A:80 X:00 Y:63 P:E5 SP:FB - 
F864  18 24 01	 CLC impl			A:80 X:00 Y:63 P:E5 SP:F9 - 
F865  24 01 A9	 BIT zpg			A:80 X:00 Y:63 P:E4 SP:F9 - 
F867  A9 7F 60	 LDA #			A:80 X:00 Y:63 P:E4 SP:F9 - 
F869  60 10 09	 RTS impl			A:7F X:00 Y:63 P:64 SP:F9 - 
D0BD  61 80 20	 ADC X,ind			A:7F X:00 Y:63 P:64 SP:FB - 
D0BF  20 6A F8	 JSR abs			A:FF X:00 Y:63 P:A4 SP:FB - 
F86A  10 09 B0	 BPL rel			A:FF X:00 Y:63 P:A4 SP:F9 - 
F86C  B0 07 C9	 BCS rel			A:FF X:00 Y:63 P:A4 SP:F9 - 
F86E  C9 FF D0	 CMP #			A:FF X:00 Y:63 P:A4 SP:F9 - 
F870  D0 03 70	 BNE rel			A:FF X:00 Y:63 P:27 SP:F9 - 
F872  70 01 60	 BVS rel			A:FF X:00 Y:63 P:27 SP:F9 - 
F874  60 84 00	 RTS impl			A:FF X:00 Y:63 P:27 SP:F9 - 
D0C2  C8 20 78	 INY impl			A:FF X:00 Y:63 P:27 SP:FB - 
D0C3  20 78 F8	 JSR abs			A:FF X:00 Y:64 P:25 SP:FB - 
F878  38 B8 A9	 SEC impl			A:FF X:00 Y:64 P:25 SP:F9 - 
F879  B8 A9 7F	 CLV impl			A:FF X:00 Y:64 P:25 SP:F9 - 
F87A  A9 7F 60	 LDA #			A:FF X:00 Y:64 P:25 SP:F9 - 
F87C  60 D0 07	 RTS impl			A:7F X:00 Y:64 P:25 SP:F9 - 
D0C6  61 80 20	 ADC X,ind			A:7F X:00 Y:64 P:25 SP:FB - 
D0C8  20 7D F8	 JSR abs			A:00 X:00 Y:64 P:27 SP:FB - 
F87D  D0 07 30	 BNE rel			A:00 X:00 Y:64 P:27 SP:F9 - 
F87F  30 05 70	 BMI rel			A:00 X:00 Y:64 P:27 SP:F9 - 
F881  70 03 90	 BVS rel			A:00 X:00 Y:64 P:27 SP:F9 - 
F883  90 01 60	 BCC rel			A:00 X:00 Y:64 P:27 SP:F9 - 
F885  60 84 00	 RTS impl			A:00 X:00 Y:64 P:27 SP:F9 - 
D0CB  C8 A9 40	 INY impl			A:00 X:00 Y:64 P:27 SP:FB - 
D0CC  A9 40 8D	 LDA #			A:00 X:00 Y:65 P:25 SP:FB - 
D0CE  8D 00 02	 STA abs			A:40 X:00 Y:65 P:25 SP:FB - 
D0D1  20 89 F8	 JSR abs			A:40 X:00 Y:65 P:25 SP:FB - 
F889  24 01 A9	 BIT zpg			A:40 X:00 Y:65 P:25 SP:F9 - 
F88B  A9 40 60	 LDA #			A:40 X:00 Y:65 P:E5 SP:F9 - 
F88D  60 30 07	 RTS impl			A:40 X:00 Y:65 P:65 SP:F9 - 
D0D4  C1 80 20	 CMP X,ind			A:40 X:00 Y:65 P:65 SP:FB - 
D0D6  20 8E F8	 JSR abs			A:40 X:00 Y:65 P:67 SP:FB - 
F88E  30 07 90	 BMI rel			A:40 X:00 Y:65 P:67 SP:F9 - 
F890  90 05 D0	 BCC rel			A:40 X:00 Y:65 P:67 SP:F9 - 
F892  D0 03 50	 BNE rel			A:40 X:00 Y:65 P:67 SP:F9 - 
F894  50 01 60	 BVC rel			A:40 X:00 Y:65 P:67 SP:F9 - 
F896  60 84 00	 RTS impl			A:40 X:00 Y:65 P:67 SP:F9 - 
D0D9  C8 48 A9	 INY impl			A:40 X:00 Y:65 P:67 SP:FB - 
D0DA  48 A9 3F	 PHA impl			A:40 X:00 Y:66 P:65 SP:FB - 
D0DB  A9 3F 8D	 LDA #			A:40 X:00 Y:66 P:65 SP:FA - 
D0DD  8D 00 02	 STA abs			A:3F X:00 Y:66 P:65 SP:FA - 
D0E0  68 20 9A	 PLA impl			A:3F X:00 Y:66 P:65 SP:FA - 
D0E1  20 9A F8	 JSR abs			A:40 X:00 Y:66 P:65 SP:FB - 
F89A  B8 60 F0	 CLV impl			A:40 X:00 Y:66 P:65 SP:F9 - 
F89B  60 F0 07	 RTS impl			A:40 X:00 Y:66 P:25 SP:F9 - 
D0E4  C1 80 20	 CMP X,ind			A:40 X:00 Y:66 P:25 SP:FB - 
D0E6  20 9C F8	 JSR abs			A:40 X:00 Y:66 P:25 SP:FB - 
F89C  F0 07 30	 BEQ rel			A:40 X:00 Y:66 P:25 SP:F9 - 
F89E  30 05 90	 BMI rel			A:40 X:00 Y:66 P:25 SP:F9 - 
F8A0  90 03 70	 BCC rel			A:40 X:00 Y:66 P:25 SP:F9 - 
F8A2  70 01 60	 BVS rel			A:40 X:00 Y:66 P:25 SP:F9 - 
F8A4  60 84 00	 RTS impl			A:40 X:00 Y:66 P:25 SP:F9 - 
D0E9  C8 48 A9	 INY impl			A:40 X:00 Y:66 P:25 SP:FB - 
D0EA  48 A9 41	 PHA impl			A:40 X:00 Y:67 P:25 SP:FB - 
D0EB  A9 41 8D	 LDA #			A:40 X:00 Y:67 P:25 SP:FA - 
D0ED  8D 00 02	 STA abs			A:41 X:00 Y:67 P:25 SP:FA - 
D0F0  68 C1 80	 PLA impl			A:41 X:00 Y:67 P:25 SP:FA - 
D0F1  C1 80 20	 CMP X,ind			A:40 X:00 Y:67 P:25 SP:FB - 
D0F3  20 A8 F8	 JSR abs			A:40 X:00 Y:67 P:A4 SP:FB - 
F8A8  F0 05 10	 BEQ rel			A:40 X:00 Y:67 P:A4 SP:F9 - 
F8AA  10 03 10	 BPL rel			A:40 X:00 Y:67 P:A4 SP:F9 - 
F8AC  10 01 60	 BPL rel			A:40 X:00 Y:67 P:A4 SP:F9 - 
F8AE  60 84 00	 RTS impl			A:40 X:00 Y:67 P:A4 SP:F9 - 
D0F6  C8 48 A9	 INY impl			A:40 X:00 Y:67 P:A4 SP:FB - 
D0F7  48 A9 00	 PHA impl			A:40 X:00 Y:68 P:24 SP:FB - 
D0F8  A9 00 8D	 LDA #			A:40 X:00 Y:68 P:24 SP:FA - 
D0FA  8D 00 02	 STA abs			A:00 X:00 Y:68 P:26 SP:FA - 
D0FD  68 20 B2	 PLA impl			A:00 X:00 Y:68 P:26 SP:FA - 
D0FE  20 B2 F8	 JSR abs			A:40 X:00 Y:68 P:24 SP:FB - 
F8B2  A9 80 60	 LDA #			A:40 X:00 Y:68 P:24 SP:F9 - 
F8B4  60 F0 05	 RTS impl			A:80 X:00 Y:68 P:A4 SP:F9 - 
D101  C1 80 20	 CMP X,ind			A:80 X:00 Y:68 P:A4 SP:FB - 
D103  20 B5 F8	 JSR abs			A:80 X:00 Y:68 P:A5 SP:FB - 
F8B5  F0 05 10	 BEQ rel			A:80 X:00 Y:68 P:A5 SP:F9 - 
F8B7  10 03 90	 BPL rel			A:80 X:00 Y:68 P:A5 SP:F9 - 
F8B9  90 01 60	 BCC rel			A:80 X:00 Y:68 P:A5 SP:F9 - 
F8BB  60 84 00	 RTS impl			A:80 X:00 Y:68 P:A5 SP:F9 - 
D106  C8 48 A9	 INY impl			A:80 X:00 Y:68 P:A5 SP:FB - 
D107  48 A9 80	 PHA impl			A:80 X:00 Y:69 P:25 SP:FB - 
D108  A9 80 8D	 LDA #			A:80 X:00 Y:69 P:25 SP:FA - 
D10A  8D 00 02	 STA abs			A:80 X:00 Y:69 P:A5 SP:FA - 
D10D  68 C1 80	 PLA impl			A:80 X:00 Y:69 P:A5 SP:FA - 
D10E  C1 80 20	 CMP X,ind			A:80 X:00 Y:69 P:A5 SP:FB - 
D110  20 BF F8	 JSR abs			A:80 X:00 Y:69 P:27 SP:FB - 
F8BF  D0 05 30	 BNE rel			A:80 X:00 Y:69 P:27 SP:F9 - 
F8C1  30 03 90	 BMI rel			A:80 X:00 Y:69 P:27 SP:F9 - 
F8C3  90 01 60	 BCC rel			A:80 X:00 Y:69 P:27 SP:F9 - 
F8C5  60 84 00	 RTS impl			A:80 X:00 Y:69 P:27 SP:F9 - 
D113  C8 48 A9	 INY impl			A:80 X:00 Y:69 P:27 SP:FB - 
D114  48 A9 81	 PHA impl			A:80 X:00 Y:6A P:25 SP:FB - 
D115  A9 81 8D	 LDA #			A:80 X:00 Y:6A P:25 SP:FA - 
D117  8D 00 02	 STA abs			A:81 X:00 Y:6A P:A5 SP:FA - 
D11A  68 C1 80	 PLA impl			A:81 X:00 Y:6A P:A5 SP:FA - 
D11B  C1 80 20	 CMP X,ind			A:80 X:00 Y:6A P:A5 SP:FB - 
D11D  20 C9 F8	 JSR abs			A:80 X:00 Y:6A P:A4 SP:FB - 
F8C9  B0 05 F0	 BCS rel			A:80 X:00 Y:6A P:A4 SP:F9 - 
F8CB  F0 03 10	 BEQ rel			A:80 X:00 Y:6A P:A4 SP:F9 - 
F8CD  10 01 60	 BPL rel			A:80 X:00 Y:6A P:A4 SP:F9 - 
F8CF  60 84 00	 RTS impl			A:80 X:00 Y:6A P:A4 SP:F9 - 
D120  C8 48 A9	 INY impl			A:80 X:00 Y:6A P:A4 SP:FB - 
D121  48 A9 7F	 PHA impl			A:80 X:00 Y:6B P:24 SP:FB - 
D122  A9 7F 8D	 LDA #			A:80 X:00 Y:6B P:24 SP:FA - 
D124  8D 00 02	 STA abs			A:7F X:00 Y:6B P:24 SP:FA - 
D127  68 C1 80	 PLA impl			A:7F X:00 Y:6B P:24 SP:FA - 
D128  C1 80 20	 CMP X,ind			A:80 X:00 Y:6B P:A4 SP:FB - 
D12A  20 D3 F8	 JSR abs			A:80 X:00 Y:6B P:25 SP:FB - 
F8D3  90 05 F0	 BCC rel			A:80 X:00 Y:6B P:25 SP:F9 - 
F8D5  F0 03 30	 BEQ rel			A:80 X:00 Y:6B P:25 SP:F9 - 
F8D7  30 01 60	 BMI rel			A:80 X:00 Y:6B P:25 SP:F9 - 
F8D9  60 84 00	 RTS impl			A:80 X:00 Y:6B P:25 SP:F9 - 
D12D  C8 A9 40	 INY impl			A:80 X:00 Y:6B P:25 SP:FB - 
D12E  A9 40 8D	 LDA #			A:80 X:00 Y:6C P:25 SP:FB - 
D130  8D 00 02	 STA abs			A:40 X:00 Y:6C P:25 SP:FB - 
D133  20 31 F9	 JSR abs			A:40 X:00 Y:6C P:25 SP:FB - 
F931  24 01 A9	 BIT zpg			A:40 X:00 Y:6C P:25 SP:F9 - 
F933  A9 40 38	 LDA #			A:40 X:00 Y:6C P:E5 SP:F9 - 
F935  38 60 30	 SEC impl			A:40 X:00 Y:6C P:65 SP:F9 - 
F936  60 30 0B	 RTS impl			A:40 X:00 Y:6C P:65 SP:F9 - 
D136  E1 80 20	 SBC X,ind			A:40 X:00 Y:6C P:65 SP:FB - 
D138  20 37 F9	 JSR abs			A:00 X:00 Y:6C P:27 SP:FB - 
F937  30 0B 90	 BMI rel			A:00 X:00 Y:6C P:27 SP:F9 - 
F939  90 09 D0	 BCC rel			A:00 X:00 Y:6C P:27 SP:F9 - 
F93B  D0 07 70	 BNE rel			A:00 X:00 Y:6C P:27 SP:F9 - 
F93D  70 05 C9	 BVS rel			A:00 X:00 Y:6C P:27 SP:F9 - 
F93F  C9 00 D0	 CMP #			A:00 X:00 Y:6C P:27 SP:F9 - 
F941  D0 01 60	 BNE rel			A:00 X:00 Y:6C P:27 SP:F9 - 
F943  60 84 00	 RTS impl			A:00 X:00 Y:6C P:27 SP:F9 - 
D13B  C8 A9 3F	 INY impl			A:00 X:00 Y:6C P:27 SP:FB - 
D13C  A9 3F 8D	 LDA #			A:00 X:00 Y:6D P:25 SP:FB - 
D13E  8D 00 02	 STA abs			A:3F X:00 Y:6D P:25 SP:FB - 
D141  20 47 F9	 JSR abs			A:3F X:00 Y:6D P:25 SP:FB - 
F947  B8 38 A9	 CLV impl			A:3F X:00 Y:6D P:25 SP:F9 - 
F948  38 A9 40	 SEC impl			A:3F X:00 Y:6D P:25 SP:F9 - 
F949  A9 40 60	 LDA #			A:3F X:00 Y:6D P:25 SP:F9 - 
F94B  60 F0 0B	 RTS impl			A:40 X:00 Y:6D P:25 SP:F9 - 
D144  E1 80 20	 SBC X,ind			A:40 X:00 Y:6D P:25 SP:FB - 
D146  20 4C F9	 JSR abs			A:01 X:00 Y:6D P:25 SP:FB - 
F94C  F0 0B 30	 BEQ rel			A:01 X:00 Y:6D P:25 SP:F9 - 
F94E  30 09 90	 BMI rel			A:01 X:00 Y:6D P:25 SP:F9 - 
F950  90 07 70	 BCC rel			A:01 X:00 Y:6D P:25 SP:F9 - 
F952  70 05 C9	 BVS rel			A:01 X:00 Y:6D P:25 SP:F9 - 
F954  C9 01 D0	 CMP #			A:01 X:00 Y:6D P:25 SP:F9 - 
F956  D0 01 60	 BNE rel			A:01 X:00 Y:6D P:27 SP:F9 - 
F958  60 84 00	 RTS impl			A:01 X:00 Y:6D P:27 SP:F9 - 
D149  C8 A9 41	 INY impl			A:01 X:00 Y:6D P:27 SP:FB - 
D14A  A9 41 8D	 LDA #			A:01 X:00 Y:6E P:25 SP:FB - 
D14C  8D 00 02	 STA abs			A:41 X:00 Y:6E P:25 SP:FB - 
D14F  20 5C F9	 JSR abs			A:41 X:00 Y:6E P:25 SP:FB - 
F95C  A9 40 38	 LDA #			A:41 X:00 Y:6E P:25 SP:F9 - 
F95E  38 24 01	 SEC impl			A:40 X:00 Y:6E P:25 SP:F9 - 
F95F  24 01 60	 BIT zpg			A:40 X:00 Y:6E P:25 SP:F9 - 
F961  60 B0 0B	 RTS impl			A:40 X:00 Y:6E P:E5 SP:F9 - 
D152  E1 80 20	 SBC X,ind			A:40 X:00 Y:6E P:E5 SP:FB - 
D154  20 62 F9	 JSR abs			A:FF X:00 Y:6E P:A4 SP:FB - 
F962  B0 0B F0	 BCS rel			A:FF X:00 Y:6E P:A4 SP:F9 - 
F964  F0 09 10	 BEQ rel			A:FF X:00 Y:6E P:A4 SP:F9 - 
F966  10 07 70	 BPL rel			A:FF X:00 Y:6E P:A4 SP:F9 - 
F968  70 05 C9	 BVS rel			A:FF X:00 Y:6E P:A4 SP:F9 - 
F96A  C9 FF D0	 CMP #			A:FF X:00 Y:6E P:A4 SP:F9 - 
F96C  D0 01 60	 BNE rel			A:FF X:00 Y:6E P:27 SP:F9 - 
F96E  60 84 00	 RTS impl			A:FF X:00 Y:6E P:27 SP:F9 - 
D157  C8 A9 00	 INY impl			A:FF X:00 Y:6E P:27 SP:FB - 
D158  A9 00 8D	 LDA #			A:FF X:00 Y:6F P:25 SP:FB - 
D15A  8D 00 02	 STA abs			A:00 X:00 Y:6F P:27 SP:FB - 
D15D  20 72 F9	 JSR abs			A:00 X:00 Y:6F P:27 SP:FB - 
F972  18 A9 80	 CLC impl			A:00 X:00 Y:6F P:27 SP:F9 - 
F973  A9 80 60	 LDA #			A:00 X:00 Y:6F P:26 SP:F9 - 
F975  60 90 05	 RTS impl			A:80 X:00 Y:6F P:A4 SP:F9 - 
D160  E1 80 20	 SBC X,ind			A:80 X:00 Y:6F P:A4 SP:FB - 
D162  20 76 F9	 JSR abs			A:7F X:00 Y:6F P:65 SP:FB - 
F976  90 05 C9	 BCC rel			A:7F X:00 Y:6F P:65 SP:F9 - 
F978  C9 7F D0	 CMP #			A:7F X:00 Y:6F P:65 SP:F9 - 
F97A  D0 01 60	 BNE rel			A:7F X:00 Y:6F P:67 SP:F9 - 
F97C  60 84 00	 RTS impl			A:7F X:00 Y:6F P:67 SP:F9 - 
D165  C8 A9 7F	 INY impl			A:7F X:00 Y:6F P:67 SP:FB - 
D166  A9 7F 8D	 LDA #			A:7F X:00 Y:70 P:65 SP:FB - 
D168  8D 00 02	 STA abs			A:7F X:00 Y:70 P:65 SP:FB - 
D16B  20 80 F9	 JSR abs			A:7F X:00 Y:70 P:65 SP:FB - 
F980  38 A9 81	 SEC impl			A:7F X:00 Y:70 P:65 SP:F9 - 
F981  A9 81 60	 LDA #			A:7F X:00 Y:70 P:65 SP:F9 - 
F983  60 50 07	 RTS impl			A:81 X:00 Y:70 P:E5 SP:F9 - 
D16E  E1 80 20	 SBC X,ind			A:81 X:00 Y:70 P:E5 SP:FB - 
D170  20 84 F9	 JSR abs			A:02 X:00 Y:70 P:65 SP:FB - 
F984  50 07 90	 BVC rel			A:02 X:00 Y:70 P:65 SP:F9 - 
F986  90 05 C9	 BCC rel			A:02 X:00 Y:70 P:65 SP:F9 - 
F988  C9 02 D0	 CMP #			A:02 X:00 Y:70 P:65 SP:F9 - 
F98A  D0 01 60	 BNE rel			A:02 X:00 Y:70 P:67 SP:F9 - 
F98C  60 84 00	 RTS impl			A:02 X:00 Y:70 P:67 SP:F9 - 
D173  60 A9 55	 RTS impl			A:02 X:00 Y:70 P:67 SP:FB - 
C612  20 74 D1	 JSR abs			A:02 X:00 Y:70 P:67 SP:FD - 
D174  A9 55 85	 LDA #			A:02 X:00 Y:70 P:67 SP:FB - 
D176  85 78 A9	 STA zpg			A:55 X:00 Y:70 P:65 SP:FB - 
D178  A9 FF 85	 LDA #			A:55 X:00 Y:70 P:65 SP:FB - 
D17A  85 01 24	 STA zpg			A:FF X:00 Y:70 P:E5 SP:FB - 
D17C  24 01 A0	 BIT zpg			A:FF X:00 Y:70 P:E5 SP:FB - 
D17E  A0 11 A2	 LDY #			A:FF X:00 Y:70 P:E5 SP:FB - 
D180  A2 23 A9	 LDX #			A:FF X:00 Y:11 P:65 SP:FB - 
D182  A9 00 A5	 LDA #			A:FF X:23 Y:11 P:65 SP:FB - 
D184  A5 78 F0	 LDA zpg			A:00 X:23 Y:11 P:67 SP:FB - 
D186  F0 10 30	 BEQ rel			A:55 X:23 Y:11 P:65 SP:FB - 
D188  30 0E C9	 BMI rel			A:55 X:23 Y:11 P:65 SP:FB - 
D18A  C9 55 D0	 CMP #			A:55 X:23 Y:11 P:65 SP:FB - 
D18C  D0 0A C0	 BNE rel			A:55 X:23 Y:11 P:67 SP:FB - 
D18E  C0 11 D0	 CPY #			A:55 X:23 Y:11 P:67 SP:FB - 
D190  D0 06 E0	 BNE rel			A:55 X:23 Y:11 P:67 SP:FB - 
D192  E0 23 50	 CPX #			A:55 X:23 Y:11 P:67 SP:FB - 
D194  50 02 F0	 BVC rel			A:55 X:23 Y:11 P:67 SP:FB - 
D196  F0 04 A9	 BEQ rel			A:55 X:23 Y:11 P:67 SP:FB - 
D19C  A9 46 24	 LDA #			A:55 X:23 Y:11 P:67 SP:FB - 
D19E  24 01 85	 BIT zpg			A:46 X:23 Y:11 P:65 SP:FB - 
D1A0  85 78 F0	 STA zpg			A:46 X:23 Y:11 P:E5 SP:FB - 
D1A2  F0 0A 10	 BEQ rel			A:46 X:23 Y:11 P:E5 SP:FB - 
D1A4  10 08 50	 BPL rel			A:46 X:23 Y:11 P:E5 SP:FB - 
D1A6  50 06 A5	 BVC rel			A:46 X:23 Y:11 P:E5 SP:FB - 
D1A8  A5 78 C9	 LDA zpg			A:46 X:23 Y:11 P:E5 SP:FB - 
D1AA  C9 46 F0	 CMP #			A:46 X:23 Y:11 P:65 SP:FB - 
D1AC  F0 04 A9	 BEQ rel			A:46 X:23 Y:11 P:67 SP:FB - 
D1B2  A9 55 85	 LDA #			A:46 X:23 Y:11 P:67 SP:FB - 
D1B4  85 78 24	 STA zpg			A:55 X:23 Y:11 P:65 SP:FB - 
D1B6  24 01 A9	 BIT zpg			A:55 X:23 Y:11 P:65 SP:FB - 
D1B8  A9 11 A2	 LDA #			A:55 X:23 Y:11 P:E5 SP:FB - 
D1BA  A2 23 A0	 LDX #			A:11 X:23 Y:11 P:65 SP:FB - 
D1BC  A0 00 A4	 LDY #			A:11 X:23 Y:11 P:65 SP:FB - 
D1BE  A4 78 F0	 LDY zpg			A:11 X:23 Y:00 P:67 SP:FB - 
D1C0  F0 10 30	 BEQ rel			A:11 X:23 Y:55 P:65 SP:FB - 
D1C2  30 0E C0	 BMI rel			A:11 X:23 Y:55 P:65 SP:FB - 
D1C4  C0 55 D0	 CPY #			A:11 X:23 Y:55 P:65 SP:FB - 
D1C6  D0 0A C9	 BNE rel			A:11 X:23 Y:55 P:67 SP:FB - 
D1C8  C9 11 D0	 CMP #			A:11 X:23 Y:55 P:67 SP:FB - 
D1CA  D0 06 E0	 BNE rel			A:11 X:23 Y:55 P:67 SP:FB - 
D1CC  E0 23 50	 CPX #			A:11 X:23 Y:55 P:67 SP:FB - 
D1CE  50 02 F0	 BVC rel			A:11 X:23 Y:55 P:67 SP:FB - 
D1D0  F0 04 A9	 BEQ rel			A:11 X:23 Y:55 P:67 SP:FB - 
D1D6  A0 46 24	 LDY #			A:11 X:23 Y:55 P:67 SP:FB - 
D1D8  24 01 84	 BIT zpg			A:11 X:23 Y:46 P:65 SP:FB - 
D1DA  84 78 F0	 STY zpg			A:11 X:23 Y:46 P:E5 SP:FB - 
D1DC  F0 0A 10	 BEQ rel			A:11 X:23 Y:46 P:E5 SP:FB - 
D1DE  10 08 50	 BPL rel			A:11 X:23 Y:46 P:E5 SP:FB - 
D1E0  50 06 A4	 BVC rel			A:11 X:23 Y:46 P:E5 SP:FB - 
D1E2  A4 78 C0	 LDY zpg			A:11 X:23 Y:46 P:E5 SP:FB - 
D1E4  C0 46 F0	 CPY #			A:11 X:23 Y:46 P:65 SP:FB - 
D1E6  F0 04 A9	 BEQ rel			A:11 X:23 Y:46 P:67 SP:FB - 
D1EC  24 01 A9	 BIT zpg			A:11 X:23 Y:46 P:67 SP:FB - 
D1EE  A9 55 85	 LDA #			A:11 X:23 Y:46 P:E5 SP:FB - 
D1F0  85 78 A0	 STA zpg			A:55 X:23 Y:46 P:65 SP:FB - 
D1F2  A0 11 A9	 LDY #			A:55 X:23 Y:46 P:65 SP:FB - 
D1F4  A9 23 A2	 LDA #			A:55 X:23 Y:11 P:65 SP:FB - 
D1F6  A2 00 A6	 LDX #			A:23 X:23 Y:11 P:65 SP:FB - 
D1F8  A6 78 F0	 LDX zpg			A:23 X:00 Y:11 P:67 SP:FB - 
D1FA  F0 10 30	 BEQ rel			A:23 X:55 Y:11 P:65 SP:FB - 
D1FC  30 0E E0	 BMI rel			A:23 X:55 Y:11 P:65 SP:FB - 
D1FE  E0 55 D0	 CPX #			A:23 X:55 Y:11 P:65 SP:FB - 
D200  D0 0A C0	 BNE rel			A:23 X:55 Y:11 P:67 SP:FB - 
D202  C0 11 D0	 CPY #			A:23 X:55 Y:11 P:67 SP:FB - 
D204  D0 06 C9	 BNE rel			A:23 X:55 Y:11 P:67 SP:FB - 
D206  C9 23 50	 CMP #			A:23 X:55 Y:11 P:67 SP:FB - 
D208  50 02 F0	 BVC rel			A:23 X:55 Y:11 P:67 SP:FB - 
D20A  F0 04 A9	 BEQ rel			A:23 X:55 Y:11 P:67 SP:FB - 
D210  A2 46 24	 LDX #			A:23 X:55 Y:11 P:67 SP:FB - 
D212  24 01 86	 BIT zpg			A:23 X:46 Y:11 P:65 SP:FB - 
D214  86 78 F0	 STX zpg			A:23 X:46 Y:11 P:E5 SP:FB - 
D216  F0 0A 10	 BEQ rel			A:23 X:46 Y:11 P:E5 SP:FB - 
D218  10 08 50	 BPL rel			A:23 X:46 Y:11 P:E5 SP:FB - 
D21A  50 06 A6	 BVC rel			A:23 X:46 Y:11 P:E5 SP:FB - 
D21C  A6 78 E0	 LDX zpg			A:23 X:46 Y:11 P:E5 SP:FB - 
D21E  E0 46 F0	 CPX #			A:23 X:46 Y:11 P:65 SP:FB - 
D220  F0 04 A9	 BEQ rel			A:23 X:46 Y:11 P:67 SP:FB - 
D226  A9 C0 85	 LDA #			A:23 X:46 Y:11 P:67 SP:FB - 
D228  85 78 A2	 STA zpg			A:C0 X:46 Y:11 P:E5 SP:FB - 
D22A  A2 33 A0	 LDX #			A:C0 X:46 Y:11 P:E5 SP:FB - 
D22C  A0 88 A9	 LDY #			A:C0 X:33 Y:11 P:65 SP:FB - 
D22E  A9 05 24	 LDA #			A:C0 X:33 Y:88 P:E5 SP:FB - 
D230  24 78 10	 BIT zpg			A:05 X:33 Y:88 P:65 SP:FB - 
D232  10 10 50	 BPL rel			A:05 X:33 Y:88 P:E7 SP:FB - 
D234  50 0E D0	 BVC rel			A:05 X:33 Y:88 P:E7 SP:FB - 
D236  D0 0C C9	 BNE rel			A:05 X:33 Y:88 P:E7 SP:FB - 
D238  C9 05 D0	 CMP #			A:05 X:33 Y:88 P:E7 SP:FB - 
D23A  D0 08 E0	 BNE rel			A:05 X:33 Y:88 P:67 SP:FB - 
D23C  E0 33 D0	 CPX #			A:05 X:33 Y:88 P:67 SP:FB - 
D23E  D0 04 C0	 BNE rel			A:05 X:33 Y:88 P:67 SP:FB - 
D240  C0 88 F0	 CPY #			A:05 X:33 Y:88 P:67 SP:FB - 
D242  F0 04 A9	 BEQ rel			A:05 X:33 Y:88 P:67 SP:FB - 
D248  A9 03 85	 LDA #			A:05 X:33 Y:88 P:67 SP:FB - 
D24A  85 78 A9	 STA zpg			A:03 X:33 Y:88 P:65 SP:FB - 
D24C  A9 01 24	 LDA #			A:03 X:33 Y:88 P:65 SP:FB - 
D24E  24 78 30	 BIT zpg			A:01 X:33 Y:88 P:65 SP:FB - 
D250  30 08 70	 BMI rel			A:01 X:33 Y:88 P:25 SP:FB - 
D252  70 06 F0	 BVS rel			A:01 X:33 Y:88 P:25 SP:FB - 
D254  F0 04 C9	 BEQ rel			A:01 X:33 Y:88 P:25 SP:FB - 
D256  C9 01 F0	 CMP #			A:01 X:33 Y:88 P:25 SP:FB - 
D258  F0 04 A9	 BEQ rel			A:01 X:33 Y:88 P:27 SP:FB - 
D25E  A0 7E A9	 LDY #			A:01 X:33 Y:88 P:27 SP:FB - 
D260  A9 AA 85	 LDA #			A:01 X:33 Y:7E P:25 SP:FB - 
D262  85 78 20	 STA zpg			A:AA X:33 Y:7E P:A5 SP:FB - 
D264  20 B6 F7	 JSR abs			A:AA X:33 Y:7E P:A5 SP:FB - 
F7B6  18 A9 FF	 CLC impl			A:AA X:33 Y:7E P:A5 SP:F9 - 
F7B7  A9 FF 85	 LDA #			A:AA X:33 Y:7E P:A4 SP:F9 - 
F7B9  85 01 24	 STA zpg			A:FF X:33 Y:7E P:A4 SP:F9 - 
F7BB  24 01 A9	 BIT zpg			A:FF X:33 Y:7E P:A4 SP:F9 - 
F7BD  A9 55 60	 LDA #			A:FF X:33 Y:7E P:E4 SP:F9 - 
F7BF  60 B0 09	 RTS impl			A:55 X:33 Y:7E P:64 SP:F9 - 
D267  05 78 20	 ORA zpg			A:55 X:33 Y:7E P:64 SP:FB - 
D269  20 C0 F7	 JSR abs			A:FF X:33 Y:7E P:E4 SP:FB - 
F7C0  B0 09 10	 BCS rel			A:FF X:33 Y:7E P:E4 SP:F9 - 
F7C2  10 07 C9	 BPL rel			A:FF X:33 Y:7E P:E4 SP:F9 - 
F7C4  C9 FF D0	 CMP #			A:FF X:33 Y:7E P:E4 SP:F9 - 
F7C6  D0 03 50	 BNE rel			A:FF X:33 Y:7E P:67 SP:F9 - 
F7C8  50 01 60	 BVC rel			A:FF X:33 Y:7E P:67 SP:F9 - 
F7CA  60 84 00	 RTS impl			A:FF X:33 Y:7E P:67 SP:F9 - 
D26C  C8 A9 00	 INY impl			A:FF X:33 Y:7E P:67 SP:FB - 
D26D  A9 00 85	 LDA #			A:FF X:33 Y:7F P:65 SP:FB - 
D26F  85 78 20	 STA zpg			A:00 X:33 Y:7F P:67 SP:FB - 
D271  20 CE F7	 JSR abs			A:00 X:33 Y:7F P:67 SP:FB - 
F7CE  38 B8 A9	 SEC impl			A:00 X:33 Y:7F P:67 SP:F9 - 
F7CF  B8 A9 00	 CLV impl			A:00 X:33 Y:7F P:67 SP:F9 - 
F7D0  A9 00 60	 LDA #			A:00 X:33 Y:7F P:27 SP:F9 - 
F7D2  60 D0 07	 RTS impl			A:00 X:33 Y:7F P:27 SP:F9 - 
D274  05 78 20	 ORA zpg			A:00 X:33 Y:7F P:27 SP:FB - 
D276  20 D3 F7	 JSR abs			A:00 X:33 Y:7F P:27 SP:FB - 
F7D3  D0 07 70	 BNE rel			A:00 X:33 Y:7F P:27 SP:F9 - 
F7D5  70 05 90	 BVS rel			A:00 X:33 Y:7F P:27 SP:F9 - 
F7D7  90 03 30	 BCC rel			A:00 X:33 Y:7F P:27 SP:F9 - 
F7D9  30 01 60	 BMI rel			A:00 X:33 Y:7F P:27 SP:F9 - 
F7DB  60 84 00	 RTS impl			A:00 X:33 Y:7F P:27 SP:F9 - 
D279  C8 A9 AA	 INY impl			A:00 X:33 Y:7F P:27 SP:FB - 
D27A  A9 AA 85	 LDA #			A:00 X:33 Y:80 P:A5 SP:FB - 
D27C  85 78 20	 STA zpg			A:AA X:33 Y:80 P:A5 SP:FB - 
D27E  20 DF F7	 JSR abs			A:AA X:33 Y:80 P:A5 SP:FB - 
F7DF  18 24 01	 CLC impl			A:AA X:33 Y:80 P:A5 SP:F9 - 
F7E0  24 01 A9	 BIT zpg			A:AA X:33 Y:80 P:A4 SP:F9 - 
F7E2  A9 55 60	 LDA #			A:AA X:33 Y:80 P:E4 SP:F9 - 
F7E4  60 D0 07	 RTS impl			A:55 X:33 Y:80 P:64 SP:F9 - 
D281  25 78 20	 AND zpg			A:55 X:33 Y:80 P:64 SP:FB - 
D283  20 E5 F7	 JSR abs			A:00 X:33 Y:80 P:66 SP:FB - 
F7E5  D0 07 50	 BNE rel			A:00 X:33 Y:80 P:66 SP:F9 - 
F7E7  50 05 B0	 BVC rel			A:00 X:33 Y:80 P:66 SP:F9 - 
F7E9  B0 03 30	 BCS rel			A:00 X:33 Y:80 P:66 SP:F9 - 
F7EB  30 01 60	 BMI rel			A:00 X:33 Y:80 P:66 SP:F9 - 
F7ED  60 84 00	 RTS impl			A:00 X:33 Y:80 P:66 SP:F9 - 
D286  C8 A9 EF	 INY impl			A:00 X:33 Y:80 P:66 SP:FB - 
D287  A9 EF 85	 LDA #			A:00 X:33 Y:81 P:E4 SP:FB - 
D289  85 78 20	 STA zpg			A:EF X:33 Y:81 P:E4 SP:FB - 
D28B  20 F1 F7	 JSR abs			A:EF X:33 Y:81 P:E4 SP:FB - 
F7F1  38 B8 A9	 SEC impl			A:EF X:33 Y:81 P:E4 SP:F9 - 
F7F2  B8 A9 F8	 CLV impl			A:EF X:33 Y:81 P:E5 SP:F9 - 
F7F3  A9 F8 60	 LDA #			A:EF X:33 Y:81 P:A5 SP:F9 - 
F7F5  60 90 09	 RTS impl			A:F8 X:33 Y:81 P:A5 SP:F9 - 
D28E  25 78 20	 AND zpg			A:F8 X:33 Y:81 P:A5 SP:FB - 
D290  20 F6 F7	 JSR abs			A:E8 X:33 Y:81 P:A5 SP:FB - 
F7F6  90 09 10	 BCC rel			A:E8 X:33 Y:81 P:A5 SP:F9 - 
F7F8  10 07 C9	 BPL rel			A:E8 X:33 Y:81 P:A5 SP:F9 - 
F7FA  C9 E8 D0	 CMP #			A:E8 X:33 Y:81 P:A5 SP:F9 - 
F7FC  D0 03 70	 BNE rel			A:E8 X:33 Y:81 P:27 SP:F9 - 
F7FE  70 01 60	 BVS rel			A:E8 X:33 Y:81 P:27 SP:F9 - 
F800  60 84 00	 RTS impl			A:E8 X:33 Y:81 P:27 SP:F9 - 
D293  C8 A9 AA	 INY impl			A:E8 X:33 Y:81 P:27 SP:FB - 
D294  A9 AA 85	 LDA #			A:E8 X:33 Y:82 P:A5 SP:FB - 
D296  85 78 20	 STA zpg			A:AA X:33 Y:82 P:A5 SP:FB - 
D298  20 04 F8	 JSR abs			A:AA X:33 Y:82 P:A5 SP:FB - 
F804  18 24 01	 CLC impl			A:AA X:33 Y:82 P:A5 SP:F9 - 
F805  24 01 A9	 BIT zpg			A:AA X:33 Y:82 P:A4 SP:F9 - 
F807  A9 5F 60	 LDA #			A:AA X:33 Y:82 P:E4 SP:F9 - 
F809  60 B0 09	 RTS impl			A:5F X:33 Y:82 P:64 SP:F9 - 
D29B  45 78 20	 EOR zpg			A:5F X:33 Y:82 P:64 SP:FB - 
D29D  20 0A F8	 JSR abs			A:F5 X:33 Y:82 P:E4 SP:FB - 
F80A  B0 09 10	 BCS rel			A:F5 X:33 Y:82 P:E4 SP:F9 - 
F80C  10 07 C9	 BPL rel			A:F5 X:33 Y:82 P:E4 SP:F9 - 
F80E  C9 F5 D0	 CMP #			A:F5 X:33 Y:82 P:E4 SP:F9 - 
F810  D0 03 50	 BNE rel			A:F5 X:33 Y:82 P:67 SP:F9 - 
F812  50 01 60	 BVC rel			A:F5 X:33 Y:82 P:67 SP:F9 - 
F814  60 84 00	 RTS impl			A:F5 X:33 Y:82 P:67 SP:F9 - 
D2A0  C8 A9 70	 INY impl			A:F5 X:33 Y:82 P:67 SP:FB - 
D2A1  A9 70 85	 LDA #			A:F5 X:33 Y:83 P:E5 SP:FB - 
D2A3  85 78 20	 STA zpg			A:70 X:33 Y:83 P:65 SP:FB - 
D2A5  20 18 F8	 JSR abs			A:70 X:33 Y:83 P:65 SP:FB - 
F818  38 B8 A9	 SEC impl			A:70 X:33 Y:83 P:65 SP:F9 - 
F819  B8 A9 70	 CLV impl			A:70 X:33 Y:83 P:65 SP:F9 - 
F81A  A9 70 60	 LDA #			A:70 X:33 Y:83 P:25 SP:F9 - 
F81C  60 D0 07	 RTS impl			A:70 X:33 Y:83 P:25 SP:F9 - 
D2A8  45 78 20	 EOR zpg			A:70 X:33 Y:83 P:25 SP:FB - 
D2AA  20 1D F8	 JSR abs			A:00 X:33 Y:83 P:27 SP:FB - 
F81D  D0 07 70	 BNE rel			A:00 X:33 Y:83 P:27 SP:F9 - 
F81F  70 05 90	 BVS rel			A:00 X:33 Y:83 P:27 SP:F9 - 
F821  90 03 30	 BCC rel			A:00 X:33 Y:83 P:27 SP:F9 - 
F823  30 01 60	 BMI rel			A:00 X:33 Y:83 P:27 SP:F9 - 
F825  60 84 00	 RTS impl			A:00 X:33 Y:83 P:27 SP:F9 - 
D2AD  C8 A9 69	 INY impl			A:00 X:33 Y:83 P:27 SP:FB - 
D2AE  A9 69 85	 LDA #			A:00 X:33 Y:84 P:A5 SP:FB - 
D2B0  85 78 20	 STA zpg			A:69 X:33 Y:84 P:25 SP:FB - 
D2B2  20 29 F8	 JSR abs			A:69 X:33 Y:84 P:25 SP:FB - 
F829  18 24 01	 CLC impl			A:69 X:33 Y:84 P:25 SP:F9 - 
F82A  24 01 A9	 BIT zpg			A:69 X:33 Y:84 P:24 SP:F9 - 
F82C  A9 00 60	 LDA #			A:69 X:33 Y:84 P:E4 SP:F9 - 
F82E  60 30 09	 RTS impl			A:00 X:33 Y:84 P:66 SP:F9 - 
D2B5  65 78 20	 ADC zpg			A:00 X:33 Y:84 P:66 SP:FB - 
D2B7  20 2F F8	 JSR abs			A:69 X:33 Y:84 P:24 SP:FB - 
F82F  30 09 B0	 BMI rel			A:69 X:33 Y:84 P:24 SP:F9 - 
F831  B0 07 C9	 BCS rel			A:69 X:33 Y:84 P:24 SP:F9 - 
F833  C9 69 D0	 CMP #			A:69 X:33 Y:84 P:24 SP:F9 - 
F835  D0 03 70	 BNE rel			A:69 X:33 Y:84 P:27 SP:F9 - 
F837  70 01 60	 BVS rel			A:69 X:33 Y:84 P:27 SP:F9 - 
F839  60 84 00	 RTS impl			A:69 X:33 Y:84 P:27 SP:F9 - 
D2BA  C8 20 3D	 INY impl			A:69 X:33 Y:84 P:27 SP:FB - 
D2BB  20 3D F8	 JSR abs			A:69 X:33 Y:85 P:A5 SP:FB - 
F83D  38 24 01	 SEC impl			A:69 X:33 Y:85 P:A5 SP:F9 - 
F83E  24 01 A9	 BIT zpg			A:69 X:33 Y:85 P:A5 SP:F9 - 
F840  A9 00 60	 LDA #			A:69 X:33 Y:85 P:E5 SP:F9 - 
F842  60 30 09	 RTS impl			A:00 X:33 Y:85 P:67 SP:F9 - 
D2BE  65 78 20	 ADC zpg			A:00 X:33 Y:85 P:67 SP:FB - 
D2C0  20 43 F8	 JSR abs			A:6A X:33 Y:85 P:24 SP:FB - 
F843  30 09 B0	 BMI rel			A:6A X:33 Y:85 P:24 SP:F9 - 
F845  B0 07 C9	 BCS rel			A:6A X:33 Y:85 P:24 SP:F9 - 
F847  C9 6A D0	 CMP #			A:6A X:33 Y:85 P:24 SP:F9 - 
F849  D0 03 70	 BNE rel			A:6A X:33 Y:85 P:27 SP:F9 - 
F84B  70 01 60	 BVS rel			A:6A X:33 Y:85 P:27 SP:F9 - 
F84D  60 84 00	 RTS impl			A:6A X:33 Y:85 P:27 SP:F9 - 
D2C3  C8 A9 7F	 INY impl			A:6A X:33 Y:85 P:27 SP:FB - 
D2C4  A9 7F 85	 LDA #			A:6A X:33 Y:86 P:A5 SP:FB - 
D2C6  85 78 20	 STA zpg			A:7F X:33 Y:86 P:25 SP:FB - 
D2C8  20 51 F8	 JSR abs			A:7F X:33 Y:86 P:25 SP:FB - 
F851  38 B8 A9	 SEC impl			A:7F X:33 Y:86 P:25 SP:F9 - 
F852  B8 A9 7F	 CLV impl			A:7F X:33 Y:86 P:25 SP:F9 - 
F853  A9 7F 60	 LDA #			A:7F X:33 Y:86 P:25 SP:F9 - 
F855  60 10 09	 RTS impl			A:7F X:33 Y:86 P:25 SP:F9 - 
D2CB  65 78 20	 ADC zpg			A:7F X:33 Y:86 P:25 SP:FB - 
D2CD  20 56 F8	 JSR abs			A:FF X:33 Y:86 P:E4 SP:FB - 
F856  10 09 B0	 BPL rel			A:FF X:33 Y:86 P:E4 SP:F9 - 
F858  B0 07 C9	 BCS rel			A:FF X:33 Y:86 P:E4 SP:F9 - 
F85A  C9 FF D0	 CMP #			A:FF X:33 Y:86 P:E4 SP:F9 - 
F85C  D0 03 50	 BNE rel			A:FF X:33 Y:86 P:67 SP:F9 - 
F85E  50 01 60	 BVC rel			A:FF X:33 Y:86 P:67 SP:F9 - 
F860  60 84 00	 RTS impl			A:FF X:33 Y:86 P:67 SP:F9 - 
D2D0  C8 A9 80	 INY impl			A:FF X:33 Y:86 P:67 SP:FB - 
D2D1  A9 80 85	 LDA #			A:FF X:33 Y:87 P:E5 SP:FB - 
D2D3  85 78 20	 STA zpg			A:80 X:33 Y:87 P:E5 SP:FB - 
D2D5  20 64 F8	 JSR abs			A:80 X:33 Y:87 P:E5 SP:FB - 
F864  18 24 01	 CLC impl			A:80 X:33 Y:87 P:E5 SP:F9 - 
F865  24 01 A9	 BIT zpg			A:80 X:33 Y:87 P:E4 SP:F9 - 
F867  A9 7F 60	 LDA #			A:80 X:33 Y:87 P:E4 SP:F9 - 
F869  60 10 09	 RTS impl			A:7F X:33 Y:87 P:64 SP:F9 - 
D2D8  65 78 20	 ADC zpg			A:7F X:33 Y:87 P:64 SP:FB - 
D2DA  20 6A F8	 JSR abs			A:FF X:33 Y:87 P:A4 SP:FB - 
F86A  10 09 B0	 BPL rel			A:FF X:33 Y:87 P:A4 SP:F9 - 
F86C  B0 07 C9	 BCS rel			A:FF X:33 Y:87 P:A4 SP:F9 - 
F86E  C9 FF D0	 CMP #			A:FF X:33 Y:87 P:A4 SP:F9 - 
F870  D0 03 70	 BNE rel			A:FF X:33 Y:87 P:27 SP:F9 - 
F872  70 01 60	 BVS rel			A:FF X:33 Y:87 P:27 SP:F9 - 
F874  60 84 00	 RTS impl			A:FF X:33 Y:87 P:27 SP:F9 - 
D2DD  C8 20 78	 INY impl			A:FF X:33 Y:87 P:27 SP:FB - 
D2DE  20 78 F8	 JSR abs			A:FF X:33 Y:88 P:A5 SP:FB - 
F878  38 B8 A9	 SEC impl			A:FF X:33 Y:88 P:A5 SP:F9 - 
F879  B8 A9 7F	 CLV impl			A:FF X:33 Y:88 P:A5 SP:F9 - 
F87A  A9 7F 60	 LDA #			A:FF X:33 Y:88 P:A5 SP:F9 - 
F87C  60 D0 07	 RTS impl			A:7F X:33 Y:88 P:25 SP:F9 - 
D2E1  65 78 20	 ADC zpg			A:7F X:33 Y:88 P:25 SP:FB - 
D2E3  20 7D F8	 JSR abs			A:00 X:33 Y:88 P:27 SP:FB - 
F87D  D0 07 30	 BNE rel			A:00 X:33 Y:88 P:27 SP:F9 - 
F87F  30 05 70	 BMI rel			A:00 X:33 Y:88 P:27 SP:F9 - 
F881  70 03 90	 BVS rel			A:00 X:33 Y:88 P:27 SP:F9 - 
F883  90 01 60	 BCC rel			A:00 X:33 Y:88 P:27 SP:F9 - 
F885  60 84 00	 RTS impl			A:00 X:33 Y:88 P:27 SP:F9 - 
D2E6  C8 A9 40	 INY impl			A:00 X:33 Y:88 P:27 SP:FB - 
D2E7  A9 40 85	 LDA #			A:00 X:33 Y:89 P:A5 SP:FB - 
D2E9  85 78 20	 STA zpg			A:40 X:33 Y:89 P:25 SP:FB - 
D2EB  20 89 F8	 JSR abs			A:40 X:33 Y:89 P:25 SP:FB - 
F889  24 01 A9	 BIT zpg			A:40 X:33 Y:89 P:25 SP:F9 - 
F88B  A9 40 60	 LDA #			A:40 X:33 Y:89 P:E5 SP:F9 - 
F88D  60 30 07	 RTS impl			A:40 X:33 Y:89 P:65 SP:F9 - 
D2EE  C5 78 20	 CMP zpg			A:40 X:33 Y:89 P:65 SP:FB - 
D2F0  20 8E F8	 JSR abs			A:40 X:33 Y:89 P:67 SP:FB - 
F88E  30 07 90	 BMI rel			A:40 X:33 Y:89 P:67 SP:F9 - 
F890  90 05 D0	 BCC rel			A:40 X:33 Y:89 P:67 SP:F9 - 
F892  D0 03 50	 BNE rel			A:40 X:33 Y:89 P:67 SP:F9 - 
F894  50 01 60	 BVC rel			A:40 X:33 Y:89 P:67 SP:F9 - 
F896  60 84 00	 RTS impl			A:40 X:33 Y:89 P:67 SP:F9 - 
D2F3  C8 48 A9	 INY impl			A:40 X:33 Y:89 P:67 SP:FB - 
D2F4  48 A9 3F	 PHA impl			A:40 X:33 Y:8A P:E5 SP:FB - 
D2F5  A9 3F 85	 LDA #			A:40 X:33 Y:8A P:E5 SP:FA - 
D2F7  85 78 68	 STA zpg			A:3F X:33 Y:8A P:65 SP:FA - 
D2F9  68 20 9A	 PLA impl			A:3F X:33 Y:8A P:65 SP:FA - 
D2FA  20 9A F8	 JSR abs			A:40 X:33 Y:8A P:65 SP:FB - 
F89A  B8 60 F0	 CLV impl			A:40 X:33 Y:8A P:65 SP:F9 - 
F89B  60 F0 07	 RTS impl			A:40 X:33 Y:8A P:25 SP:F9 - 
D2FD  C5 78 20	 CMP zpg			A:40 X:33 Y:8A P:25 SP:FB - 
D2FF  20 9C F8	 JSR abs			A:40 X:33 Y:8A P:25 SP:FB - 
F89C  F0 07 30	 BEQ rel			A:40 X:33 Y:8A P:25 SP:F9 - 
F89E  30 05 90	 BMI rel			A:40 X:33 Y:8A P:25 SP:F9 - 
F8A0  90 03 70	 BCC rel			A:40 X:33 Y:8A P:25 SP:F9 - 
F8A2  70 01 60	 BVS rel			A:40 X:33 Y:8A P:25 SP:F9 - 
F8A4  60 84 00	 RTS impl			A:40 X:33 Y:8A P:25 SP:F9 - 
D302  C8 48 A9	 INY impl			A:40 X:33 Y:8A P:25 SP:FB - 
D303  48 A9 41	 PHA impl			A:40 X:33 Y:8B P:A5 SP:FB - 
D304  A9 41 85	 LDA #			A:40 X:33 Y:8B P:A5 SP:FA - 
D306  85 78 68	 STA zpg			A:41 X:33 Y:8B P:25 SP:FA - 
D308  68 C5 78	 PLA impl			A:41 X:33 Y:8B P:25 SP:FA - 
D309  C5 78 20	 CMP zpg			A:40 X:33 Y:8B P:25 SP:FB - 
D30B  20 A8 F8	 JSR abs			A:40 X:33 Y:8B P:A4 SP:FB - 
F8A8  F0 05 10	 BEQ rel			A:40 X:33 Y:8B P:A4 SP:F9 - 
F8AA  10 03 10	 BPL rel			A:40 X:33 Y:8B P:A4 SP:F9 - 
F8AC  10 01 60	 BPL rel			A:40 X:33 Y:8B P:A4 SP:F9 - 
F8AE  60 84 00	 RTS impl			A:40 X:33 Y:8B P:A4 SP:F9 - 
D30E  C8 48 A9	 INY impl			A:40 X:33 Y:8B P:A4 SP:FB - 
D30F  48 A9 00	 PHA impl			A:40 X:33 Y:8C P:A4 SP:FB - 
D310  A9 00 85	 LDA #			A:40 X:33 Y:8C P:A4 SP:FA - 
D312  85 78 68	 STA zpg			A:00 X:33 Y:8C P:26 SP:FA - 
D314  68 20 B2	 PLA impl			A:00 X:33 Y:8C P:26 SP:FA - 
D315  20 B2 F8	 JSR abs			A:40 X:33 Y:8C P:24 SP:FB - 
F8B2  A9 80 60	 LDA #			A:40 X:33 Y:8C P:24 SP:F9 - 
F8B4  60 F0 05	 RTS impl			A:80 X:33 Y:8C P:A4 SP:F9 - 
D318  C5 78 20	 CMP zpg			A:80 X:33 Y:8C P:A4 SP:FB - 
D31A  20 B5 F8	 JSR abs			A:80 X:33 Y:8C P:A5 SP:FB - 
F8B5  F0 05 10	 BEQ rel			A:80 X:33 Y:8C P:A5 SP:F9 - 
F8B7  10 03 90	 BPL rel			A:80 X:33 Y:8C P:A5 SP:F9 - 
F8B9  90 01 60	 BCC rel			A:80 X:33 Y:8C P:A5 SP:F9 - 
F8BB  60 84 00	 RTS impl			A:80 X:33 Y:8C P:A5 SP:F9 - 
D31D  C8 48 A9	 INY impl			A:80 X:33 Y:8C P:A5 SP:FB - 
D31E  48 A9 80	 PHA impl			A:80 X:33 Y:8D P:A5 SP:FB - 
D31F  A9 80 85	 LDA #			A:80 X:33 Y:8D P:A5 SP:FA - 
D321  85 78 68	 STA zpg			A:80 X:33 Y:8D P:A5 SP:FA - 
D323  68 C5 78	 PLA impl			A:80 X:33 Y:8D P:A5 SP:FA - 
D324  C5 78 20	 CMP zpg			A:80 X:33 Y:8D P:A5 SP:FB - 
D326  20 BF F8	 JSR abs			A:80 X:33 Y:8D P:27 SP:FB - 
F8BF  D0 05 30	 BNE rel			A:80 X:33 Y:8D P:27 SP:F9 - 
F8C1  30 03 90	 BMI rel			A:80 X:33 Y:8D P:27 SP:F9 - 
F8C3  90 01 60	 BCC rel			A:80 X:33 Y:8D P:27 SP:F9 - 
F8C5  60 84 00	 RTS impl			A:80 X:33 Y:8D P:27 SP:F9 - 
D329  C8 48 A9	 INY impl			A:80 X:33 Y:8D P:27 SP:FB - 
D32A  48 A9 81	 PHA impl			A:80 X:33 Y:8E P:A5 SP:FB - 
D32B  A9 81 85	 LDA #			A:80 X:33 Y:8E P:A5 SP:FA - 
D32D  85 78 68	 STA zpg			A:81 X:33 Y:8E P:A5 SP:FA - 
D32F  68 C5 78	 PLA impl			A:81 X:33 Y:8E P:A5 SP:FA - 
D330  C5 78 20	 CMP zpg			A:80 X:33 Y:8E P:A5 SP:FB - 
D332  20 C9 F8	 JSR abs			A:80 X:33 Y:8E P:A4 SP:FB - 
F8C9  B0 05 F0	 BCS rel			A:80 X:33 Y:8E P:A4 SP:F9 - 
F8CB  F0 03 10	 BEQ rel			A:80 X:33 Y:8E P:A4 SP:F9 - 
F8CD  10 01 60	 BPL rel			A:80 X:33 Y:8E P:A4 SP:F9 - 
F8CF  60 84 00	 RTS impl			A:80 X:33 Y:8E P:A4 SP:F9 - 
D335  C8 48 A9	 INY impl			A:80 X:33 Y:8E P:A4 SP:FB - 
D336  48 A9 7F	 PHA impl			A:80 X:33 Y:8F P:A4 SP:FB - 
D337  A9 7F 85	 LDA #			A:80 X:33 Y:8F P:A4 SP:FA - 
D339  85 78 68	 STA zpg			A:7F X:33 Y:8F P:24 SP:FA - 
D33B  68 C5 78	 PLA impl			A:7F X:33 Y:8F P:24 SP:FA - 
D33C  C5 78 20	 CMP zpg			A:80 X:33 Y:8F P:A4 SP:FB - 
D33E  20 D3 F8	 JSR abs			A:80 X:33 Y:8F P:25 SP:FB - 
F8D3  90 05 F0	 BCC rel			A:80 X:33 Y:8F P:25 SP:F9 - 
F8D5  F0 03 30	 BEQ rel			A:80 X:33 Y:8F P:25 SP:F9 - 
F8D7  30 01 60	 BMI rel			A:80 X:33 Y:8F P:25 SP:F9 - 
F8D9  60 84 00	 RTS impl			A:80 X:33 Y:8F P:25 SP:F9 - 
D341  C8 A9 40	 INY impl			A:80 X:33 Y:8F P:25 SP:FB - 
D342  A9 40 85	 LDA #			A:80 X:33 Y:90 P:A5 SP:FB - 
D344  85 78 20	 STA zpg			A:40 X:33 Y:90 P:25 SP:FB - 
D346  20 31 F9	 JSR abs			A:40 X:33 Y:90 P:25 SP:FB - 
F931  24 01 A9	 BIT zpg			A:40 X:33 Y:90 P:25 SP:F9 - 
F933  A9 40 38	 LDA #			A:40 X:33 Y:90 P:E5 SP:F9 - 
F935  38 60 30	 SEC impl			A:40 X:33 Y:90 P:65 SP:F9 - 
F936  60 30 0B	 RTS impl			A:40 X:33 Y:90 P:65 SP:F9 - 
D349  E5 78 20	 SBC zpg			A:40 X:33 Y:90 P:65 SP:FB - 
D34B  20 37 F9	 JSR abs			A:00 X:33 Y:90 P:27 SP:FB - 
F937  30 0B 90	 BMI rel			A:00 X:33 Y:90 P:27 SP:F9 - 
F939  90 09 D0	 BCC rel			A:00 X:33 Y:90 P:27 SP:F9 - 
F93B  D0 07 70	 BNE rel			A:00 X:33 Y:90 P:27 SP:F9 - 
F93D  70 05 C9	 BVS rel			A:00 X:33 Y:90 P:27 SP:F9 - 
F93F  C9 00 D0	 CMP #			A:00 X:33 Y:90 P:27 SP:F9 - 
F941  D0 01 60	 BNE rel			A:00 X:33 Y:90 P:27 SP:F9 - 
F943  60 84 00	 RTS impl			A:00 X:33 Y:90 P:27 SP:F9 - 
D34E  C8 A9 3F	 INY impl			A:00 X:33 Y:90 P:27 SP:FB - 
D34F  A9 3F 85	 LDA #			A:00 X:33 Y:91 P:A5 SP:FB - 
D351  85 78 20	 STA zpg			A:3F X:33 Y:91 P:25 SP:FB - 
D353  20 47 F9	 JSR abs			A:3F X:33 Y:91 P:25 SP:FB - 
F947  B8 38 A9	 CLV impl			A:3F X:33 Y:91 P:25 SP:F9 - 
F948  38 A9 40	 SEC impl			A:3F X:33 Y:91 P:25 SP:F9 - 
F949  A9 40 60	 LDA #			A:3F X:33 Y:91 P:25 SP:F9 - 
F94B  60 F0 0B	 RTS impl			A:40 X:33 Y:91 P:25 SP:F9 - 
D356  E5 78 20	 SBC zpg			A:40 X:33 Y:91 P:25 SP:FB - 
D358  20 4C F9	 JSR abs			A:01 X:33 Y:91 P:25 SP:FB - 
F94C  F0 0B 30	 BEQ rel			A:01 X:33 Y:91 P:25 SP:F9 - 
F94E  30 09 90	 BMI rel			A:01 X:33 Y:91 P:25 SP:F9 - 
F950  90 07 70	 BCC rel			A:01 X:33 Y:91 P:25 SP:F9 - 
F952  70 05 C9	 BVS rel			A:01 X:33 Y:91 P:25 SP:F9 - 
F954  C9 01 D0	 CMP #			A:01 X:33 Y:91 P:25 SP:F9 - 
F956  D0 01 60	 BNE rel			A:01 X:33 Y:91 P:27 SP:F9 - 
F958  60 84 00	 RTS impl			A:01 X:33 Y:91 P:27 SP:F9 - 
D35B  C8 A9 41	 INY impl			A:01 X:33 Y:91 P:27 SP:FB - 
D35C  A9 41 85	 LDA #			A:01 X:33 Y:92 P:A5 SP:FB - 
D35E  85 78 20	 STA zpg			A:41 X:33 Y:92 P:25 SP:FB - 
D360  20 5C F9	 JSR abs			A:41 X:33 Y:92 P:25 SP:FB - 
F95C  A9 40 38	 LDA #			A:41 X:33 Y:92 P:25 SP:F9 - 
F95E  38 24 01	 SEC impl			A:40 X:33 Y:92 P:25 SP:F9 - 
F95F  24 01 60	 BIT zpg			A:40 X:33 Y:92 P:25 SP:F9 - 
F961  60 B0 0B	 RTS impl			A:40 X:33 Y:92 P:E5 SP:F9 - 
D363  E5 78 20	 SBC zpg			A:40 X:33 Y:92 P:E5 SP:FB - 
D365  20 62 F9	 JSR abs			A:FF X:33 Y:92 P:A4 SP:FB - 
F962  B0 0B F0	 BCS rel			A:FF X:33 Y:92 P:A4 SP:F9 - 
F964  F0 09 10	 BEQ rel			A:FF X:33 Y:92 P:A4 SP:F9 - 
F966  10 07 70	 BPL rel			A:FF X:33 Y:92 P:A4 SP:F9 - 
F968  70 05 C9	 BVS rel			A:FF X:33 Y:92 P:A4 SP:F9 - 
F96A  C9 FF D0	 CMP #			A:FF X:33 Y:92 P:A4 SP:F9 - 
F96C  D0 01 60	 BNE rel			A:FF X:33 Y:92 P:27 SP:F9 - 
F96E  60 84 00	 RTS impl			A:FF X:33 Y:92 P:27 SP:F9 - 
D368  C8 A9 00	 INY impl			A:FF X:33 Y:92 P:27 SP:FB - 
D369  A9 00 85	 LDA #			A:FF X:33 Y:93 P:A5 SP:FB - 
D36B  85 78 20	 STA zpg			A:00 X:33 Y:93 P:27 SP:FB - 
D36D  20 72 F9	 JSR abs			A:00 X:33 Y:93 P:27 SP:FB - 
F972  18 A9 80	 CLC impl			A:00 X:33 Y:93 P:27 SP:F9 - 
F973  A9 80 60	 LDA #			A:00 X:33 Y:93 P:26 SP:F9 - 
F975  60 90 05	 RTS impl			A:80 X:33 Y:93 P:A4 SP:F9 - 
D370  E5 78 20	 SBC zpg			A:80 X:33 Y:93 P:A4 SP:FB - 
D372  20 76 F9	 JSR abs			A:7F X:33 Y:93 P:65 SP:FB - 
F976  90 05 C9	 BCC rel			A:7F X:33 Y:93 P:65 SP:F9 - 
F978  C9 7F D0	 CMP #			A:7F X:33 Y:93 P:65 SP:F9 - 
F97A  D0 01 60	 BNE rel			A:7F X:33 Y:93 P:67 SP:F9 - 
F97C  60 84 00	 RTS impl			A:7F X:33 Y:93 P:67 SP:F9 - 
D375  C8 A9 7F	 INY impl			A:7F X:33 Y:93 P:67 SP:FB - 
D376  A9 7F 85	 LDA #			A:7F X:33 Y:94 P:E5 SP:FB - 
D378  85 78 20	 STA zpg			A:7F X:33 Y:94 P:65 SP:FB - 
D37A  20 80 F9	 JSR abs			A:7F X:33 Y:94 P:65 SP:FB - 
F980  38 A9 81	 SEC impl			A:7F X:33 Y:94 P:65 SP:F9 - 
F981  A9 81 60	 LDA #			A:7F X:33 Y:94 P:65 SP:F9 - 
F983  60 50 07	 RTS impl			A:81 X:33 Y:94 P:E5 SP:F9 - 
D37D  E5 78 20	 SBC zpg			A:81 X:33 Y:94 P:E5 SP:FB - 
D37F  20 84 F9	 JSR abs			A:02 X:33 Y:94 P:65 SP:FB - 
F984  50 07 90	 BVC rel			A:02 X:33 Y:94 P:65 SP:F9 - 
F986  90 05 C9	 BCC rel			A:02 X:33 Y:94 P:65 SP:F9 - 
F988  C9 02 D0	 CMP #			A:02 X:33 Y:94 P:65 SP:F9 - 
F98A  D0 01 60	 BNE rel			A:02 X:33 Y:94 P:67 SP:F9 - 
F98C  60 84 00	 RTS impl			A:02 X:33 Y:94 P:67 SP:F9 - 
D382  C8 A9 40	 INY impl			A:02 X:33 Y:94 P:67 SP:FB - 
D383  A9 40 85	 LDA #			A:02 X:33 Y:95 P:E5 SP:FB - 
D385  85 78 20	 STA zpg			A:40 X:33 Y:95 P:65 SP:FB - 
D387  20 89 F8	 JSR abs			A:40 X:33 Y:95 P:65 SP:FB - 
F889  24 01 A9	 BIT zpg			A:40 X:33 Y:95 P:65 SP:F9 - 
F88B  A9 40 60	 LDA #			A:40 X:33 Y:95 P:E5 SP:F9 - 
F88D  60 30 07	 RTS impl			A:40 X:33 Y:95 P:65 SP:F9 - 
D38A  AA E4 78	 TAX impl			A:40 X:33 Y:95 P:65 SP:FB - 
D38B  E4 78 20	 CPX zpg			A:40 X:40 Y:95 P:65 SP:FB - 
D38D  20 8E F8	 JSR abs			A:40 X:40 Y:95 P:67 SP:FB - 
F88E  30 07 90	 BMI rel			A:40 X:40 Y:95 P:67 SP:F9 - 
F890  90 05 D0	 BCC rel			A:40 X:40 Y:95 P:67 SP:F9 - 
F892  D0 03 50	 BNE rel			A:40 X:40 Y:95 P:67 SP:F9 - 
F894  50 01 60	 BVC rel			A:40 X:40 Y:95 P:67 SP:F9 - 
F896  60 84 00	 RTS impl			A:40 X:40 Y:95 P:67 SP:F9 - 
D390  C8 A9 3F	 INY impl			A:40 X:40 Y:95 P:67 SP:FB - 
D391  A9 3F 85	 LDA #			A:40 X:40 Y:96 P:E5 SP:FB - 
D393  85 78 20	 STA zpg			A:3F X:40 Y:96 P:65 SP:FB - 
D395  20 9A F8	 JSR abs			A:3F X:40 Y:96 P:65 SP:FB - 
F89A  B8 60 F0	 CLV impl			A:3F X:40 Y:96 P:65 SP:F9 - 
F89B  60 F0 07	 RTS impl			A:3F X:40 Y:96 P:25 SP:F9 - 
D398  E4 78 20	 CPX zpg			A:3F X:40 Y:96 P:25 SP:FB - 
D39A  20 9C F8	 JSR abs			A:3F X:40 Y:96 P:25 SP:FB - 
F89C  F0 07 30	 BEQ rel			A:3F X:40 Y:96 P:25 SP:F9 - 
F89E  30 05 90	 BMI rel			A:3F X:40 Y:96 P:25 SP:F9 - 
F8A0  90 03 70	 BCC rel			A:3F X:40 Y:96 P:25 SP:F9 - 
F8A2  70 01 60	 BVS rel			A:3F X:40 Y:96 P:25 SP:F9 - 
F8A4  60 84 00	 RTS impl			A:3F X:40 Y:96 P:25 SP:F9 - 
D39D  C8 A9 41	 INY impl			A:3F X:40 Y:96 P:25 SP:FB - 
D39E  A9 41 85	 LDA #			A:3F X:40 Y:97 P:A5 SP:FB - 
D3A0  85 78 E4	 STA zpg			A:41 X:40 Y:97 P:25 SP:FB - 
D3A2  E4 78 20	 CPX zpg			A:41 X:40 Y:97 P:25 SP:FB - 
D3A4  20 A8 F8	 JSR abs			A:41 X:40 Y:97 P:A4 SP:FB - 
F8A8  F0 05 10	 BEQ rel			A:41 X:40 Y:97 P:A4 SP:F9 - 
F8AA  10 03 10	 BPL rel			A:41 X:40 Y:97 P:A4 SP:F9 - 
F8AC  10 01 60	 BPL rel			A:41 X:40 Y:97 P:A4 SP:F9 - 
F8AE  60 84 00	 RTS impl			A:41 X:40 Y:97 P:A4 SP:F9 - 
D3A7  C8 A9 00	 INY impl			A:41 X:40 Y:97 P:A4 SP:FB - 
D3A8  A9 00 85	 LDA #			A:41 X:40 Y:98 P:A4 SP:FB - 
D3AA  85 78 20	 STA zpg			A:00 X:40 Y:98 P:26 SP:FB - 
D3AC  20 B2 F8	 JSR abs			A:00 X:40 Y:98 P:26 SP:FB - 
F8B2  A9 80 60	 LDA #			A:00 X:40 Y:98 P:26 SP:F9 - 
F8B4  60 F0 05	 RTS impl			A:80 X:40 Y:98 P:A4 SP:F9 - 
D3AF  AA E4 78	 TAX impl			A:80 X:40 Y:98 P:A4 SP:FB - 
D3B0  E4 78 20	 CPX zpg			A:80 X:80 Y:98 P:A4 SP:FB - 
D3B2  20 B5 F8	 JSR abs			A:80 X:80 Y:98 P:A5 SP:FB - 
F8B5  F0 05 10	 BEQ rel			A:80 X:80 Y:98 P:A5 SP:F9 - 
F8B7  10 03 90	 BPL rel			A:80 X:80 Y:98 P:A5 SP:F9 - 
F8B9  90 01 60	 BCC rel			A:80 X:80 Y:98 P:A5 SP:F9 - 
F8BB  60 84 00	 RTS impl			A:80 X:80 Y:98 P:A5 SP:F9 - 
D3B5  C8 A9 80	 INY impl			A:80 X:80 Y:98 P:A5 SP:FB - 
D3B6  A9 80 85	 LDA #			A:80 X:80 Y:99 P:A5 SP:FB - 
D3B8  85 78 E4	 STA zpg			A:80 X:80 Y:99 P:A5 SP:FB - 
D3BA  E4 78 20	 CPX zpg			A:80 X:80 Y:99 P:A5 SP:FB - 
D3BC  20 BF F8	 JSR abs			A:80 X:80 Y:99 P:27 SP:FB - 
F8BF  D0 05 30	 BNE rel			A:80 X:80 Y:99 P:27 SP:F9 - 
F8C1  30 03 90	 BMI rel			A:80 X:80 Y:99 P:27 SP:F9 - 
F8C3  90 01 60	 BCC rel			A:80 X:80 Y:99 P:27 SP:F9 - 
F8C5  60 84 00	 RTS impl			A:80 X:80 Y:99 P:27 SP:F9 - 
D3BF  C8 A9 81	 INY impl			A:80 X:80 Y:99 P:27 SP:FB - 
D3C0  A9 81 85	 LDA #			A:80 X:80 Y:9A P:A5 SP:FB - 
D3C2  85 78 E4	 STA zpg			A:81 X:80 Y:9A P:A5 SP:FB - 
D3C4  E4 78 20	 CPX zpg			A:81 X:80 Y:9A P:A5 SP:FB - 
D3C6  20 C9 F8	 JSR abs			A:81 X:80 Y:9A P:A4 SP:FB - 
F8C9  B0 05 F0	 BCS rel			A:81 X:80 Y:9A P:A4 SP:F9 - 
F8CB  F0 03 10	 BEQ rel			A:81 X:80 Y:9A P:A4 SP:F9 - 
F8CD  10 01 60	 BPL rel			A:81 X:80 Y:9A P:A4 SP:F9 - 
F8CF  60 84 00	 RTS impl			A:81 X:80 Y:9A P:A4 SP:F9 - 
D3C9  C8 A9 7F	 INY impl			A:81 X:80 Y:9A P:A4 SP:FB - 
D3CA  A9 7F 85	 LDA #			A:81 X:80 Y:9B P:A4 SP:FB - 
D3CC  85 78 E4	 STA zpg			A:7F X:80 Y:9B P:24 SP:FB - 
D3CE  E4 78 20	 CPX zpg			A:7F X:80 Y:9B P:24 SP:FB - 
D3D0  20 D3 F8	 JSR abs			A:7F X:80 Y:9B P:25 SP:FB - 
F8D3  90 05 F0	 BCC rel			A:7F X:80 Y:9B P:25 SP:F9 - 
F8D5  F0 03 30	 BEQ rel			A:7F X:80 Y:9B P:25 SP:F9 - 
F8D7  30 01 60	 BMI rel			A:7F X:80 Y:9B P:25 SP:F9 - 
F8D9  60 84 00	 RTS impl			A:7F X:80 Y:9B P:25 SP:F9 - 
D3D3  C8 98 AA	 INY impl			A:7F X:80 Y:9B P:25 SP:FB - 
D3D4  98 AA A9	 TYA impl			A:7F X:80 Y:9C P:A5 SP:FB - 
D3D5  AA A9 40	 TAX impl			A:9C X:80 Y:9C P:A5 SP:FB - 
D3D6  A9 40 85	 LDA #			A:9C X:9C Y:9C P:A5 SP:FB - 
D3D8  85 78 20	 STA zpg			A:40 X:9C Y:9C P:25 SP:FB - 
D3DA  20 DD F8	 JSR abs			A:40 X:9C Y:9C P:25 SP:FB - 
F8DD  24 01 A0	 BIT zpg			A:40 X:9C Y:9C P:25 SP:F9 - 
F8DF  A0 40 60	 LDY #			A:40 X:9C Y:9C P:E5 SP:F9 - 
F8E1  60 30 07	 RTS impl			A:40 X:9C Y:40 P:65 SP:F9 - 
D3DD  C4 78 20	 CPY zpg			A:40 X:9C Y:40 P:65 SP:FB - 
D3DF  20 E2 F8	 JSR abs			A:40 X:9C Y:40 P:67 SP:FB - 
F8E2  30 07 90	 BMI rel			A:40 X:9C Y:40 P:67 SP:F9 - 
F8E4  90 05 D0	 BCC rel			A:40 X:9C Y:40 P:67 SP:F9 - 
F8E6  D0 03 50	 BNE rel			A:40 X:9C Y:40 P:67 SP:F9 - 
F8E8  50 01 60	 BVC rel			A:40 X:9C Y:40 P:67 SP:F9 - 
F8EA  60 86 00	 RTS impl			A:40 X:9C Y:40 P:67 SP:F9 - 
D3E2  E8 A9 3F	 INX impl			A:40 X:9C Y:40 P:67 SP:FB - 
D3E3  A9 3F 85	 LDA #			A:40 X:9D Y:40 P:E5 SP:FB - 
D3E5  85 78 20	 STA zpg			A:3F X:9D Y:40 P:65 SP:FB - 
D3E7  20 EE F8	 JSR abs			A:3F X:9D Y:40 P:65 SP:FB - 
F8EE  B8 60 F0	 CLV impl			A:3F X:9D Y:40 P:65 SP:F9 - 
F8EF  60 F0 07	 RTS impl			A:3F X:9D Y:40 P:25 SP:F9 - 
D3EA  C4 78 20	 CPY zpg			A:3F X:9D Y:40 P:25 SP:FB - 
D3EC  20 F0 F8	 JSR abs			A:3F X:9D Y:40 P:25 SP:FB - 
F8F0  F0 07 30	 BEQ rel			A:3F X:9D Y:40 P:25 SP:F9 - 
F8F2  30 05 90	 BMI rel			A:3F X:9D Y:40 P:25 SP:F9 - 
F8F4  90 03 70	 BCC rel			A:3F X:9D Y:40 P:25 SP:F9 - 
F8F6  70 01 60	 BVS rel			A:3F X:9D Y:40 P:25 SP:F9 - 
F8F8  60 86 00	 RTS impl			A:3F X:9D Y:40 P:25 SP:F9 - 
D3EF  E8 A9 41	 INX impl			A:3F X:9D Y:40 P:25 SP:FB - 
D3F0  A9 41 85	 LDA #			A:3F X:9E Y:40 P:A5 SP:FB - 
D3F2  85 78 C4	 STA zpg			A:41 X:9E Y:40 P:25 SP:FB - 
D3F4  C4 78 20	 CPY zpg			A:41 X:9E Y:40 P:25 SP:FB - 
D3F6  20 FC F8	 JSR abs			A:41 X:9E Y:40 P:A4 SP:FB - 
F8FC  F0 05 10	 BEQ rel			A:41 X:9E Y:40 P:A4 SP:F9 - 
F8FE  10 03 10	 BPL rel			A:41 X:9E Y:40 P:A4 SP:F9 - 
F900  10 01 60	 BPL rel			A:41 X:9E Y:40 P:A4 SP:F9 - 
F902  60 86 00	 RTS impl			A:41 X:9E Y:40 P:A4 SP:F9 - 
D3F9  E8 A9 00	 INX impl			A:41 X:9E Y:40 P:A4 SP:FB - 
D3FA  A9 00 85	 LDA #			A:41 X:9F Y:40 P:A4 SP:FB - 
D3FC  85 78 20	 STA zpg			A:00 X:9F Y:40 P:26 SP:FB - 
D3FE  20 06 F9	 JSR abs			A:00 X:9F Y:40 P:26 SP:FB - 
F906  A0 80 60	 LDY #			A:00 X:9F Y:40 P:26 SP:F9 - 
F908  60 F0 05	 RTS impl			A:00 X:9F Y:80 P:A4 SP:F9 - 
D401  C4 78 20	 CPY zpg			A:00 X:9F Y:80 P:A4 SP:FB - 
D403  20 09 F9	 JSR abs			A:00 X:9F Y:80 P:A5 SP:FB - 
F909  F0 05 10	 BEQ rel			A:00 X:9F Y:80 P:A5 SP:F9 - 
F90B  10 03 90	 BPL rel			A:00 X:9F Y:80 P:A5 SP:F9 - 
F90D  90 01 60	 BCC rel			A:00 X:9F Y:80 P:A5 SP:F9 - 
F90F  60 86 00	 RTS impl			A:00 X:9F Y:80 P:A5 SP:F9 - 
D406  E8 A9 80	 INX impl			A:00 X:9F Y:80 P:A5 SP:FB - 
D407  A9 80 85	 LDA #			A:00 X:A0 Y:80 P:A5 SP:FB - 
D409  85 78 C4	 STA zpg			A:80 X:A0 Y:80 P:A5 SP:FB - 
D40B  C4 78 20	 CPY zpg			A:80 X:A0 Y:80 P:A5 SP:FB - 
D40D  20 13 F9	 JSR abs			A:80 X:A0 Y:80 P:27 SP:FB - 
F913  D0 05 30	 BNE rel			A:80 X:A0 Y:80 P:27 SP:F9 - 
F915  30 03 90	 BMI rel			A:80 X:A0 Y:80 P:27 SP:F9 - 
F917  90 01 60	 BCC rel			A:80 X:A0 Y:80 P:27 SP:F9 - 
F919  60 86 00	 RTS impl			A:80 X:A0 Y:80 P:27 SP:F9 - 
D410  E8 A9 81	 INX impl			A:80 X:A0 Y:80 P:27 SP:FB - 
D411  A9 81 85	 LDA #			A:80 X:A1 Y:80 P:A5 SP:FB - 
D413  85 78 C4	 STA zpg			A:81 X:A1 Y:80 P:A5 SP:FB - 
D415  C4 78 20	 CPY zpg			A:81 X:A1 Y:80 P:A5 SP:FB - 
D417  20 1D F9	 JSR abs			A:81 X:A1 Y:80 P:A4 SP:FB - 
F91D  B0 05 F0	 BCS rel			A:81 X:A1 Y:80 P:A4 SP:F9 - 
F91F  F0 03 10	 BEQ rel			A:81 X:A1 Y:80 P:A4 SP:F9 - 
F921  10 01 60	 BPL rel			A:81 X:A1 Y:80 P:A4 SP:F9 - 
F923  60 86 00	 RTS impl			A:81 X:A1 Y:80 P:A4 SP:F9 - 
D41A  E8 A9 7F	 INX impl			A:81 X:A1 Y:80 P:A4 SP:FB - 
D41B  A9 7F 85	 LDA #			A:81 X:A2 Y:80 P:A4 SP:FB - 
D41D  85 78 C4	 STA zpg			A:7F X:A2 Y:80 P:24 SP:FB - 
D41F  C4 78 20	 CPY zpg			A:7F X:A2 Y:80 P:24 SP:FB - 
D421  20 27 F9	 JSR abs			A:7F X:A2 Y:80 P:25 SP:FB - 
F927  90 05 F0	 BCC rel			A:7F X:A2 Y:80 P:25 SP:F9 - 
F929  F0 03 30	 BEQ rel			A:7F X:A2 Y:80 P:25 SP:F9 - 
F92B  30 01 60	 BMI rel			A:7F X:A2 Y:80 P:25 SP:F9 - 
F92D  60 86 00	 RTS impl			A:7F X:A2 Y:80 P:25 SP:F9 - 
D424  E8 8A A8	 INX impl			A:7F X:A2 Y:80 P:25 SP:FB - 
D425  8A A8 20	 TXA impl			A:7F X:A3 Y:80 P:A5 SP:FB - 
D426  A8 20 90	 TAY impl			A:A3 X:A3 Y:80 P:A5 SP:FB - 
D427  20 90 F9	 JSR abs			A:A3 X:A3 Y:A3 P:A5 SP:FB - 
F990  A2 55 A9	 LDX #			A:A3 X:A3 Y:A3 P:A5 SP:F9 - 
F992  A9 FF 85	 LDA #			A:A3 X:55 Y:A3 P:25 SP:F9 - 
F994  85 01 EA	 STA zpg			A:FF X:55 Y:A3 P:A5 SP:F9 - 
F996  EA 24 01	 NOP impl			A:FF X:55 Y:A3 P:A5 SP:F9 - 
F997  24 01 38	 BIT zpg			A:FF X:55 Y:A3 P:A5 SP:F9 - 
F999  38 A9 01	 SEC impl			A:FF X:55 Y:A3 P:E5 SP:F9 - 
F99A  A9 01 60	 LDA #			A:FF X:55 Y:A3 P:E5 SP:F9 - 
F99C  60 90 1B	 RTS impl			A:01 X:55 Y:A3 P:65 SP:F9 - 
D42A  85 78 46	 STA zpg			A:01 X:55 Y:A3 P:65 SP:FB - 
D42C  46 78 A5	 LSR zpg			A:01 X:55 Y:A3 P:65 SP:FB - 
D42E  A5 78 20	 LDA zpg			A:01 X:55 Y:A3 P:67 SP:FB - 
D430  20 9D F9	 JSR abs			A:00 X:55 Y:A3 P:67 SP:FB - 
F99D  90 1B D0	 BCC rel			A:00 X:55 Y:A3 P:67 SP:F9 - 
F99F  D0 19 30	 BNE rel			A:00 X:55 Y:A3 P:67 SP:F9 - 
F9A1  30 17 50	 BMI rel			A:00 X:55 Y:A3 P:67 SP:F9 - 
F9A3  50 15 C9	 BVC rel			A:00 X:55 Y:A3 P:67 SP:F9 - 
F9A5  C9 00 D0	 CMP #			A:00 X:55 Y:A3 P:67 SP:F9 - 
F9A7  D0 11 B8	 BNE rel			A:00 X:55 Y:A3 P:67 SP:F9 - 
F9A9  B8 A9 AA	 CLV impl			A:00 X:55 Y:A3 P:67 SP:F9 - 
F9AA  A9 AA 60	 LDA #			A:00 X:55 Y:A3 P:27 SP:F9 - 
F9AC  60 B0 0B	 RTS impl			A:AA X:55 Y:A3 P:A5 SP:F9 - 
D433  C8 85 78	 INY impl			A:AA X:55 Y:A3 P:A5 SP:FB - 
D434  85 78 46	 STA zpg			A:AA X:55 Y:A4 P:A5 SP:FB - 
D436  46 78 A5	 LSR zpg			A:AA X:55 Y:A4 P:A5 SP:FB - 
D438  A5 78 20	 LDA zpg			A:AA X:55 Y:A4 P:24 SP:FB - 
D43A  20 AD F9	 JSR abs			A:55 X:55 Y:A4 P:24 SP:FB - 
F9AD  B0 0B F0	 BCS rel			A:55 X:55 Y:A4 P:24 SP:F9 - 
F9AF  F0 09 30	 BEQ rel			A:55 X:55 Y:A4 P:24 SP:F9 - 
F9B1  30 07 70	 BMI rel			A:55 X:55 Y:A4 P:24 SP:F9 - 
F9B3  70 05 C9	 BVS rel			A:55 X:55 Y:A4 P:24 SP:F9 - 
F9B5  C9 55 D0	 CMP #			A:55 X:55 Y:A4 P:24 SP:F9 - 
F9B7  D0 01 60	 BNE rel			A:55 X:55 Y:A4 P:27 SP:F9 - 
F9B9  60 84 00	 RTS impl			A:55 X:55 Y:A4 P:27 SP:F9 - 
D43D  C8 20 BD	 INY impl			A:55 X:55 Y:A4 P:27 SP:FB - 
D43E  20 BD F9	 JSR abs			A:55 X:55 Y:A5 P:A5 SP:FB - 
F9BD  24 01 38	 BIT zpg			A:55 X:55 Y:A5 P:A5 SP:F9 - 
F9BF  38 A9 80	 SEC impl			A:55 X:55 Y:A5 P:E5 SP:F9 - 
F9C0  A9 80 60	 LDA #			A:55 X:55 Y:A5 P:E5 SP:F9 - 
F9C2  60 90 1C	 RTS impl			A:80 X:55 Y:A5 P:E5 SP:F9 - 
D441  85 78 06	 STA zpg			A:80 X:55 Y:A5 P:E5 SP:FB - 
D443  06 78 A5	 ASL zpg			A:80 X:55 Y:A5 P:E5 SP:FB - 
D445  A5 78 20	 LDA zpg			A:80 X:55 Y:A5 P:67 SP:FB - 
D447  20 C3 F9	 JSR abs			A:00 X:55 Y:A5 P:67 SP:FB - 
F9C3  90 1C D0	 BCC rel			A:00 X:55 Y:A5 P:67 SP:F9 - 
F9C5  D0 1A 30	 BNE rel			A:00 X:55 Y:A5 P:67 SP:F9 - 
F9C7  30 18 50	 BMI rel			A:00 X:55 Y:A5 P:67 SP:F9 - 
F9C9  50 16 C9	 BVC rel			A:00 X:55 Y:A5 P:67 SP:F9 - 
F9CB  C9 00 D0	 CMP #			A:00 X:55 Y:A5 P:67 SP:F9 - 
F9CD  D0 12 B8	 BNE rel			A:00 X:55 Y:A5 P:67 SP:F9 - 
F9CF  B8 A9 55	 CLV impl			A:00 X:55 Y:A5 P:67 SP:F9 - 
F9D0  A9 55 38	 LDA #			A:00 X:55 Y:A5 P:27 SP:F9 - 
F9D2  38 60 B0	 SEC impl			A:55 X:55 Y:A5 P:25 SP:F9 - 
F9D3  60 B0 0B	 RTS impl			A:55 X:55 Y:A5 P:25 SP:F9 - 
D44A  C8 85 78	 INY impl			A:55 X:55 Y:A5 P:25 SP:FB - 
D44B  85 78 06	 STA zpg			A:55 X:55 Y:A6 P:A5 SP:FB - 
D44D  06 78 A5	 ASL zpg			A:55 X:55 Y:A6 P:A5 SP:FB - 
D44F  A5 78 20	 LDA zpg			A:55 X:55 Y:A6 P:A4 SP:FB - 
D451  20 D4 F9	 JSR abs			A:AA X:55 Y:A6 P:A4 SP:FB - 
F9D4  B0 0B F0	 BCS rel			A:AA X:55 Y:A6 P:A4 SP:F9 - 
F9D6  F0 09 10	 BEQ rel			A:AA X:55 Y:A6 P:A4 SP:F9 - 
F9D8  10 07 70	 BPL rel			A:AA X:55 Y:A6 P:A4 SP:F9 - 
F9DA  70 05 C9	 BVS rel			A:AA X:55 Y:A6 P:A4 SP:F9 - 
F9DC  C9 AA D0	 CMP #			A:AA X:55 Y:A6 P:A4 SP:F9 - 
F9DE  D0 01 60	 BNE rel			A:AA X:55 Y:A6 P:27 SP:F9 - 
F9E0  60 84 00	 RTS impl			A:AA X:55 Y:A6 P:27 SP:F9 - 
D454  C8 20 E4	 INY impl			A:AA X:55 Y:A6 P:27 SP:FB - 
D455  20 E4 F9	 JSR abs			A:AA X:55 Y:A7 P:A5 SP:FB - 
F9E4  24 01 38	 BIT zpg			A:AA X:55 Y:A7 P:A5 SP:F9 - 
F9E6  38 A9 01	 SEC impl			A:AA X:55 Y:A7 P:E5 SP:F9 - 
F9E7  A9 01 60	 LDA #			A:AA X:55 Y:A7 P:E5 SP:F9 - 
F9E9  60 90 1C	 RTS impl			A:01 X:55 Y:A7 P:65 SP:F9 - 
D458  85 78 66	 STA zpg			A:01 X:55 Y:A7 P:65 SP:FB - 
D45A  66 78 A5	 ROR zpg			A:01 X:55 Y:A7 P:65 SP:FB - 
D45C  A5 78 20	 LDA zpg			A:01 X:55 Y:A7 P:E5 SP:FB - 
D45E  20 EA F9	 JSR abs			A:80 X:55 Y:A7 P:E5 SP:FB - 
F9EA  90 1C F0	 BCC rel			A:80 X:55 Y:A7 P:E5 SP:F9 - 
F9EC  F0 1A 10	 BEQ rel			A:80 X:55 Y:A7 P:E5 SP:F9 - 
F9EE  10 18 50	 BPL rel			A:80 X:55 Y:A7 P:E5 SP:F9 - 
F9F0  50 16 C9	 BVC rel			A:80 X:55 Y:A7 P:E5 SP:F9 - 
F9F2  C9 80 D0	 CMP #			A:80 X:55 Y:A7 P:E5 SP:F9 - 
F9F4  D0 12 B8	 BNE rel			A:80 X:55 Y:A7 P:67 SP:F9 - 
F9F6  B8 18 A9	 CLV impl			A:80 X:55 Y:A7 P:67 SP:F9 - 
F9F7  18 A9 55	 CLC impl			A:80 X:55 Y:A7 P:27 SP:F9 - 
F9F8  A9 55 60	 LDA #			A:80 X:55 Y:A7 P:26 SP:F9 - 
F9FA  60 90 0B	 RTS impl			A:55 X:55 Y:A7 P:24 SP:F9 - 
D461  C8 85 78	 INY impl			A:55 X:55 Y:A7 P:24 SP:FB - 
D462  85 78 66	 STA zpg			A:55 X:55 Y:A8 P:A4 SP:FB - 
D464  66 78 A5	 ROR zpg			A:55 X:55 Y:A8 P:A4 SP:FB - 
D466  A5 78 20	 LDA zpg			A:55 X:55 Y:A8 P:25 SP:FB - 
D468  20 FB F9	 JSR abs			A:2A X:55 Y:A8 P:25 SP:FB - 
F9FB  90 0B F0	 BCC rel			A:2A X:55 Y:A8 P:25 SP:F9 - 
F9FD  F0 09 30	 BEQ rel			A:2A X:55 Y:A8 P:25 SP:F9 - 
F9FF  30 07 70	 BMI rel			A:2A X:55 Y:A8 P:25 SP:F9 - 
FA01  70 05 C9	 BVS rel			A:2A X:55 Y:A8 P:25 SP:F9 - 
FA03  C9 2A D0	 CMP #			A:2A X:55 Y:A8 P:25 SP:F9 - 
FA05  D0 01 60	 BNE rel			A:2A X:55 Y:A8 P:27 SP:F9 - 
FA07  60 84 00	 RTS impl			A:2A X:55 Y:A8 P:27 SP:F9 - 
D46B  C8 20 0A	 INY impl			A:2A X:55 Y:A8 P:27 SP:FB - 
D46C  20 0A FA	 JSR abs			A:2A X:55 Y:A9 P:A5 SP:FB - 
FA0A  24 01 38	 BIT zpg			A:2A X:55 Y:A9 P:A5 SP:F9 - 
FA0C  38 A9 80	 SEC impl			A:2A X:55 Y:A9 P:E5 SP:F9 - 
FA0D  A9 80 60	 LDA #			A:2A X:55 Y:A9 P:E5 SP:F9 - 
FA0F  60 90 1C	 RTS impl			A:80 X:55 Y:A9 P:E5 SP:F9 - 
D46F  85 78 26	 STA zpg			A:80 X:55 Y:A9 P:E5 SP:FB - 
D471  26 78 A5	 ROL zpg			A:80 X:55 Y:A9 P:E5 SP:FB - 
D473  A5 78 20	 LDA zpg			A:80 X:55 Y:A9 P:65 SP:FB - 
D475  20 10 FA	 JSR abs			A:01 X:55 Y:A9 P:65 SP:FB - 
FA10  90 1C F0	 BCC rel			A:01 X:55 Y:A9 P:65 SP:F9 - 
FA12  F0 1A 30	 BEQ rel			A:01 X:55 Y:A9 P:65 SP:F9 - 
FA14  30 18 50	 BMI rel			A:01 X:55 Y:A9 P:65 SP:F9 - 
FA16  50 16 C9	 BVC rel			A:01 X:55 Y:A9 P:65 SP:F9 - 
FA18  C9 01 D0	 CMP #			A:01 X:55 Y:A9 P:65 SP:F9 - 
FA1A  D0 12 B8	 BNE rel			A:01 X:55 Y:A9 P:67 SP:F9 - 
FA1C  B8 18 A9	 CLV impl			A:01 X:55 Y:A9 P:67 SP:F9 - 
FA1D  18 A9 55	 CLC impl			A:01 X:55 Y:A9 P:27 SP:F9 - 
FA1E  A9 55 60	 LDA #			A:01 X:55 Y:A9 P:26 SP:F9 - 
FA20  60 B0 0B	 RTS impl			A:55 X:55 Y:A9 P:24 SP:F9 - 
D478  C8 85 78	 INY impl			A:55 X:55 Y:A9 P:24 SP:FB - 
D479  85 78 26	 STA zpg			A:55 X:55 Y:AA P:A4 SP:FB - 
D47B  26 78 A5	 ROL zpg			A:55 X:55 Y:AA P:A4 SP:FB - 
D47D  A5 78 20	 LDA zpg			A:55 X:55 Y:AA P:A4 SP:FB - 
D47F  20 21 FA	 JSR abs			A:AA X:55 Y:AA P:A4 SP:FB - 
FA21  B0 0B F0	 BCS rel			A:AA X:55 Y:AA P:A4 SP:F9 - 
FA23  F0 09 10	 BEQ rel			A:AA X:55 Y:AA P:A4 SP:F9 - 
FA25  10 07 70	 BPL rel			A:AA X:55 Y:AA P:A4 SP:F9 - 
FA27  70 05 C9	 BVS rel			A:AA X:55 Y:AA P:A4 SP:F9 - 
FA29  C9 AA D0	 CMP #			A:AA X:55 Y:AA P:A4 SP:F9 - 
FA2B  D0 01 60	 BNE rel			A:AA X:55 Y:AA P:27 SP:F9 - 
FA2D  60 84 00	 RTS impl			A:AA X:55 Y:AA P:27 SP:F9 - 
D482  A9 FF 85	 LDA #			A:AA X:55 Y:AA P:27 SP:FB - 
D484  85 78 85	 STA zpg			A:FF X:55 Y:AA P:A5 SP:FB - 
D486  85 01 24	 STA zpg			A:FF X:55 Y:AA P:A5 SP:FB - 
D488  24 01 38	 BIT zpg			A:FF X:55 Y:AA P:A5 SP:FB - 
D48A  38 E6 78	 SEC impl			A:FF X:55 Y:AA P:E5 SP:FB - 
D48B  E6 78 D0	 INC zpg			A:FF X:55 Y:AA P:E5 SP:FB - 
D48D  D0 0C 30	 BNE rel			A:FF X:55 Y:AA P:67 SP:FB - 
D48F  30 0A 50	 BMI rel			A:FF X:55 Y:AA P:67 SP:FB - 
D491  50 08 90	 BVC rel			A:FF X:55 Y:AA P:67 SP:FB - 
D493  90 06 A5	 BCC rel			A:FF X:55 Y:AA P:67 SP:FB - 
D495  A5 78 C9	 LDA zpg			A:FF X:55 Y:AA P:67 SP:FB - 
D497  C9 00 F0	 CMP #			A:00 X:55 Y:AA P:67 SP:FB - 
D499  F0 04 A9	 BEQ rel			A:00 X:55 Y:AA P:67 SP:FB - 
D49F  A9 7F 85	 LDA #			A:00 X:55 Y:AA P:67 SP:FB - 
D4A1  85 78 B8	 STA zpg			A:7F X:55 Y:AA P:65 SP:FB - 
D4A3  B8 18 E6	 CLV impl			A:7F X:55 Y:AA P:65 SP:FB - 
D4A4  18 E6 78	 CLC impl			A:7F X:55 Y:AA P:25 SP:FB - 
D4A5  E6 78 F0	 INC zpg			A:7F X:55 Y:AA P:24 SP:FB - 
D4A7  F0 0C 10	 BEQ rel			A:7F X:55 Y:AA P:A4 SP:FB - 
D4A9  10 0A 70	 BPL rel			A:7F X:55 Y:AA P:A4 SP:FB - 
D4AB  70 08 B0	 BVS rel			A:7F X:55 Y:AA P:A4 SP:FB - 
D4AD  B0 06 A5	 BCS rel			A:7F X:55 Y:AA P:A4 SP:FB - 
D4AF  A5 78 C9	 LDA zpg			A:7F X:55 Y:AA P:A4 SP:FB - 
D4B1  C9 80 F0	 CMP #			A:80 X:55 Y:AA P:A4 SP:FB - 
D4B3  F0 04 A9	 BEQ rel			A:80 X:55 Y:AA P:27 SP:FB - 
D4B9  A9 00 85	 LDA #			A:80 X:55 Y:AA P:27 SP:FB - 
D4BB  85 78 24	 STA zpg			A:00 X:55 Y:AA P:27 SP:FB - 
D4BD  24 01 38	 BIT zpg			A:00 X:55 Y:AA P:27 SP:FB - 
D4BF  38 C6 78	 SEC impl			A:00 X:55 Y:AA P:E7 SP:FB - 
D4C0  C6 78 F0	 DEC zpg			A:00 X:55 Y:AA P:E7 SP:FB - 
D4C2  F0 0C 10	 BEQ rel			A:00 X:55 Y:AA P:E5 SP:FB - 
D4C4  10 0A 50	 BPL rel			A:00 X:55 Y:AA P:E5 SP:FB - 
D4C6  50 08 90	 BVC rel			A:00 X:55 Y:AA P:E5 SP:FB - 
D4C8  90 06 A5	 BCC rel			A:00 X:55 Y:AA P:E5 SP:FB - 
D4CA  A5 78 C9	 LDA zpg			A:00 X:55 Y:AA P:E5 SP:FB - 
D4CC  C9 FF F0	 CMP #			A:FF X:55 Y:AA P:E5 SP:FB - 
D4CE  F0 04 A9	 BEQ rel			A:FF X:55 Y:AA P:67 SP:FB - 
D4D4  A9 80 85	 LDA #			A:FF X:55 Y:AA P:67 SP:FB - 
D4D6  85 78 B8	 STA zpg			A:80 X:55 Y:AA P:E5 SP:FB - 
D4D8  B8 18 C6	 CLV impl			A:80 X:55 Y:AA P:E5 SP:FB - 
D4D9  18 C6 78	 CLC impl			A:80 X:55 Y:AA P:A5 SP:FB - 
D4DA  C6 78 F0	 DEC zpg			A:80 X:55 Y:AA P:A4 SP:FB - 
D4DC  F0 0C 30	 BEQ rel			A:80 X:55 Y:AA P:24 SP:FB - 
D4DE  30 0A 70	 BMI rel			A:80 X:55 Y:AA P:24 SP:FB - 
D4E0  70 08 B0	 BVS rel			A:80 X:55 Y:AA P:24 SP:FB - 
D4E2  B0 06 A5	 BCS rel			A:80 X:55 Y:AA P:24 SP:FB - 
D4E4  A5 78 C9	 LDA zpg			A:80 X:55 Y:AA P:24 SP:FB - 
D4E6  C9 7F F0	 CMP #			A:7F X:55 Y:AA P:24 SP:FB - 
D4E8  F0 04 A9	 BEQ rel			A:7F X:55 Y:AA P:27 SP:FB - 
D4EE  A9 01 85	 LDA #			A:7F X:55 Y:AA P:27 SP:FB - 
D4F0  85 78 C6	 STA zpg			A:01 X:55 Y:AA P:25 SP:FB - 
D4F2  C6 78 F0	 DEC zpg			A:01 X:55 Y:AA P:25 SP:FB - 
D4F4  F0 04 A9	 BEQ rel			A:01 X:55 Y:AA P:27 SP:FB - 
D4FA  60 A9 55	 RTS impl			A:01 X:55 Y:AA P:27 SP:FB - 
C615  20 FB D4	 JSR abs			A:01 X:55 Y:AA P:27 SP:FD - 
D4FB  A9 55 8D	 LDA #			A:01 X:55 Y:AA P:27 SP:FB - 
D4FD  8D 78 06	 STA abs			A:55 X:55 Y:AA P:25 SP:FB - 
D500  A9 FF 85	 LDA #			A:55 X:55 Y:AA P:25 SP:FB - 
D502  85 01 24	 STA zpg			A:FF X:55 Y:AA P:A5 SP:FB - 
D504  24 01 A0	 BIT zpg			A:FF X:55 Y:AA P:A5 SP:FB - 
D506  A0 11 A2	 LDY #			A:FF X:55 Y:AA P:E5 SP:FB - 
D508  A2 23 A9	 LDX #			A:FF X:55 Y:11 P:65 SP:FB - 
D50A  A9 00 AD	 LDA #			A:FF X:23 Y:11 P:65 SP:FB - 
D50C  AD 78 06	 LDA abs			A:00 X:23 Y:11 P:67 SP:FB - 
D50F  F0 10 30	 BEQ rel			A:55 X:23 Y:11 P:65 SP:FB - 
D511  30 0E C9	 BMI rel			A:55 X:23 Y:11 P:65 SP:FB - 
D513  C9 55 D0	 CMP #			A:55 X:23 Y:11 P:65 SP:FB - 
D515  D0 0A C0	 BNE rel			A:55 X:23 Y:11 P:67 SP:FB - 
D517  C0 11 D0	 CPY #			A:55 X:23 Y:11 P:67 SP:FB - 
D519  D0 06 E0	 BNE rel			A:55 X:23 Y:11 P:67 SP:FB - 
D51B  E0 23 50	 CPX #			A:55 X:23 Y:11 P:67 SP:FB - 
D51D  50 02 F0	 BVC rel			A:55 X:23 Y:11 P:67 SP:FB - 
D51F  F0 04 A9	 BEQ rel			A:55 X:23 Y:11 P:67 SP:FB - 
D525  A9 46 24	 LDA #			A:55 X:23 Y:11 P:67 SP:FB - 
D527  24 01 8D	 BIT zpg			A:46 X:23 Y:11 P:65 SP:FB - 
D529  8D 78 06	 STA abs			A:46 X:23 Y:11 P:E5 SP:FB - 
D52C  F0 0B 10	 BEQ rel			A:46 X:23 Y:11 P:E5 SP:FB - 
D52E  10 09 50	 BPL rel			A:46 X:23 Y:11 P:E5 SP:FB - 
D530  50 07 AD	 BVC rel			A:46 X:23 Y:11 P:E5 SP:FB - 
D532  AD 78 06	 LDA abs			A:46 X:23 Y:11 P:E5 SP:FB - 
D535  C9 46 F0	 CMP #			A:46 X:23 Y:11 P:65 SP:FB - 
D537  F0 04 A9	 BEQ rel			A:46 X:23 Y:11 P:67 SP:FB - 
D53D  A9 55 8D	 LDA #			A:46 X:23 Y:11 P:67 SP:FB - 
D53F  8D 78 06	 STA abs			A:55 X:23 Y:11 P:65 SP:FB - 
D542  24 01 A9	 BIT zpg			A:55 X:23 Y:11 P:65 SP:FB - 
D544  A9 11 A2	 LDA #			A:55 X:23 Y:11 P:E5 SP:FB - 
D546  A2 23 A0	 LDX #			A:11 X:23 Y:11 P:65 SP:FB - 
D548  A0 00 AC	 LDY #			A:11 X:23 Y:11 P:65 SP:FB - 
D54A  AC 78 06	 LDY abs			A:11 X:23 Y:00 P:67 SP:FB - 
D54D  F0 10 30	 BEQ rel			A:11 X:23 Y:55 P:65 SP:FB - 
D54F  30 0E C0	 BMI rel			A:11 X:23 Y:55 P:65 SP:FB - 
D551  C0 55 D0	 CPY #			A:11 X:23 Y:55 P:65 SP:FB - 
D553  D0 0A C9	 BNE rel			A:11 X:23 Y:55 P:67 SP:FB - 
D555  C9 11 D0	 CMP #			A:11 X:23 Y:55 P:67 SP:FB - 
D557  D0 06 E0	 BNE rel			A:11 X:23 Y:55 P:67 SP:FB - 
D559  E0 23 50	 CPX #			A:11 X:23 Y:55 P:67 SP:FB - 
D55B  50 02 F0	 BVC rel			A:11 X:23 Y:55 P:67 SP:FB - 
D55D  F0 04 A9	 BEQ rel			A:11 X:23 Y:55 P:67 SP:FB - 
D563  A0 46 24	 LDY #			A:11 X:23 Y:55 P:67 SP:FB - 
D565  24 01 8C	 BIT zpg			A:11 X:23 Y:46 P:65 SP:FB - 
D567  8C 78 06	 STY abs			A:11 X:23 Y:46 P:E5 SP:FB - 
D56A  F0 0B 10	 BEQ rel			A:11 X:23 Y:46 P:E5 SP:FB - 
D56C  10 09 50	 BPL rel			A:11 X:23 Y:46 P:E5 SP:FB - 
D56E  50 07 AC	 BVC rel			A:11 X:23 Y:46 P:E5 SP:FB - 
D570  AC 78 06	 LDY abs			A:11 X:23 Y:46 P:E5 SP:FB - 
D573  C0 46 F0	 CPY #			A:11 X:23 Y:46 P:65 SP:FB - 
D575  F0 04 A9	 BEQ rel			A:11 X:23 Y:46 P:67 SP:FB - 
D57B  24 01 A9	 BIT zpg			A:11 X:23 Y:46 P:67 SP:FB - 
D57D  A9 55 8D	 LDA #			A:11 X:23 Y:46 P:E5 SP:FB - 
D57F  8D 78 06	 STA abs			A:55 X:23 Y:46 P:65 SP:FB - 
D582  A0 11 A9	 LDY #			A:55 X:23 Y:46 P:65 SP:FB - 
D584  A9 23 A2	 LDA #			A:55 X:23 Y:11 P:65 SP:FB - 
D586  A2 00 AE	 LDX #			A:23 X:23 Y:11 P:65 SP:FB - 
D588  AE 78 06	 LDX abs			A:23 X:00 Y:11 P:67 SP:FB - 
D58B  F0 10 30	 BEQ rel			A:23 X:55 Y:11 P:65 SP:FB - 
D58D  30 0E E0	 BMI rel			A:23 X:55 Y:11 P:65 SP:FB - 
D58F  E0 55 D0	 CPX #			A:23 X:55 Y:11 P:65 SP:FB - 
D591  D0 0A C0	 BNE rel			A:23 X:55 Y:11 P:67 SP:FB - 
D593  C0 11 D0	 CPY #			A:23 X:55 Y:11 P:67 SP:FB - 
D595  D0 06 C9	 BNE rel			A:23 X:55 Y:11 P:67 SP:FB - 
D597  C9 23 50	 CMP #			A:23 X:55 Y:11 P:67 SP:FB - 
D599  50 02 F0	 BVC rel			A:23 X:55 Y:11 P:67 SP:FB - 
D59B  F0 04 A9	 BEQ rel			A:23 X:55 Y:11 P:67 SP:FB - 
D5A1  A2 46 24	 LDX #			A:23 X:55 Y:11 P:67 SP:FB - 
D5A3  24 01 8E	 BIT zpg			A:23 X:46 Y:11 P:65 SP:FB - 
D5A5  8E 78 06	 STX abs			A:23 X:46 Y:11 P:E5 SP:FB - 
D5A8  F0 0B 10	 BEQ rel			A:23 X:46 Y:11 P:E5 SP:FB - 
D5AA  10 09 50	 BPL rel			A:23 X:46 Y:11 P:E5 SP:FB - 
D5AC  50 07 AE	 BVC rel			A:23 X:46 Y:11 P:E5 SP:FB - 
D5AE  AE 78 06	 LDX abs			A:23 X:46 Y:11 P:E5 SP:FB - 
D5B1  E0 46 F0	 CPX #			A:23 X:46 Y:11 P:65 SP:FB - 
D5B3  F0 04 A9	 BEQ rel			A:23 X:46 Y:11 P:67 SP:FB - 
D5B9  A9 C0 8D	 LDA #			A:23 X:46 Y:11 P:67 SP:FB - 
D5BB  8D 78 06	 STA abs			A:C0 X:46 Y:11 P:E5 SP:FB - 
D5BE  A2 33 A0	 LDX #			A:C0 X:46 Y:11 P:E5 SP:FB - 
D5C0  A0 88 A9	 LDY #			A:C0 X:33 Y:11 P:65 SP:FB - 
D5C2  A9 05 2C	 LDA #			A:C0 X:33 Y:88 P:E5 SP:FB - 
D5C4  2C 78 06	 BIT abs			A:05 X:33 Y:88 P:65 SP:FB - 
D5C7  10 10 50	 BPL rel			A:05 X:33 Y:88 P:E7 SP:FB - 
D5C9  50 0E D0	 BVC rel			A:05 X:33 Y:88 P:E7 SP:FB - 
D5CB  D0 0C C9	 BNE rel			A:05 X:33 Y:88 P:E7 SP:FB - 
D5CD  C9 05 D0	 CMP #			A:05 X:33 Y:88 P:E7 SP:FB - 
D5CF  D0 08 E0	 BNE rel			A:05 X:33 Y:88 P:67 SP:FB - 
D5D1  E0 33 D0	 CPX #			A:05 X:33 Y:88 P:67 SP:FB - 
D5D3  D0 04 C0	 BNE rel			A:05 X:33 Y:88 P:67 SP:FB - 
D5D5  C0 88 F0	 CPY #			A:05 X:33 Y:88 P:67 SP:FB - 
D5D7  F0 04 A9	 BEQ rel			A:05 X:33 Y:88 P:67 SP:FB - 
D5DD  A9 03 8D	 LDA #			A:05 X:33 Y:88 P:67 SP:FB - 
D5DF  8D 78 06	 STA abs			A:03 X:33 Y:88 P:65 SP:FB - 
D5E2  A9 01 2C	 LDA #			A:03 X:33 Y:88 P:65 SP:FB - 
D5E4  2C 78 06	 BIT abs			A:01 X:33 Y:88 P:65 SP:FB - 
D5E7  30 08 70	 BMI rel			A:01 X:33 Y:88 P:25 SP:FB - 
D5E9  70 06 F0	 BVS rel			A:01 X:33 Y:88 P:25 SP:FB - 
D5EB  F0 04 C9	 BEQ rel			A:01 X:33 Y:88 P:25 SP:FB - 
D5ED  C9 01 F0	 CMP #			A:01 X:33 Y:88 P:25 SP:FB - 
D5EF  F0 04 A9	 BEQ rel			A:01 X:33 Y:88 P:27 SP:FB - 
D5F5  A0 B8 A9	 LDY #			A:01 X:33 Y:88 P:27 SP:FB - 
D5F7  A9 AA 8D	 LDA #			A:01 X:33 Y:B8 P:A5 SP:FB - 
D5F9  8D 78 06	 STA abs			A:AA X:33 Y:B8 P:A5 SP:FB - 
D5FC  20 B6 F7	 JSR abs			A:AA X:33 Y:B8 P:A5 SP:FB - 
F7B6  18 A9 FF	 CLC impl			A:AA X:33 Y:B8 P:A5 SP:F9 - 
F7B7  A9 FF 85	 LDA #			A:AA X:33 Y:B8 P:A4 SP:F9 - 
F7B9  85 01 24	 STA zpg			A:FF X:33 Y:B8 P:A4 SP:F9 - 
F7BB  24 01 A9	 BIT zpg			A:FF X:33 Y:B8 P:A4 SP:F9 - 
F7BD  A9 55 60	 LDA #			A:FF X:33 Y:B8 P:E4 SP:F9 - 
F7BF  60 B0 09	 RTS impl			A:55 X:33 Y:B8 P:64 SP:F9 - 
D5FF  0D 78 06	 ORA abs			A:55 X:33 Y:B8 P:64 SP:FB - 
D602  20 C0 F7	 JSR abs			A:FF X:33 Y:B8 P:E4 SP:FB - 
F7C0  B0 09 10	 BCS rel			A:FF X:33 Y:B8 P:E4 SP:F9 - 
F7C2  10 07 C9	 BPL rel			A:FF X:33 Y:B8 P:E4 SP:F9 - 
F7C4  C9 FF D0	 CMP #			A:FF X:33 Y:B8 P:E4 SP:F9 - 
F7C6  D0 03 50	 BNE rel			A:FF X:33 Y:B8 P:67 SP:F9 - 
F7C8  50 01 60	 BVC rel			A:FF X:33 Y:B8 P:67 SP:F9 - 
F7CA  60 84 00	 RTS impl			A:FF X:33 Y:B8 P:67 SP:F9 - 
D605  C8 A9 00	 INY impl			A:FF X:33 Y:B8 P:67 SP:FB - 
D606  A9 00 8D	 LDA #			A:FF X:33 Y:B9 P:E5 SP:FB - 
D608  8D 78 06	 STA abs			A:00 X:33 Y:B9 P:67 SP:FB - 
D60B  20 CE F7	 JSR abs			A:00 X:33 Y:B9 P:67 SP:FB - 
F7CE  38 B8 A9	 SEC impl			A:00 X:33 Y:B9 P:67 SP:F9 - 
F7CF  B8 A9 00	 CLV impl			A:00 X:33 Y:B9 P:67 SP:F9 - 
F7D0  A9 00 60	 LDA #			A:00 X:33 Y:B9 P:27 SP:F9 - 
F7D2  60 D0 07	 RTS impl			A:00 X:33 Y:B9 P:27 SP:F9 - 
D60E  0D 78 06	 ORA abs			A:00 X:33 Y:B9 P:27 SP:FB - 
D611  20 D3 F7	 JSR abs			A:00 X:33 Y:B9 P:27 SP:FB - 
F7D3  D0 07 70	 BNE rel			A:00 X:33 Y:B9 P:27 SP:F9 - 
F7D5  70 05 90	 BVS rel			A:00 X:33 Y:B9 P:27 SP:F9 - 
F7D7  90 03 30	 BCC rel			A:00 X:33 Y:B9 P:27 SP:F9 - 
F7D9  30 01 60	 BMI rel			A:00 X:33 Y:B9 P:27 SP:F9 - 
F7DB  60 84 00	 RTS impl			A:00 X:33 Y:B9 P:27 SP:F9 - 
D614  C8 A9 AA	 INY impl			A:00 X:33 Y:B9 P:27 SP:FB - 
D615  A9 AA 8D	 LDA #			A:00 X:33 Y:BA P:A5 SP:FB - 
D617  8D 78 06	 STA abs			A:AA X:33 Y:BA P:A5 SP:FB - 
D61A  20 DF F7	 JSR abs			A:AA X:33 Y:BA P:A5 SP:FB - 
F7DF  18 24 01	 CLC impl			A:AA X:33 Y:BA P:A5 SP:F9 - 
F7E0  24 01 A9	 BIT zpg			A:AA X:33 Y:BA P:A4 SP:F9 - 
F7E2  A9 55 60	 LDA #			A:AA X:33 Y:BA P:E4 SP:F9 - 
F7E4  60 D0 07	 RTS impl			A:55 X:33 Y:BA P:64 SP:F9 - 
D61D  2D 78 06	 AND abs			A:55 X:33 Y:BA P:64 SP:FB - 
D620  20 E5 F7	 JSR abs			A:00 X:33 Y:BA P:66 SP:FB - 
F7E5  D0 07 50	 BNE rel			A:00 X:33 Y:BA P:66 SP:F9 - 
F7E7  50 05 B0	 BVC rel			A:00 X:33 Y:BA P:66 SP:F9 - 
F7E9  B0 03 30	 BCS rel			A:00 X:33 Y:BA P:66 SP:F9 - 
F7EB  30 01 60	 BMI rel			A:00 X:33 Y:BA P:66 SP:F9 - 
F7ED  60 84 00	 RTS impl			A:00 X:33 Y:BA P:66 SP:F9 - 
D623  C8 A9 EF	 INY impl			A:00 X:33 Y:BA P:66 SP:FB - 
D624  A9 EF 8D	 LDA #			A:00 X:33 Y:BB P:E4 SP:FB - 
D626  8D 78 06	 STA abs			A:EF X:33 Y:BB P:E4 SP:FB - 
D629  20 F1 F7	 JSR abs			A:EF X:33 Y:BB P:E4 SP:FB - 
F7F1  38 B8 A9	 SEC impl			A:EF X:33 Y:BB P:E4 SP:F9 - 
F7F2  B8 A9 F8	 CLV impl			A:EF X:33 Y:BB P:E5 SP:F9 - 
F7F3  A9 F8 60	 LDA #			A:EF X:33 Y:BB P:A5 SP:F9 - 
F7F5  60 90 09	 RTS impl			A:F8 X:33 Y:BB P:A5 SP:F9 - 
D62C  2D 78 06	 AND abs			A:F8 X:33 Y:BB P:A5 SP:FB - 
D62F  20 F6 F7	 JSR abs			A:E8 X:33 Y:BB P:A5 SP:FB - 
F7F6  90 09 10	 BCC rel			A:E8 X:33 Y:BB P:A5 SP:F9 - 
F7F8  10 07 C9	 BPL rel			A:E8 X:33 Y:BB P:A5 SP:F9 - 
F7FA  C9 E8 D0	 CMP #			A:E8 X:33 Y:BB P:A5 SP:F9 - 
F7FC  D0 03 70	 BNE rel			A:E8 X:33 Y:BB P:27 SP:F9 - 
F7FE  70 01 60	 BVS rel			A:E8 X:33 Y:BB P:27 SP:F9 - 
F800  60 84 00	 RTS impl			A:E8 X:33 Y:BB P:27 SP:F9 - 
D632  C8 A9 AA	 INY impl			A:E8 X:33 Y:BB P:27 SP:FB - 
D633  A9 AA 8D	 LDA #			A:E8 X:33 Y:BC P:A5 SP:FB - 
D635  8D 78 06	 STA abs			A:AA X:33 Y:BC P:A5 SP:FB - 
D638  20 04 F8	 JSR abs			A:AA X:33 Y:BC P:A5 SP:FB - 
F804  18 24 01	 CLC impl			A:AA X:33 Y:BC P:A5 SP:F9 - 
F805  24 01 A9	 BIT zpg			A:AA X:33 Y:BC P:A4 SP:F9 - 
F807  A9 5F 60	 LDA #			A:AA X:33 Y:BC P:E4 SP:F9 - 
F809  60 B0 09	 RTS impl			A:5F X:33 Y:BC P:64 SP:F9 - 
D63B  4D 78 06	 EOR abs			A:5F X:33 Y:BC P:64 SP:FB - 
D63E  20 0A F8	 JSR abs			A:F5 X:33 Y:BC P:E4 SP:FB - 
F80A  B0 09 10	 BCS rel			A:F5 X:33 Y:BC P:E4 SP:F9 - 
F80C  10 07 C9	 BPL rel			A:F5 X:33 Y:BC P:E4 SP:F9 - 
F80E  C9 F5 D0	 CMP #			A:F5 X:33 Y:BC P:E4 SP:F9 - 
F810  D0 03 50	 BNE rel			A:F5 X:33 Y:BC P:67 SP:F9 - 
F812  50 01 60	 BVC rel			A:F5 X:33 Y:BC P:67 SP:F9 - 
F814  60 84 00	 RTS impl			A:F5 X:33 Y:BC P:67 SP:F9 - 
D641  C8 A9 70	 INY impl			A:F5 X:33 Y:BC P:67 SP:FB - 
D642  A9 70 8D	 LDA #			A:F5 X:33 Y:BD P:E5 SP:FB - 
D644  8D 78 06	 STA abs			A:70 X:33 Y:BD P:65 SP:FB - 
D647  20 18 F8	 JSR abs			A:70 X:33 Y:BD P:65 SP:FB - 
F818  38 B8 A9	 SEC impl			A:70 X:33 Y:BD P:65 SP:F9 - 
F819  B8 A9 70	 CLV impl			A:70 X:33 Y:BD P:65 SP:F9 - 
F81A  A9 70 60	 LDA #			A:70 X:33 Y:BD P:25 SP:F9 - 
F81C  60 D0 07	 RTS impl			A:70 X:33 Y:BD P:25 SP:F9 - 
D64A  4D 78 06	 EOR abs			A:70 X:33 Y:BD P:25 SP:FB - 
D64D  20 1D F8	 JSR abs			A:00 X:33 Y:BD P:27 SP:FB - 
F81D  D0 07 70	 BNE rel			A:00 X:33 Y:BD P:27 SP:F9 - 
F81F  70 05 90	 BVS rel			A:00 X:33 Y:BD P:27 SP:F9 - 
F821  90 03 30	 BCC rel			A:00 X:33 Y:BD P:27 SP:F9 - 
F823  30 01 60	 BMI rel			A:00 X:33 Y:BD P:27 SP:F9 - 
F825  60 84 00	 RTS impl			A:00 X:33 Y:BD P:27 SP:F9 - 
D650  C8 A9 69	 INY impl			A:00 X:33 Y:BD P:27 SP:FB - 
D651  A9 69 8D	 LDA #			A:00 X:33 Y:BE P:A5 SP:FB - 
D653  8D 78 06	 STA abs			A:69 X:33 Y:BE P:25 SP:FB - 
D656  20 29 F8	 JSR abs			A:69 X:33 Y:BE P:25 SP:FB - 
F829  18 24 01	 CLC impl			A:69 X:33 Y:BE P:25 SP:F9 - 
F82A  24 01 A9	 BIT zpg			A:69 X:33 Y:BE P:24 SP:F9 - 
F82C  A9 00 60	 LDA #			A:69 X:33 Y:BE P:E4 SP:F9 - 
F82E  60 30 09	 RTS impl			A:00 X:33 Y:BE P:66 SP:F9 - 
D659  6D 78 06	 ADC abs			A:00 X:33 Y:BE P:66 SP:FB - 
D65C  20 2F F8	 JSR abs			A:69 X:33 Y:BE P:24 SP:FB - 
F82F  30 09 B0	 BMI rel			A:69 X:33 Y:BE P:24 SP:F9 - 
F831  B0 07 C9	 BCS rel			A:69 X:33 Y:BE P:24 SP:F9 - 
F833  C9 69 D0	 CMP #			A:69 X:33 Y:BE P:24 SP:F9 - 
F835  D0 03 70	 BNE rel			A:69 X:33 Y:BE P:27 SP:F9 - 
F837  70 01 60	 BVS rel			A:69 X:33 Y:BE P:27 SP:F9 - 
F839  60 84 00	 RTS impl			A:69 X:33 Y:BE P:27 SP:F9 - 
D65F  C8 20 3D	 INY impl			A:69 X:33 Y:BE P:27 SP:FB - 
D660  20 3D F8	 JSR abs			A:69 X:33 Y:BF P:A5 SP:FB - 
F83D  38 24 01	 SEC impl			A:69 X:33 Y:BF P:A5 SP:F9 - 
F83E  24 01 A9	 BIT zpg			A:69 X:33 Y:BF P:A5 SP:F9 - 
F840  A9 00 60	 LDA #			A:69 X:33 Y:BF P:E5 SP:F9 - 
F842  60 30 09	 RTS impl			A:00 X:33 Y:BF P:67 SP:F9 - 
D663  6D 78 06	 ADC abs			A:00 X:33 Y:BF P:67 SP:FB - 
D666  20 43 F8	 JSR abs			A:6A X:33 Y:BF P:24 SP:FB - 
F843  30 09 B0	 BMI rel			A:6A X:33 Y:BF P:24 SP:F9 - 
F845  B0 07 C9	 BCS rel			A:6A X:33 Y:BF P:24 SP:F9 - 
F847  C9 6A D0	 CMP #			A:6A X:33 Y:BF P:24 SP:F9 - 
F849  D0 03 70	 BNE rel			A:6A X:33 Y:BF P:27 SP:F9 - 
F84B  70 01 60	 BVS rel			A:6A X:33 Y:BF P:27 SP:F9 - 
F84D  60 84 00	 RTS impl			A:6A X:33 Y:BF P:27 SP:F9 - 
D669  C8 A9 7F	 INY impl			A:6A X:33 Y:BF P:27 SP:FB - 
D66A  A9 7F 8D	 LDA #			A:6A X:33 Y:C0 P:A5 SP:FB - 
D66C  8D 78 06	 STA abs			A:7F X:33 Y:C0 P:25 SP:FB - 
D66F  20 51 F8	 JSR abs			A:7F X:33 Y:C0 P:25 SP:FB - 
F851  38 B8 A9	 SEC impl			A:7F X:33 Y:C0 P:25 SP:F9 - 
F852  B8 A9 7F	 CLV impl			A:7F X:33 Y:C0 P:25 SP:F9 - 
F853  A9 7F 60	 LDA #			A:7F X:33 Y:C0 P:25 SP:F9 - 
F855  60 10 09	 RTS impl			A:7F X:33 Y:C0 P:25 SP:F9 - 
D672  6D 78 06	 ADC abs			A:7F X:33 Y:C0 P:25 SP:FB - 
D675  20 56 F8	 JSR abs			A:FF X:33 Y:C0 P:E4 SP:FB - 
F856  10 09 B0	 BPL rel			A:FF X:33 Y:C0 P:E4 SP:F9 - 
F858  B0 07 C9	 BCS rel			A:FF X:33 Y:C0 P:E4 SP:F9 - 
F85A  C9 FF D0	 CMP #			A:FF X:33 Y:C0 P:E4 SP:F9 - 
F85C  D0 03 50	 BNE rel			A:FF X:33 Y:C0 P:67 SP:F9 - 
F85E  50 01 60	 BVC rel			A:FF X:33 Y:C0 P:67 SP:F9 - 
F860  60 84 00	 RTS impl			A:FF X:33 Y:C0 P:67 SP:F9 - 
D678  C8 A9 80	 INY impl			A:FF X:33 Y:C0 P:67 SP:FB - 
D679  A9 80 8D	 LDA #			A:FF X:33 Y:C1 P:E5 SP:FB - 
D67B  8D 78 06	 STA abs			A:80 X:33 Y:C1 P:E5 SP:FB - 
D67E  20 64 F8	 JSR abs			A:80 X:33 Y:C1 P:E5 SP:FB - 
F864  18 24 01	 CLC impl			A:80 X:33 Y:C1 P:E5 SP:F9 - 
F865  24 01 A9	 BIT zpg			A:80 X:33 Y:C1 P:E4 SP:F9 - 
F867  A9 7F 60	 LDA #			A:80 X:33 Y:C1 P:E4 SP:F9 - 
F869  60 10 09	 RTS impl			A:7F X:33 Y:C1 P:64 SP:F9 - 
D681  6D 78 06	 ADC abs			A:7F X:33 Y:C1 P:64 SP:FB - 
D684  20 6A F8	 JSR abs			A:FF X:33 Y:C1 P:A4 SP:FB - 
F86A  10 09 B0	 BPL rel			A:FF X:33 Y:C1 P:A4 SP:F9 - 
F86C  B0 07 C9	 BCS rel			A:FF X:33 Y:C1 P:A4 SP:F9 - 
F86E  C9 FF D0	 CMP #			A:FF X:33 Y:C1 P:A4 SP:F9 - 
F870  D0 03 70	 BNE rel			A:FF X:33 Y:C1 P:27 SP:F9 - 
F872  70 01 60	 BVS rel			A:FF X:33 Y:C1 P:27 SP:F9 - 
F874  60 84 00	 RTS impl			A:FF X:33 Y:C1 P:27 SP:F9 - 
D687  C8 20 78	 INY impl			A:FF X:33 Y:C1 P:27 SP:FB - 
D688  20 78 F8	 JSR abs			A:FF X:33 Y:C2 P:A5 SP:FB - 
F878  38 B8 A9	 SEC impl			A:FF X:33 Y:C2 P:A5 SP:F9 - 
F879  B8 A9 7F	 CLV impl			A:FF X:33 Y:C2 P:A5 SP:F9 - 
F87A  A9 7F 60	 LDA #			A:FF X:33 Y:C2 P:A5 SP:F9 - 
F87C  60 D0 07	 RTS impl			A:7F X:33 Y:C2 P:25 SP:F9 - 
D68B  6D 78 06	 ADC abs			A:7F X:33 Y:C2 P:25 SP:FB - 
D68E  20 7D F8	 JSR abs			A:00 X:33 Y:C2 P:27 SP:FB - 
F87D  D0 07 30	 BNE rel			A:00 X:33 Y:C2 P:27 SP:F9 - 
F87F  30 05 70	 BMI rel			A:00 X:33 Y:C2 P:27 SP:F9 - 
F881  70 03 90	 BVS rel			A:00 X:33 Y:C2 P:27 SP:F9 - 
F883  90 01 60	 BCC rel			A:00 X:33 Y:C2 P:27 SP:F9 - 
F885  60 84 00	 RTS impl			A:00 X:33 Y:C2 P:27 SP:F9 - 
D691  C8 A9 40	 INY impl			A:00 X:33 Y:C2 P:27 SP:FB - 
D692  A9 40 8D	 LDA #			A:00 X:33 Y:C3 P:A5 SP:FB - 
D694  8D 78 06	 STA abs			A:40 X:33 Y:C3 P:25 SP:FB - 
D697  20 89 F8	 JSR abs			A:40 X:33 Y:C3 P:25 SP:FB - 
F889  24 01 A9	 BIT zpg			A:40 X:33 Y:C3 P:25 SP:F9 - 
F88B  A9 40 60	 LDA #			A:40 X:33 Y:C3 P:E5 SP:F9 - 
F88D  60 30 07	 RTS impl			A:40 X:33 Y:C3 P:65 SP:F9 - 
D69A  CD 78 06	 CMP abs			A:40 X:33 Y:C3 P:65 SP:FB - 
D69D  20 8E F8	 JSR abs			A:40 X:33 Y:C3 P:67 SP:FB - 
F88E  30 07 90	 BMI rel			A:40 X:33 Y:C3 P:67 SP:F9 - 
F890  90 05 D0	 BCC rel			A:40 X:33 Y:C3 P:67 SP:F9 - 
F892  D0 03 50	 BNE rel			A:40 X:33 Y:C3 P:67 SP:F9 - 
F894  50 01 60	 BVC rel			A:40 X:33 Y:C3 P:67 SP:F9 - 
F896  60 84 00	 RTS impl			A:40 X:33 Y:C3 P:67 SP:F9 - 
D6A0  C8 48 A9	 INY impl			A:40 X:33 Y:C3 P:67 SP:FB - 
D6A1  48 A9 3F	 PHA impl			A:40 X:33 Y:C4 P:E5 SP:FB - 
D6A2  A9 3F 8D	 LDA #			A:40 X:33 Y:C4 P:E5 SP:FA - 
D6A4  8D 78 06	 STA abs			A:3F X:33 Y:C4 P:65 SP:FA - 
D6A7  68 20 9A	 PLA impl			A:3F X:33 Y:C4 P:65 SP:FA - 
D6A8  20 9A F8	 JSR abs			A:40 X:33 Y:C4 P:65 SP:FB - 
F89A  B8 60 F0	 CLV impl			A:40 X:33 Y:C4 P:65 SP:F9 - 
F89B  60 F0 07	 RTS impl			A:40 X:33 Y:C4 P:25 SP:F9 - 
D6AB  CD 78 06	 CMP abs			A:40 X:33 Y:C4 P:25 SP:FB - 
D6AE  20 9C F8	 JSR abs			A:40 X:33 Y:C4 P:25 SP:FB - 
F89C  F0 07 30	 BEQ rel			A:40 X:33 Y:C4 P:25 SP:F9 - 
F89E  30 05 90	 BMI rel			A:40 X:33 Y:C4 P:25 SP:F9 - 
F8A0  90 03 70	 BCC rel			A:40 X:33 Y:C4 P:25 SP:F9 - 
F8A2  70 01 60	 BVS rel			A:40 X:33 Y:C4 P:25 SP:F9 - 
F8A4  60 84 00	 RTS impl			A:40 X:33 Y:C4 P:25 SP:F9 - 
D6B1  C8 48 A9	 INY impl			A:40 X:33 Y:C4 P:25 SP:FB - 
D6B2  48 A9 41	 PHA impl			A:40 X:33 Y:C5 P:A5 SP:FB - 
D6B3  A9 41 8D	 LDA #			A:40 X:33 Y:C5 P:A5 SP:FA - 
D6B5  8D 78 06	 STA abs			A:41 X:33 Y:C5 P:25 SP:FA - 
D6B8  68 CD 78	 PLA impl			A:41 X:33 Y:C5 P:25 SP:FA - 
D6B9  CD 78 06	 CMP abs			A:40 X:33 Y:C5 P:25 SP:FB - 
D6BC  20 A8 F8	 JSR abs			A:40 X:33 Y:C5 P:A4 SP:FB - 
F8A8  F0 05 10	 BEQ rel			A:40 X:33 Y:C5 P:A4 SP:F9 - 
F8AA  10 03 10	 BPL rel			A:40 X:33 Y:C5 P:A4 SP:F9 - 
F8AC  10 01 60	 BPL rel			A:40 X:33 Y:C5 P:A4 SP:F9 - 
F8AE  60 84 00	 RTS impl			A:40 X:33 Y:C5 P:A4 SP:F9 - 
D6BF  C8 48 A9	 INY impl			A:40 X:33 Y:C5 P:A4 SP:FB - 
D6C0  48 A9 00	 PHA impl			A:40 X:33 Y:C6 P:A4 SP:FB - 
D6C1  A9 00 8D	 LDA #			A:40 X:33 Y:C6 P:A4 SP:FA - 
D6C3  8D 78 06	 STA abs			A:00 X:33 Y:C6 P:26 SP:FA - 
D6C6  68 20 B2	 PLA impl			A:00 X:33 Y:C6 P:26 SP:FA - 
D6C7  20 B2 F8	 JSR abs			A:40 X:33 Y:C6 P:24 SP:FB - 
F8B2  A9 80 60	 LDA #			A:40 X:33 Y:C6 P:24 SP:F9 - 
F8B4  60 F0 05	 RTS impl			A:80 X:33 Y:C6 P:A4 SP:F9 - 
D6CA  CD 78 06	 CMP abs			A:80 X:33 Y:C6 P:A4 SP:FB - 
D6CD  20 B5 F8	 JSR abs			A:80 X:33 Y:C6 P:A5 SP:FB - 
F8B5  F0 05 10	 BEQ rel			A:80 X:33 Y:C6 P:A5 SP:F9 - 
F8B7  10 03 90	 BPL rel			A:80 X:33 Y:C6 P:A5 SP:F9 - 
F8B9  90 01 60	 BCC rel			A:80 X:33 Y:C6 P:A5 SP:F9 - 
F8BB  60 84 00	 RTS impl			A:80 X:33 Y:C6 P:A5 SP:F9 - 
D6D0  C8 48 A9	 INY impl			A:80 X:33 Y:C6 P:A5 SP:FB - 
D6D1  48 A9 80	 PHA impl			A:80 X:33 Y:C7 P:A5 SP:FB - 
D6D2  A9 80 8D	 LDA #			A:80 X:33 Y:C7 P:A5 SP:FA - 
D6D4  8D 78 06	 STA abs			A:80 X:33 Y:C7 P:A5 SP:FA - 
D6D7  68 CD 78	 PLA impl			A:80 X:33 Y:C7 P:A5 SP:FA - 
D6D8  CD 78 06	 CMP abs			A:80 X:33 Y:C7 P:A5 SP:FB - 
D6DB  20 BF F8	 JSR abs			A:80 X:33 Y:C7 P:27 SP:FB - 
F8BF  D0 05 30	 BNE rel			A:80 X:33 Y:C7 P:27 SP:F9 - 
F8C1  30 03 90	 BMI rel			A:80 X:33 Y:C7 P:27 SP:F9 - 
F8C3  90 01 60	 BCC rel			A:80 X:33 Y:C7 P:27 SP:F9 - 
F8C5  60 84 00	 RTS impl			A:80 X:33 Y:C7 P:27 SP:F9 - 
D6DE  C8 48 A9	 INY impl			A:80 X:33 Y:C7 P:27 SP:FB - 
D6DF  48 A9 81	 PHA impl			A:80 X:33 Y:C8 P:A5 SP:FB - 
D6E0  A9 81 8D	 LDA #			A:80 X:33 Y:C8 P:A5 SP:FA - 
D6E2  8D 78 06	 STA abs			A:81 X:33 Y:C8 P:A5 SP:FA - 
D6E5  68 CD 78	 PLA impl			A:81 X:33 Y:C8 P:A5 SP:FA - 
D6E6  CD 78 06	 CMP abs			A:80 X:33 Y:C8 P:A5 SP:FB - 
D6E9  20 C9 F8	 JSR abs			A:80 X:33 Y:C8 P:A4 SP:FB - 
F8C9  B0 05 F0	 BCS rel			A:80 X:33 Y:C8 P:A4 SP:F9 - 
F8CB  F0 03 10	 BEQ rel			A:80 X:33 Y:C8 P:A4 SP:F9 - 
F8CD  10 01 60	 BPL rel			A:80 X:33 Y:C8 P:A4 SP:F9 - 
F8CF  60 84 00	 RTS impl			A:80 X:33 Y:C8 P:A4 SP:F9 - 
D6EC  C8 48 A9	 INY impl			A:80 X:33 Y:C8 P:A4 SP:FB - 
D6ED  48 A9 7F	 PHA impl			A:80 X:33 Y:C9 P:A4 SP:FB - 
D6EE  A9 7F 8D	 LDA #			A:80 X:33 Y:C9 P:A4 SP:FA - 
D6F0  8D 78 06	 STA abs			A:7F X:33 Y:C9 P:24 SP:FA - 
D6F3  68 CD 78	 PLA impl			A:7F X:33 Y:C9 P:24 SP:FA - 
D6F4  CD 78 06	 CMP abs			A:80 X:33 Y:C9 P:A4 SP:FB - 
D6F7  20 D3 F8	 JSR abs			A:80 X:33 Y:C9 P:25 SP:FB - 
F8D3  90 05 F0	 BCC rel			A:80 X:33 Y:C9 P:25 SP:F9 - 
F8D5  F0 03 30	 BEQ rel			A:80 X:33 Y:C9 P:25 SP:F9 - 
F8D7  30 01 60	 BMI rel			A:80 X:33 Y:C9 P:25 SP:F9 - 
F8D9  60 84 00	 RTS impl			A:80 X:33 Y:C9 P:25 SP:F9 - 
D6FA  C8 A9 40	 INY impl			A:80 X:33 Y:C9 P:25 SP:FB - 
D6FB  A9 40 8D	 LDA #			A:80 X:33 Y:CA P:A5 SP:FB - 
D6FD  8D 78 06	 STA abs			A:40 X:33 Y:CA P:25 SP:FB - 
D700  20 31 F9	 JSR abs			A:40 X:33 Y:CA P:25 SP:FB - 
F931  24 01 A9	 BIT zpg			A:40 X:33 Y:CA P:25 SP:F9 - 
F933  A9 40 38	 LDA #			A:40 X:33 Y:CA P:E5 SP:F9 - 
F935  38 60 30	 SEC impl			A:40 X:33 Y:CA P:65 SP:F9 - 
F936  60 30 0B	 RTS impl			A:40 X:33 Y:CA P:65 SP:F9 - 
D703  ED 78 06	 SBC abs			A:40 X:33 Y:CA P:65 SP:FB - 
D706  20 37 F9	 JSR abs			A:00 X:33 Y:CA P:27 SP:FB - 
F937  30 0B 90	 BMI rel			A:00 X:33 Y:CA P:27 SP:F9 - 
F939  90 09 D0	 BCC rel			A:00 X:33 Y:CA P:27 SP:F9 - 
F93B  D0 07 70	 BNE rel			A:00 X:33 Y:CA P:27 SP:F9 - 
F93D  70 05 C9	 BVS rel			A:00 X:33 Y:CA P:27 SP:F9 - 
F93F  C9 00 D0	 CMP #			A:00 X:33 Y:CA P:27 SP:F9 - 
F941  D0 01 60	 BNE rel			A:00 X:33 Y:CA P:27 SP:F9 - 
F943  60 84 00	 RTS impl			A:00 X:33 Y:CA P:27 SP:F9 - 
D709  C8 A9 3F	 INY impl			A:00 X:33 Y:CA P:27 SP:FB - 
D70A  A9 3F 8D	 LDA #			A:00 X:33 Y:CB P:A5 SP:FB - 
D70C  8D 78 06	 STA abs			A:3F X:33 Y:CB P:25 SP:FB - 
D70F  20 47 F9	 JSR abs			A:3F X:33 Y:CB P:25 SP:FB - 
F947  B8 38 A9	 CLV impl			A:3F X:33 Y:CB P:25 SP:F9 - 
F948  38 A9 40	 SEC impl			A:3F X:33 Y:CB P:25 SP:F9 - 
F949  A9 40 60	 LDA #			A:3F X:33 Y:CB P:25 SP:F9 - 
F94B  60 F0 0B	 RTS impl			A:40 X:33 Y:CB P:25 SP:F9 - 
D712  ED 78 06	 SBC abs			A:40 X:33 Y:CB P:25 SP:FB - 
D715  20 4C F9	 JSR abs			A:01 X:33 Y:CB P:25 SP:FB - 
F94C  F0 0B 30	 BEQ rel			A:01 X:33 Y:CB P:25 SP:F9 - 
F94E  30 09 90	 BMI rel			A:01 X:33 Y:CB P:25 SP:F9 - 
F950  90 07 70	 BCC rel			A:01 X:33 Y:CB P:25 SP:F9 - 
F952  70 05 C9	 BVS rel			A:01 X:33 Y:CB P:25 SP:F9 - 
F954  C9 01 D0	 CMP #			A:01 X:33 Y:CB P:25 SP:F9 - 
F956  D0 01 60	 BNE rel			A:01 X:33 Y:CB P:27 SP:F9 - 
F958  60 84 00	 RTS impl			A:01 X:33 Y:CB P:27 SP:F9 - 
D718  C8 A9 41	 INY impl			A:01 X:33 Y:CB P:27 SP:FB - 
D719  A9 41 8D	 LDA #			A:01 X:33 Y:CC P:A5 SP:FB - 
D71B  8D 78 06	 STA abs			A:41 X:33 Y:CC P:25 SP:FB - 
D71E  20 5C F9	 JSR abs			A:41 X:33 Y:CC P:25 SP:FB - 
F95C  A9 40 38	 LDA #			A:41 X:33 Y:CC P:25 SP:F9 - 
F95E  38 24 01	 SEC impl			A:40 X:33 Y:CC P:25 SP:F9 - 
F95F  24 01 60	 BIT zpg			A:40 X:33 Y:CC P:25 SP:F9 - 
F961  60 B0 0B	 RTS impl			A:40 X:33 Y:CC P:E5 SP:F9 - 
D721  ED 78 06	 SBC abs			A:40 X:33 Y:CC P:E5 SP:FB - 
D724  20 62 F9	 JSR abs			A:FF X:33 Y:CC P:A4 SP:FB - 
F962  B0 0B F0	 BCS rel			A:FF X:33 Y:CC P:A4 SP:F9 - 
F964  F0 09 10	 BEQ rel			A:FF X:33 Y:CC P:A4 SP:F9 - 
F966  10 07 70	 BPL rel			A:FF X:33 Y:CC P:A4 SP:F9 - 
F968  70 05 C9	 BVS rel			A:FF X:33 Y:CC P:A4 SP:F9 - 
F96A  C9 FF D0	 CMP #			A:FF X:33 Y:CC P:A4 SP:F9 - 
F96C  D0 01 60	 BNE rel			A:FF X:33 Y:CC P:27 SP:F9 - 
F96E  60 84 00	 RTS impl			A:FF X:33 Y:CC P:27 SP:F9 - 
D727  C8 A9 00	 INY impl			A:FF X:33 Y:CC P:27 SP:FB - 
D728  A9 00 8D	 LDA #			A:FF X:33 Y:CD P:A5 SP:FB - 
D72A  8D 78 06	 STA abs			A:00 X:33 Y:CD P:27 SP:FB - 
D72D  20 72 F9	 JSR abs			A:00 X:33 Y:CD P:27 SP:FB - 
F972  18 A9 80	 CLC impl			A:00 X:33 Y:CD P:27 SP:F9 - 
F973  A9 80 60	 LDA #			A:00 X:33 Y:CD P:26 SP:F9 - 
F975  60 90 05	 RTS impl			A:80 X:33 Y:CD P:A4 SP:F9 - 
D730  ED 78 06	 SBC abs			A:80 X:33 Y:CD P:A4 SP:FB - 
D733  20 76 F9	 JSR abs			A:7F X:33 Y:CD P:65 SP:FB - 
F976  90 05 C9	 BCC rel			A:7F X:33 Y:CD P:65 SP:F9 - 
F978  C9 7F D0	 CMP #			A:7F X:33 Y:CD P:65 SP:F9 - 
F97A  D0 01 60	 BNE rel			A:7F X:33 Y:CD P:67 SP:F9 - 
F97C  60 84 00	 RTS impl			A:7F X:33 Y:CD P:67 SP:F9 - 
D736  C8 A9 7F	 INY impl			A:7F X:33 Y:CD P:67 SP:FB - 
D737  A9 7F 8D	 LDA #			A:7F X:33 Y:CE P:E5 SP:FB - 
D739  8D 78 06	 STA abs			A:7F X:33 Y:CE P:65 SP:FB - 
D73C  20 80 F9	 JSR abs			A:7F X:33 Y:CE P:65 SP:FB - 
F980  38 A9 81	 SEC impl			A:7F X:33 Y:CE P:65 SP:F9 - 
F981  A9 81 60	 LDA #			A:7F X:33 Y:CE P:65 SP:F9 - 
F983  60 50 07	 RTS impl			A:81 X:33 Y:CE P:E5 SP:F9 - 
D73F  ED 78 06	 SBC abs			A:81 X:33 Y:CE P:E5 SP:FB - 
D742  20 84 F9	 JSR abs			A:02 X:33 Y:CE P:65 SP:FB - 
F984  50 07 90	 BVC rel			A:02 X:33 Y:CE P:65 SP:F9 - 
F986  90 05 C9	 BCC rel			A:02 X:33 Y:CE P:65 SP:F9 - 
F988  C9 02 D0	 CMP #			A:02 X:33 Y:CE P:65 SP:F9 - 
F98A  D0 01 60	 BNE rel			A:02 X:33 Y:CE P:67 SP:F9 - 
F98C  60 84 00	 RTS impl			A:02 X:33 Y:CE P:67 SP:F9 - 
D745  C8 A9 40	 INY impl			A:02 X:33 Y:CE P:67 SP:FB - 
D746  A9 40 8D	 LDA #			A:02 X:33 Y:CF P:E5 SP:FB - 
D748  8D 78 06	 STA abs			A:40 X:33 Y:CF P:65 SP:FB - 
D74B  20 89 F8	 JSR abs			A:40 X:33 Y:CF P:65 SP:FB - 
F889  24 01 A9	 BIT zpg			A:40 X:33 Y:CF P:65 SP:F9 - 
F88B  A9 40 60	 LDA #			A:40 X:33 Y:CF P:E5 SP:F9 - 
F88D  60 30 07	 RTS impl			A:40 X:33 Y:CF P:65 SP:F9 - 
D74E  AA EC 78	 TAX impl			A:40 X:33 Y:CF P:65 SP:FB - 
D74F  EC 78 06	 CPX abs			A:40 X:40 Y:CF P:65 SP:FB - 
D752  20 8E F8	 JSR abs			A:40 X:40 Y:CF P:67 SP:FB - 
F88E  30 07 90	 BMI rel			A:40 X:40 Y:CF P:67 SP:F9 - 
F890  90 05 D0	 BCC rel			A:40 X:40 Y:CF P:67 SP:F9 - 
F892  D0 03 50	 BNE rel			A:40 X:40 Y:CF P:67 SP:F9 - 
F894  50 01 60	 BVC rel			A:40 X:40 Y:CF P:67 SP:F9 - 
F896  60 84 00	 RTS impl			A:40 X:40 Y:CF P:67 SP:F9 - 
D755  C8 A9 3F	 INY impl			A:40 X:40 Y:CF P:67 SP:FB - 
D756  A9 3F 8D	 LDA #			A:40 X:40 Y:D0 P:E5 SP:FB - 
D758  8D 78 06	 STA abs			A:3F X:40 Y:D0 P:65 SP:FB - 
D75B  20 9A F8	 JSR abs			A:3F X:40 Y:D0 P:65 SP:FB - 
F89A  B8 60 F0	 CLV impl			A:3F X:40 Y:D0 P:65 SP:F9 - 
F89B  60 F0 07	 RTS impl			A:3F X:40 Y:D0 P:25 SP:F9 - 
D75E  EC 78 06	 CPX abs			A:3F X:40 Y:D0 P:25 SP:FB - 
D761  20 9C F8	 JSR abs			A:3F X:40 Y:D0 P:25 SP:FB - 
F89C  F0 07 30	 BEQ rel			A:3F X:40 Y:D0 P:25 SP:F9 - 
F89E  30 05 90	 BMI rel			A:3F X:40 Y:D0 P:25 SP:F9 - 
F8A0  90 03 70	 BCC rel			A:3F X:40 Y:D0 P:25 SP:F9 - 
F8A2  70 01 60	 BVS rel			A:3F X:40 Y:D0 P:25 SP:F9 - 
F8A4  60 84 00	 RTS impl			A:3F X:40 Y:D0 P:25 SP:F9 - 
D764  C8 A9 41	 INY impl			A:3F X:40 Y:D0 P:25 SP:FB - 
D765  A9 41 8D	 LDA #			A:3F X:40 Y:D1 P:A5 SP:FB - 
D767  8D 78 06	 STA abs			A:41 X:40 Y:D1 P:25 SP:FB - 
D76A  EC 78 06	 CPX abs			A:41 X:40 Y:D1 P:25 SP:FB - 
D76D  20 A8 F8	 JSR abs			A:41 X:40 Y:D1 P:A4 SP:FB - 
F8A8  F0 05 10	 BEQ rel			A:41 X:40 Y:D1 P:A4 SP:F9 - 
F8AA  10 03 10	 BPL rel			A:41 X:40 Y:D1 P:A4 SP:F9 - 
F8AC  10 01 60	 BPL rel			A:41 X:40 Y:D1 P:A4 SP:F9 - 
F8AE  60 84 00	 RTS impl			A:41 X:40 Y:D1 P:A4 SP:F9 - 
D770  C8 A9 00	 INY impl			A:41 X:40 Y:D1 P:A4 SP:FB - 
D771  A9 00 8D	 LDA #			A:41 X:40 Y:D2 P:A4 SP:FB - 
D773  8D 78 06	 STA abs			A:00 X:40 Y:D2 P:26 SP:FB - 
D776  20 B2 F8	 JSR abs			A:00 X:40 Y:D2 P:26 SP:FB - 
F8B2  A9 80 60	 LDA #			A:00 X:40 Y:D2 P:26 SP:F9 - 
F8B4  60 F0 05	 RTS impl			A:80 X:40 Y:D2 P:A4 SP:F9 - 
D779  AA EC 78	 TAX impl			A:80 X:40 Y:D2 P:A4 SP:FB - 
D77A  EC 78 06	 CPX abs			A:80 X:80 Y:D2 P:A4 SP:FB - 
D77D  20 B5 F8	 JSR abs			A:80 X:80 Y:D2 P:A5 SP:FB - 
F8B5  F0 05 10	 BEQ rel			A:80 X:80 Y:D2 P:A5 SP:F9 - 
F8B7  10 03 90	 BPL rel			A:80 X:80 Y:D2 P:A5 SP:F9 - 
F8B9  90 01 60	 BCC rel			A:80 X:80 Y:D2 P:A5 SP:F9 - 
F8BB  60 84 00	 RTS impl			A:80 X:80 Y:D2 P:A5 SP:F9 - 
D780  C8 A9 80	 INY impl			A:80 X:80 Y:D2 P:A5 SP:FB - 
D781  A9 80 8D	 LDA #			A:80 X:80 Y:D3 P:A5 SP:FB - 
D783  8D 78 06	 STA abs			A:80 X:80 Y:D3 P:A5 SP:FB - 
D786  EC 78 06	 CPX abs			A:80 X:80 Y:D3 P:A5 SP:FB - 
D789  20 BF F8	 JSR abs			A:80 X:80 Y:D3 P:27 SP:FB - 
F8BF  D0 05 30	 BNE rel			A:80 X:80 Y:D3 P:27 SP:F9 - 
F8C1  30 03 90	 BMI rel			A:80 X:80 Y:D3 P:27 SP:F9 - 
F8C3  90 01 60	 BCC rel			A:80 X:80 Y:D3 P:27 SP:F9 - 
F8C5  60 84 00	 RTS impl			A:80 X:80 Y:D3 P:27 SP:F9 - 
D78C  C8 A9 81	 INY impl			A:80 X:80 Y:D3 P:27 SP:FB - 
D78D  A9 81 8D	 LDA #			A:80 X:80 Y:D4 P:A5 SP:FB - 
D78F  8D 78 06	 STA abs			A:81 X:80 Y:D4 P:A5 SP:FB - 
D792  EC 78 06	 CPX abs			A:81 X:80 Y:D4 P:A5 SP:FB - 
D795  20 C9 F8	 JSR abs			A:81 X:80 Y:D4 P:A4 SP:FB - 
F8C9  B0 05 F0	 BCS rel			A:81 X:80 Y:D4 P:A4 SP:F9 - 
F8CB  F0 03 10	 BEQ rel			A:81 X:80 Y:D4 P:A4 SP:F9 - 
F8CD  10 01 60	 BPL rel			A:81 X:80 Y:D4 P:A4 SP:F9 - 
F8CF  60 84 00	 RTS impl			A:81 X:80 Y:D4 P:A4 SP:F9 - 
D798  C8 A9 7F	 INY impl			A:81 X:80 Y:D4 P:A4 SP:FB - 
D799  A9 7F 8D	 LDA #			A:81 X:80 Y:D5 P:A4 SP:FB - 
D79B  8D 78 06	 STA abs			A:7F X:80 Y:D5 P:24 SP:FB - 
D79E  EC 78 06	 CPX abs			A:7F X:80 Y:D5 P:24 SP:FB - 
D7A1  20 D3 F8	 JSR abs			A:7F X:80 Y:D5 P:25 SP:FB - 
F8D3  90 05 F0	 BCC rel			A:7F X:80 Y:D5 P:25 SP:F9 - 
F8D5  F0 03 30	 BEQ rel			A:7F X:80 Y:D5 P:25 SP:F9 - 
F8D7  30 01 60	 BMI rel			A:7F X:80 Y:D5 P:25 SP:F9 - 
F8D9  60 84 00	 RTS impl			A:7F X:80 Y:D5 P:25 SP:F9 - 
D7A4  C8 98 AA	 INY impl			A:7F X:80 Y:D5 P:25 SP:FB - 
D7A5  98 AA A9	 TYA impl			A:7F X:80 Y:D6 P:A5 SP:FB - 
D7A6  AA A9 40	 TAX impl			A:D6 X:80 Y:D6 P:A5 SP:FB - 
D7A7  A9 40 8D	 LDA #			A:D6 X:D6 Y:D6 P:A5 SP:FB - 
D7A9  8D 78 06	 STA abs			A:40 X:D6 Y:D6 P:25 SP:FB - 
D7AC  20 DD F8	 JSR abs			A:40 X:D6 Y:D6 P:25 SP:FB - 
F8DD  24 01 A0	 BIT zpg			A:40 X:D6 Y:D6 P:25 SP:F9 - 
F8DF  A0 40 60	 LDY #			A:40 X:D6 Y:D6 P:E5 SP:F9 - 
F8E1  60 30 07	 RTS impl			A:40 X:D6 Y:40 P:65 SP:F9 - 
D7AF  CC 78 06	 CPY abs			A:40 X:D6 Y:40 P:65 SP:FB - 
D7B2  20 E2 F8	 JSR abs			A:40 X:D6 Y:40 P:67 SP:FB - 
F8E2  30 07 90	 BMI rel			A:40 X:D6 Y:40 P:67 SP:F9 - 
F8E4  90 05 D0	 BCC rel			A:40 X:D6 Y:40 P:67 SP:F9 - 
F8E6  D0 03 50	 BNE rel			A:40 X:D6 Y:40 P:67 SP:F9 - 
F8E8  50 01 60	 BVC rel			A:40 X:D6 Y:40 P:67 SP:F9 - 
F8EA  60 86 00	 RTS impl			A:40 X:D6 Y:40 P:67 SP:F9 - 
D7B5  E8 A9 3F	 INX impl			A:40 X:D6 Y:40 P:67 SP:FB - 
D7B6  A9 3F 8D	 LDA #			A:40 X:D7 Y:40 P:E5 SP:FB - 
D7B8  8D 78 06	 STA abs			A:3F X:D7 Y:40 P:65 SP:FB - 
D7BB  20 EE F8	 JSR abs			A:3F X:D7 Y:40 P:65 SP:FB - 
F8EE  B8 60 F0	 CLV impl			A:3F X:D7 Y:40 P:65 SP:F9 - 
F8EF  60 F0 07	 RTS impl			A:3F X:D7 Y:40 P:25 SP:F9 - 
D7BE  CC 78 06	 CPY abs			A:3F X:D7 Y:40 P:25 SP:FB - 
D7C1  20 F0 F8	 JSR abs			A:3F X:D7 Y:40 P:25 SP:FB - 
F8F0  F0 07 30	 BEQ rel			A:3F X:D7 Y:40 P:25 SP:F9 - 
F8F2  30 05 90	 BMI rel			A:3F X:D7 Y:40 P:25 SP:F9 - 
F8F4  90 03 70	 BCC rel			A:3F X:D7 Y:40 P:25 SP:F9 - 
F8F6  70 01 60	 BVS rel			A:3F X:D7 Y:40 P:25 SP:F9 - 
F8F8  60 86 00	 RTS impl			A:3F X:D7 Y:40 P:25 SP:F9 - 
D7C4  E8 A9 41	 INX impl			A:3F X:D7 Y:40 P:25 SP:FB - 
D7C5  A9 41 8D	 LDA #			A:3F X:D8 Y:40 P:A5 SP:FB - 
D7C7  8D 78 06	 STA abs			A:41 X:D8 Y:40 P:25 SP:FB - 
D7CA  CC 78 06	 CPY abs			A:41 X:D8 Y:40 P:25 SP:FB - 
D7CD  20 FC F8	 JSR abs			A:41 X:D8 Y:40 P:A4 SP:FB - 
F8FC  F0 05 10	 BEQ rel			A:41 X:D8 Y:40 P:A4 SP:F9 - 
F8FE  10 03 10	 BPL rel			A:41 X:D8 Y:40 P:A4 SP:F9 - 
F900  10 01 60	 BPL rel			A:41 X:D8 Y:40 P:A4 SP:F9 - 
F902  60 86 00	 RTS impl			A:41 X:D8 Y:40 P:A4 SP:F9 - 
D7D0  E8 A9 00	 INX impl			A:41 X:D8 Y:40 P:A4 SP:FB - 
D7D1  A9 00 8D	 LDA #			A:41 X:D9 Y:40 P:A4 SP:FB - 
D7D3  8D 78 06	 STA abs			A:00 X:D9 Y:40 P:26 SP:FB - 
D7D6  20 06 F9	 JSR abs			A:00 X:D9 Y:40 P:26 SP:FB - 
F906  A0 80 60	 LDY #			A:00 X:D9 Y:40 P:26 SP:F9 - 
F908  60 F0 05	 RTS impl			A:00 X:D9 Y:80 P:A4 SP:F9 - 
D7D9  CC 78 06	 CPY abs			A:00 X:D9 Y:80 P:A4 SP:FB - 
D7DC  20 09 F9	 JSR abs			A:00 X:D9 Y:80 P:A5 SP:FB - 
F909  F0 05 10	 BEQ rel			A:00 X:D9 Y:80 P:A5 SP:F9 - 
F90B  10 03 90	 BPL rel			A:00 X:D9 Y:80 P:A5 SP:F9 - 
F90D  90 01 60	 BCC rel			A:00 X:D9 Y:80 P:A5 SP:F9 - 
F90F  60 86 00	 RTS impl			A:00 X:D9 Y:80 P:A5 SP:F9 - 
D7DF  E8 A9 80	 INX impl			A:00 X:D9 Y:80 P:A5 SP:FB - 
D7E0  A9 80 8D	 LDA #			A:00 X:DA Y:80 P:A5 SP:FB - 
D7E2  8D 78 06	 STA abs			A:80 X:DA Y:80 P:A5 SP:FB - 
D7E5  CC 78 06	 CPY abs			A:80 X:DA Y:80 P:A5 SP:FB - 
D7E8  20 13 F9	 JSR abs			A:80 X:DA Y:80 P:27 SP:FB - 
F913  D0 05 30	 BNE rel			A:80 X:DA Y:80 P:27 SP:F9 - 
F915  30 03 90	 BMI rel			A:80 X:DA Y:80 P:27 SP:F9 - 
F917  90 01 60	 BCC rel			A:80 X:DA Y:80 P:27 SP:F9 - 
F919  60 86 00	 RTS impl			A:80 X:DA Y:80 P:27 SP:F9 - 
D7EB  E8 A9 81	 INX impl			A:80 X:DA Y:80 P:27 SP:FB - 
D7EC  A9 81 8D	 LDA #			A:80 X:DB Y:80 P:A5 SP:FB - 
D7EE  8D 78 06	 STA abs			A:81 X:DB Y:80 P:A5 SP:FB - 
D7F1  CC 78 06	 CPY abs			A:81 X:DB Y:80 P:A5 SP:FB - 
D7F4  20 1D F9	 JSR abs			A:81 X:DB Y:80 P:A4 SP:FB - 
F91D  B0 05 F0	 BCS rel			A:81 X:DB Y:80 P:A4 SP:F9 - 
F91F  F0 03 10	 BEQ rel			A:81 X:DB Y:80 P:A4 SP:F9 - 
F921  10 01 60	 BPL rel			A:81 X:DB Y:80 P:A4 SP:F9 - 
F923  60 86 00	 RTS impl			A:81 X:DB Y:80 P:A4 SP:F9 - 
D7F7  E8 A9 7F	 INX impl			A:81 X:DB Y:80 P:A4 SP:FB - 
D7F8  A9 7F 8D	 LDA #			A:81 X:DC Y:80 P:A4 SP:FB - 
D7FA  8D 78 06	 STA abs			A:7F X:DC Y:80 P:24 SP:FB - 
D7FD  CC 78 06	 CPY abs			A:7F X:DC Y:80 P:24 SP:FB - 
D800  20 27 F9	 JSR abs			A:7F X:DC Y:80 P:25 SP:FB - 
F927  90 05 F0	 BCC rel			A:7F X:DC Y:80 P:25 SP:F9 - 
F929  F0 03 30	 BEQ rel			A:7F X:DC Y:80 P:25 SP:F9 - 
F92B  30 01 60	 BMI rel			A:7F X:DC Y:80 P:25 SP:F9 - 
F92D  60 86 00	 RTS impl			A:7F X:DC Y:80 P:25 SP:F9 - 
D803  E8 8A A8	 INX impl			A:7F X:DC Y:80 P:25 SP:FB - 
D804  8A A8 20	 TXA impl			A:7F X:DD Y:80 P:A5 SP:FB - 
D805  A8 20 90	 TAY impl			A:DD X:DD Y:80 P:A5 SP:FB - 
D806  20 90 F9	 JSR abs			A:DD X:DD Y:DD P:A5 SP:FB - 
F990  A2 55 A9	 LDX #			A:DD X:DD Y:DD P:A5 SP:F9 - 
F992  A9 FF 85	 LDA #			A:DD X:55 Y:DD P:25 SP:F9 - 
F994  85 01 EA	 STA zpg			A:FF X:55 Y:DD P:A5 SP:F9 - 
F996  EA 24 01	 NOP impl			A:FF X:55 Y:DD P:A5 SP:F9 - 
F997  24 01 38	 BIT zpg			A:FF X:55 Y:DD P:A5 SP:F9 - 
F999  38 A9 01	 SEC impl			A:FF X:55 Y:DD P:E5 SP:F9 - 
F99A  A9 01 60	 LDA #			A:FF X:55 Y:DD P:E5 SP:F9 - 
F99C  60 90 1B	 RTS impl			A:01 X:55 Y:DD P:65 SP:F9 - 
D809  8D 78 06	 STA abs			A:01 X:55 Y:DD P:65 SP:FB - 
D80C  4E 78 06	 LSR abs			A:01 X:55 Y:DD P:65 SP:FB - 
D80F  AD 78 06	 LDA abs			A:01 X:55 Y:DD P:67 SP:FB - 
D812  20 9D F9	 JSR abs			A:00 X:55 Y:DD P:67 SP:FB - 
F99D  90 1B D0	 BCC rel			A:00 X:55 Y:DD P:67 SP:F9 - 
F99F  D0 19 30	 BNE rel			A:00 X:55 Y:DD P:67 SP:F9 - 
F9A1  30 17 50	 BMI rel			A:00 X:55 Y:DD P:67 SP:F9 - 
F9A3  50 15 C9	 BVC rel			A:00 X:55 Y:DD P:67 SP:F9 - 
F9A5  C9 00 D0	 CMP #			A:00 X:55 Y:DD P:67 SP:F9 - 
F9A7  D0 11 B8	 BNE rel			A:00 X:55 Y:DD P:67 SP:F9 - 
F9A9  B8 A9 AA	 CLV impl			A:00 X:55 Y:DD P:67 SP:F9 - 
F9AA  A9 AA 60	 LDA #			A:00 X:55 Y:DD P:27 SP:F9 - 
F9AC  60 B0 0B	 RTS impl			A:AA X:55 Y:DD P:A5 SP:F9 - 
D815  C8 8D 78	 INY impl			A:AA X:55 Y:DD P:A5 SP:FB - 
D816  8D 78 06	 STA abs			A:AA X:55 Y:DE P:A5 SP:FB - 
D819  4E 78 06	 LSR abs			A:AA X:55 Y:DE P:A5 SP:FB - 
D81C  AD 78 06	 LDA abs			A:AA X:55 Y:DE P:24 SP:FB - 
D81F  20 AD F9	 JSR abs			A:55 X:55 Y:DE P:24 SP:FB - 
F9AD  B0 0B F0	 BCS rel			A:55 X:55 Y:DE P:24 SP:F9 - 
F9AF  F0 09 30	 BEQ rel			A:55 X:55 Y:DE P:24 SP:F9 - 
F9B1  30 07 70	 BMI rel			A:55 X:55 Y:DE P:24 SP:F9 - 
F9B3  70 05 C9	 BVS rel			A:55 X:55 Y:DE P:24 SP:F9 - 
F9B5  C9 55 D0	 CMP #			A:55 X:55 Y:DE P:24 SP:F9 - 
F9B7  D0 01 60	 BNE rel			A:55 X:55 Y:DE P:27 SP:F9 - 
F9B9  60 84 00	 RTS impl			A:55 X:55 Y:DE P:27 SP:F9 - 
D822  C8 20 BD	 INY impl			A:55 X:55 Y:DE P:27 SP:FB - 
D823  20 BD F9	 JSR abs			A:55 X:55 Y:DF P:A5 SP:FB - 
F9BD  24 01 38	 BIT zpg			A:55 X:55 Y:DF P:A5 SP:F9 - 
F9BF  38 A9 80	 SEC impl			A:55 X:55 Y:DF P:E5 SP:F9 - 
F9C0  A9 80 60	 LDA #			A:55 X:55 Y:DF P:E5 SP:F9 - 
F9C2  60 90 1C	 RTS impl			A:80 X:55 Y:DF P:E5 SP:F9 - 
D826  8D 78 06	 STA abs			A:80 X:55 Y:DF P:E5 SP:FB - 
D829  0E 78 06	 ASL abs			A:80 X:55 Y:DF P:E5 SP:FB - 
D82C  AD 78 06	 LDA abs			A:80 X:55 Y:DF P:67 SP:FB - 
D82F  20 C3 F9	 JSR abs			A:00 X:55 Y:DF P:67 SP:FB - 
F9C3  90 1C D0	 BCC rel			A:00 X:55 Y:DF P:67 SP:F9 - 
F9C5  D0 1A 30	 BNE rel			A:00 X:55 Y:DF P:67 SP:F9 - 
F9C7  30 18 50	 BMI rel			A:00 X:55 Y:DF P:67 SP:F9 - 
F9C9  50 16 C9	 BVC rel			A:00 X:55 Y:DF P:67 SP:F9 - 
F9CB  C9 00 D0	 CMP #			A:00 X:55 Y:DF P:67 SP:F9 - 
F9CD  D0 12 B8	 BNE rel			A:00 X:55 Y:DF P:67 SP:F9 - 
F9CF  B8 A9 55	 CLV impl			A:00 X:55 Y:DF P:67 SP:F9 - 
F9D0  A9 55 38	 LDA #			A:00 X:55 Y:DF P:27 SP:F9 - 
F9D2  38 60 B0	 SEC impl			A:55 X:55 Y:DF P:25 SP:F9 - 
F9D3  60 B0 0B	 RTS impl			A:55 X:55 Y:DF P:25 SP:F9 - 
D832  C8 8D 78	 INY impl			A:55 X:55 Y:DF P:25 SP:FB - 
D833  8D 78 06	 STA abs			A:55 X:55 Y:E0 P:A5 SP:FB - 
D836  0E 78 06	 ASL abs			A:55 X:55 Y:E0 P:A5 SP:FB - 
D839  AD 78 06	 LDA abs			A:55 X:55 Y:E0 P:A4 SP:FB - 
D83C  20 D4 F9	 JSR abs			A:AA X:55 Y:E0 P:A4 SP:FB - 
F9D4  B0 0B F0	 BCS rel			A:AA X:55 Y:E0 P:A4 SP:F9 - 
F9D6  F0 09 10	 BEQ rel			A:AA X:55 Y:E0 P:A4 SP:F9 - 
F9D8  10 07 70	 BPL rel			A:AA X:55 Y:E0 P:A4 SP:F9 - 
F9DA  70 05 C9	 BVS rel			A:AA X:55 Y:E0 P:A4 SP:F9 - 
F9DC  C9 AA D0	 CMP #			A:AA X:55 Y:E0 P:A4 SP:F9 - 
F9DE  D0 01 60	 BNE rel			A:AA X:55 Y:E0 P:27 SP:F9 - 
F9E0  60 84 00	 RTS impl			A:AA X:55 Y:E0 P:27 SP:F9 - 
D83F  C8 20 E4	 INY impl			A:AA X:55 Y:E0 P:27 SP:FB - 
D840  20 E4 F9	 JSR abs			A:AA X:55 Y:E1 P:A5 SP:FB - 
F9E4  24 01 38	 BIT zpg			A:AA X:55 Y:E1 P:A5 SP:F9 - 
F9E6  38 A9 01	 SEC impl			A:AA X:55 Y:E1 P:E5 SP:F9 - 
F9E7  A9 01 60	 LDA #			A:AA X:55 Y:E1 P:E5 SP:F9 - 
F9E9  60 90 1C	 RTS impl			A:01 X:55 Y:E1 P:65 SP:F9 - 
D843  8D 78 06	 STA abs			A:01 X:55 Y:E1 P:65 SP:FB - 
D846  6E 78 06	 ROR abs			A:01 X:55 Y:E1 P:65 SP:FB - 
D849  AD 78 06	 LDA abs			A:01 X:55 Y:E1 P:E5 SP:FB - 
D84C  20 EA F9	 JSR abs			A:80 X:55 Y:E1 P:E5 SP:FB - 
F9EA  90 1C F0	 BCC rel			A:80 X:55 Y:E1 P:E5 SP:F9 - 
F9EC  F0 1A 10	 BEQ rel			A:80 X:55 Y:E1 P:E5 SP:F9 - 
F9EE  10 18 50	 BPL rel			A:80 X:55 Y:E1 P:E5 SP:F9 - 
F9F0  50 16 C9	 BVC rel			A:80 X:55 Y:E1 P:E5 SP:F9 - 
F9F2  C9 80 D0	 CMP #			A:80 X:55 Y:E1 P:E5 SP:F9 - 
F9F4  D0 12 B8	 BNE rel			A:80 X:55 Y:E1 P:67 SP:F9 - 
F9F6  B8 18 A9	 CLV impl			A:80 X:55 Y:E1 P:67 SP:F9 - 
F9F7  18 A9 55	 CLC impl			A:80 X:55 Y:E1 P:27 SP:F9 - 
F9F8  A9 55 60	 LDA #			A:80 X:55 Y:E1 P:26 SP:F9 - 
F9FA  60 90 0B	 RTS impl			A:55 X:55 Y:E1 P:24 SP:F9 - 
D84F  C8 8D 78	 INY impl			A:55 X:55 Y:E1 P:24 SP:FB - 
D850  8D 78 06	 STA abs			A:55 X:55 Y:E2 P:A4 SP:FB - 
D853  6E 78 06	 ROR abs			A:55 X:55 Y:E2 P:A4 SP:FB - 
D856  AD 78 06	 LDA abs			A:55 X:55 Y:E2 P:25 SP:FB - 
D859  20 FB F9	 JSR abs			A:2A X:55 Y:E2 P:25 SP:FB - 
F9FB  90 0B F0	 BCC rel			A:2A X:55 Y:E2 P:25 SP:F9 - 
F9FD  F0 09 30	 BEQ rel			A:2A X:55 Y:E2 P:25 SP:F9 - 
F9FF  30 07 70	 BMI rel			A:2A X:55 Y:E2 P:25 SP:F9 - 
FA01  70 05 C9	 BVS rel			A:2A X:55 Y:E2 P:25 SP:F9 - 
FA03  C9 2A D0	 CMP #			A:2A X:55 Y:E2 P:25 SP:F9 - 
FA05  D0 01 60	 BNE rel			A:2A X:55 Y:E2 P:27 SP:F9 - 
FA07  60 84 00	 RTS impl			A:2A X:55 Y:E2 P:27 SP:F9 - 
D85C  C8 20 0A	 INY impl			A:2A X:55 Y:E2 P:27 SP:FB - 
D85D  20 0A FA	 JSR abs			A:2A X:55 Y:E3 P:A5 SP:FB - 
FA0A  24 01 38	 BIT zpg			A:2A X:55 Y:E3 P:A5 SP:F9 - 
FA0C  38 A9 80	 SEC impl			A:2A X:55 Y:E3 P:E5 SP:F9 - 
FA0D  A9 80 60	 LDA #			A:2A X:55 Y:E3 P:E5 SP:F9 - 
FA0F  60 90 1C	 RTS impl			A:80 X:55 Y:E3 P:E5 SP:F9 - 
D860  8D 78 06	 STA abs			A:80 X:55 Y:E3 P:E5 SP:FB - 
D863  2E 78 06	 ROL abs			A:80 X:55 Y:E3 P:E5 SP:FB - 
D866  AD 78 06	 LDA abs			A:80 X:55 Y:E3 P:65 SP:FB - 
D869  20 10 FA	 JSR abs			A:01 X:55 Y:E3 P:65 SP:FB - 
FA10  90 1C F0	 BCC rel			A:01 X:55 Y:E3 P:65 SP:F9 - 
FA12  F0 1A 30	 BEQ rel			A:01 X:55 Y:E3 P:65 SP:F9 - 
FA14  30 18 50	 BMI rel			A:01 X:55 Y:E3 P:65 SP:F9 - 
FA16  50 16 C9	 BVC rel			A:01 X:55 Y:E3 P:65 SP:F9 - 
FA18  C9 01 D0	 CMP #			A:01 X:55 Y:E3 P:65 SP:F9 - 
FA1A  D0 12 B8	 BNE rel			A:01 X:55 Y:E3 P:67 SP:F9 - 
FA1C  B8 18 A9	 CLV impl			A:01 X:55 Y:E3 P:67 SP:F9 - 
FA1D  18 A9 55	 CLC impl			A:01 X:55 Y:E3 P:27 SP:F9 - 
FA1E  A9 55 60	 LDA #			A:01 X:55 Y:E3 P:26 SP:F9 - 
FA20  60 B0 0B	 RTS impl			A:55 X:55 Y:E3 P:24 SP:F9 - 
D86C  C8 8D 78	 INY impl			A:55 X:55 Y:E3 P:24 SP:FB - 
D86D  8D 78 06	 STA abs			A:55 X:55 Y:E4 P:A4 SP:FB - 
D870  2E 78 06	 ROL abs			A:55 X:55 Y:E4 P:A4 SP:FB - 
D873  AD 78 06	 LDA abs			A:55 X:55 Y:E4 P:A4 SP:FB - 
D876  20 21 FA	 JSR abs			A:AA X:55 Y:E4 P:A4 SP:FB - 
FA21  B0 0B F0	 BCS rel			A:AA X:55 Y:E4 P:A4 SP:F9 - 
FA23  F0 09 10	 BEQ rel			A:AA X:55 Y:E4 P:A4 SP:F9 - 
FA25  10 07 70	 BPL rel			A:AA X:55 Y:E4 P:A4 SP:F9 - 
FA27  70 05 C9	 BVS rel			A:AA X:55 Y:E4 P:A4 SP:F9 - 
FA29  C9 AA D0	 CMP #			A:AA X:55 Y:E4 P:A4 SP:F9 - 
FA2B  D0 01 60	 BNE rel			A:AA X:55 Y:E4 P:27 SP:F9 - 
FA2D  60 84 00	 RTS impl			A:AA X:55 Y:E4 P:27 SP:F9 - 
D879  A9 FF 8D	 LDA #			A:AA X:55 Y:E4 P:27 SP:FB - 
D87B  8D 78 06	 STA abs			A:FF X:55 Y:E4 P:A5 SP:FB - 
D87E  85 01 24	 STA zpg			A:FF X:55 Y:E4 P:A5 SP:FB - 
D880  24 01 38	 BIT zpg			A:FF X:55 Y:E4 P:A5 SP:FB - 
D882  38 EE 78	 SEC impl			A:FF X:55 Y:E4 P:E5 SP:FB - 
D883  EE 78 06	 INC abs			A:FF X:55 Y:E4 P:E5 SP:FB - 
D886  D0 0D 30	 BNE rel			A:FF X:55 Y:E4 P:67 SP:FB - 
D888  30 0B 50	 BMI rel			A:FF X:55 Y:E4 P:67 SP:FB - 
D88A  50 09 90	 BVC rel			A:FF X:55 Y:E4 P:67 SP:FB - 
D88C  90 07 AD	 BCC rel			A:FF X:55 Y:E4 P:67 SP:FB - 
D88E  AD 78 06	 LDA abs			A:FF X:55 Y:E4 P:67 SP:FB - 
D891  C9 00 F0	 CMP #			A:00 X:55 Y:E4 P:67 SP:FB - 
D893  F0 04 A9	 BEQ rel			A:00 X:55 Y:E4 P:67 SP:FB - 
D899  A9 7F 8D	 LDA #			A:00 X:55 Y:E4 P:67 SP:FB - 
D89B  8D 78 06	 STA abs			A:7F X:55 Y:E4 P:65 SP:FB - 
D89E  B8 18 EE	 CLV impl			A:7F X:55 Y:E4 P:65 SP:FB - 
D89F  18 EE 78	 CLC impl			A:7F X:55 Y:E4 P:25 SP:FB - 
D8A0  EE 78 06	 INC abs			A:7F X:55 Y:E4 P:24 SP:FB - 
D8A3  F0 0D 10	 BEQ rel			A:7F X:55 Y:E4 P:A4 SP:FB - 
D8A5  10 0B 70	 BPL rel			A:7F X:55 Y:E4 P:A4 SP:FB - 
D8A7  70 09 B0	 BVS rel			A:7F X:55 Y:E4 P:A4 SP:FB - 
D8A9  B0 07 AD	 BCS rel			A:7F X:55 Y:E4 P:A4 SP:FB - 
D8AB  AD 78 06	 LDA abs			A:7F X:55 Y:E4 P:A4 SP:FB - 
D8AE  C9 80 F0	 CMP #			A:80 X:55 Y:E4 P:A4 SP:FB - 
D8B0  F0 04 A9	 BEQ rel			A:80 X:55 Y:E4 P:27 SP:FB - 
D8B6  A9 00 8D	 LDA #			A:80 X:55 Y:E4 P:27 SP:FB - 
D8B8  8D 78 06	 STA abs			A:00 X:55 Y:E4 P:27 SP:FB - 
D8BB  24 01 38	 BIT zpg			A:00 X:55 Y:E4 P:27 SP:FB - 
D8BD  38 CE 78	 SEC impl			A:00 X:55 Y:E4 P:E7 SP:FB - 
D8BE  CE 78 06	 DEC abs			A:00 X:55 Y:E4 P:E7 SP:FB - 
D8C1  F0 0D 10	 BEQ rel			A:00 X:55 Y:E4 P:E5 SP:FB - 
D8C3  10 0B 50	 BPL rel			A:00 X:55 Y:E4 P:E5 SP:FB - 
D8C5  50 09 90	 BVC rel			A:00 X:55 Y:E4 P:E5 SP:FB - 
D8C7  90 07 AD	 BCC rel			A:00 X:55 Y:E4 P:E5 SP:FB - 
D8C9  AD 78 06	 LDA abs			A:00 X:55 Y:E4 P:E5 SP:FB - 
D8CC  C9 FF F0	 CMP #			A:FF X:55 Y:E4 P:E5 SP:FB - 
D8CE  F0 04 A9	 BEQ rel			A:FF X:55 Y:E4 P:67 SP:FB - 
D8D4  A9 80 8D	 LDA #			A:FF X:55 Y:E4 P:67 SP:FB - 
D8D6  8D 78 06	 STA abs			A:80 X:55 Y:E4 P:E5 SP:FB - 
D8D9  B8 18 CE	 CLV impl			A:80 X:55 Y:E4 P:E5 SP:FB - 
D8DA  18 CE 78	 CLC impl			A:80 X:55 Y:E4 P:A5 SP:FB - 
D8DB  CE 78 06	 DEC abs			A:80 X:55 Y:E4 P:A4 SP:FB - 
D8DE  F0 0D 30	 BEQ rel			A:80 X:55 Y:E4 P:24 SP:FB - 
D8E0  30 0B 70	 BMI rel			A:80 X:55 Y:E4 P:24 SP:FB - 
D8E2  70 09 B0	 BVS rel			A:80 X:55 Y:E4 P:24 SP:FB - 
D8E4  B0 07 AD	 BCS rel			A:80 X:55 Y:E4 P:24 SP:FB - 
D8E6  AD 78 06	 LDA abs			A:80 X:55 Y:E4 P:24 SP:FB - 
D8E9  C9 7F F0	 CMP #			A:7F X:55 Y:E4 P:24 SP:FB - 
D8EB  F0 04 A9	 BEQ rel			A:7F X:55 Y:E4 P:27 SP:FB - 
D8F1  A9 01 8D	 LDA #			A:7F X:55 Y:E4 P:27 SP:FB - 
D8F3  8D 78 06	 STA abs			A:01 X:55 Y:E4 P:25 SP:FB - 
D8F6  CE 78 06	 DEC abs			A:01 X:55 Y:E4 P:25 SP:FB - 
D8F9  F0 04 A9	 BEQ rel			A:01 X:55 Y:E4 P:27 SP:FB - 
D8FF  60 A9 A3	 RTS impl			A:01 X:55 Y:E4 P:27 SP:FB - 
C618  20 00 D9	 JSR abs			A:01 X:55 Y:E4 P:27 SP:FD - 
D900  A9 A3 85	 LDA #			A:01 X:55 Y:E4 P:27 SP:FB - 
D902  85 33 A9	 STA zpg			A:A3 X:55 Y:E4 P:A5 SP:FB - 
D904  A9 89 8D	 LDA #			A:A3 X:55 Y:E4 P:A5 SP:FB - 
D906  8D 00 03	 STA abs			A:89 X:55 Y:E4 P:A5 SP:FB - 
D909  A9 12 8D	 LDA #			A:89 X:55 Y:E4 P:A5 SP:FB - 
D90B  8D 45 02	 STA abs			A:12 X:55 Y:E4 P:25 SP:FB - 
D90E  A9 FF 85	 LDA #			A:12 X:55 Y:E4 P:25 SP:FB - 
D910  85 01 A2	 STA zpg			A:FF X:55 Y:E4 P:A5 SP:FB - 
D912  A2 65 A9	 LDX #			A:FF X:55 Y:E4 P:A5 SP:FB - 
D914  A9 00 85	 LDA #			A:FF X:65 Y:E4 P:25 SP:FB - 
D916  85 89 A9	 STA zpg			A:00 X:65 Y:E4 P:27 SP:FB - 
D918  A9 03 85	 LDA #			A:00 X:65 Y:E4 P:27 SP:FB - 
D91A  85 8A A0	 STA zpg			A:03 X:65 Y:E4 P:25 SP:FB - 
D91C  A0 00 38	 LDY #			A:03 X:65 Y:E4 P:25 SP:FB - 
D91E  38 A9 00	 SEC impl			A:03 X:65 Y:00 P:27 SP:FB - 
D91F  A9 00 B8	 LDA #			A:03 X:65 Y:00 P:27 SP:FB - 
D921  B8 B1 89	 CLV impl			A:00 X:65 Y:00 P:27 SP:FB - 
D922  B1 89 F0	 LDA ind,Y			A:00 X:65 Y:00 P:27 SP:FB - 
D924  F0 0C 90	 BEQ rel			A:89 X:65 Y:00 P:A5 SP:FB - 
D926  90 0A 70	 BCC rel			A:89 X:65 Y:00 P:A5 SP:FB - 
D928  70 08 C9	 BVS rel			A:89 X:65 Y:00 P:A5 SP:FB - 
D92A  C9 89 D0	 CMP #			A:89 X:65 Y:00 P:A5 SP:FB - 
D92C  D0 04 E0	 BNE rel			A:89 X:65 Y:00 P:27 SP:FB - 
D92E  E0 65 F0	 CPX #			A:89 X:65 Y:00 P:27 SP:FB - 
D930  F0 04 A9	 BEQ rel			A:89 X:65 Y:00 P:27 SP:FB - 
D936  A9 FF 85	 LDA #			A:89 X:65 Y:00 P:27 SP:FB - 
D938  85 97 85	 STA zpg			A:FF X:65 Y:00 P:A5 SP:FB - 
D93A  85 98 24	 STA zpg			A:FF X:65 Y:00 P:A5 SP:FB - 
D93C  24 98 A0	 BIT zpg			A:FF X:65 Y:00 P:A5 SP:FB - 
D93E  A0 34 B1	 LDY #			A:FF X:65 Y:00 P:E5 SP:FB - 
D940  B1 97 C9	 LDA ind,Y			A:FF X:65 Y:34 P:65 SP:FB - 
D942  C9 A3 D0	 CMP #			A:A3 X:65 Y:34 P:E5 SP:FB - 
D944  D0 02 B0	 BNE rel			A:A3 X:65 Y:34 P:67 SP:FB - 
D946  B0 04 A9	 BCS rel			A:A3 X:65 Y:34 P:67 SP:FB - 
D94C  A5 00 48	 LDA zpg			A:A3 X:65 Y:34 P:67 SP:FB - 
D94E  48 A9 46	 PHA impl			A:00 X:65 Y:34 P:67 SP:FB - 
D94F  A9 46 85	 LDA #			A:00 X:65 Y:34 P:67 SP:FA - 
D951  85 FF A9	 STA zpg			A:46 X:65 Y:34 P:65 SP:FA - 
D953  A9 01 85	 LDA #			A:46 X:65 Y:34 P:65 SP:FA - 
D955  85 00 A0	 STA zpg			A:01 X:65 Y:34 P:65 SP:FA - 
D957  A0 FF B1	 LDY #			A:01 X:65 Y:34 P:65 SP:FA - 
D959  B1 FF C9	 LDA ind,Y			A:01 X:65 Y:FF P:E5 SP:FA - 
D95B  C9 12 F0	 CMP #			A:12 X:65 Y:FF P:65 SP:FA - 
D95D  F0 04 68	 BEQ rel			A:12 X:65 Y:FF P:67 SP:FA - 
D963  68 85 00	 PLA impl			A:12 X:65 Y:FF P:67 SP:FA - 
D964  85 00 A2	 STA zpg			A:00 X:65 Y:FF P:67 SP:FB - 
D966  A2 ED A9	 LDX #			A:00 X:65 Y:FF P:67 SP:FB - 
D968  A9 00 85	 LDA #			A:00 X:ED Y:FF P:E5 SP:FB - 
D96A  85 33 A9	 STA zpg			A:00 X:ED Y:FF P:67 SP:FB - 
D96C  A9 04 85	 LDA #			A:00 X:ED Y:FF P:67 SP:FB - 
D96E  85 34 A0	 STA zpg			A:04 X:ED Y:FF P:65 SP:FB - 
D970  A0 00 18	 LDY #			A:04 X:ED Y:FF P:65 SP:FB - 
D972  18 A9 FF	 CLC impl			A:04 X:ED Y:00 P:67 SP:FB - 
D973  A9 FF 85	 LDA #			A:04 X:ED Y:00 P:66 SP:FB - 
D975  85 01 24	 STA zpg			A:FF X:ED Y:00 P:E4 SP:FB - 
D977  24 01 A9	 BIT zpg			A:FF X:ED Y:00 P:E4 SP:FB - 
D979  A9 AA 8D	 LDA #			A:FF X:ED Y:00 P:E4 SP:FB - 
D97B  8D 00 04	 STA abs			A:AA X:ED Y:00 P:E4 SP:FB - 
D97E  A9 55 11	 LDA #			A:AA X:ED Y:00 P:E4 SP:FB - 
D980  11 33 B0	 ORA ind,Y			A:55 X:ED Y:00 P:64 SP:FB - 
D982  B0 08 10	 BCS rel			A:FF X:ED Y:00 P:E4 SP:FB - 
D984  10 06 C9	 BPL rel			A:FF X:ED Y:00 P:E4 SP:FB - 
D986  C9 FF D0	 CMP #			A:FF X:ED Y:00 P:E4 SP:FB - 
D988  D0 02 70	 BNE rel			A:FF X:ED Y:00 P:67 SP:FB - 
D98A  70 02 86	 BVS rel			A:FF X:ED Y:00 P:67 SP:FB - 
D98E  E8 38 B8	 INX impl			A:FF X:ED Y:00 P:67 SP:FB - 
D98F  38 B8 A9	 SEC impl			A:FF X:EE Y:00 P:E5 SP:FB - 
D990  B8 A9 00	 CLV impl			A:FF X:EE Y:00 P:E5 SP:FB - 
D991  A9 00 11	 LDA #			A:FF X:EE Y:00 P:A5 SP:FB - 
D993  11 33 F0	 ORA ind,Y			A:00 X:EE Y:00 P:27 SP:FB - 
D995  F0 06 70	 BEQ rel			A:AA X:EE Y:00 P:A5 SP:FB - 
D997  70 04 90	 BVS rel			A:AA X:EE Y:00 P:A5 SP:FB - 
D999  90 02 30	 BCC rel			A:AA X:EE Y:00 P:A5 SP:FB - 
D99B  30 02 86	 BMI rel			A:AA X:EE Y:00 P:A5 SP:FB - 
D99F  E8 18 24	 INX impl			A:AA X:EE Y:00 P:A5 SP:FB - 
D9A0  18 24 01	 CLC impl			A:AA X:EF Y:00 P:A5 SP:FB - 
D9A1  24 01 A9	 BIT zpg			A:AA X:EF Y:00 P:A4 SP:FB - 
D9A3  A9 55 31	 LDA #			A:AA X:EF Y:00 P:E4 SP:FB - 
D9A5  31 33 D0	 AND ind,Y			A:55 X:EF Y:00 P:64 SP:FB - 
D9A7  D0 06 50	 BNE rel			A:00 X:EF Y:00 P:66 SP:FB - 
D9A9  50 04 B0	 BVC rel			A:00 X:EF Y:00 P:66 SP:FB - 
D9AB  B0 02 10	 BCS rel			A:00 X:EF Y:00 P:66 SP:FB - 
D9AD  10 02 86	 BPL rel			A:00 X:EF Y:00 P:66 SP:FB - 
D9B1  E8 38 B8	 INX impl			A:00 X:EF Y:00 P:66 SP:FB - 
D9B2  38 B8 A9	 SEC impl			A:00 X:F0 Y:00 P:E4 SP:FB - 
D9B3  B8 A9 EF	 CLV impl			A:00 X:F0 Y:00 P:E5 SP:FB - 
D9B4  A9 EF 8D	 LDA #			A:00 X:F0 Y:00 P:A5 SP:FB - 
D9B6  8D 00 04	 STA abs			A:EF X:F0 Y:00 P:A5 SP:FB - 
D9B9  A9 F8 31	 LDA #			A:EF X:F0 Y:00 P:A5 SP:FB - 
D9BB  31 33 90	 AND ind,Y			A:F8 X:F0 Y:00 P:A5 SP:FB - 
D9BD  90 08 10	 BCC rel			A:E8 X:F0 Y:00 P:A5 SP:FB - 
D9BF  10 06 C9	 BPL rel			A:E8 X:F0 Y:00 P:A5 SP:FB - 
D9C1  C9 E8 D0	 CMP #			A:E8 X:F0 Y:00 P:A5 SP:FB - 
D9C3  D0 02 50	 BNE rel			A:E8 X:F0 Y:00 P:27 SP:FB - 
D9C5  50 02 86	 BVC rel			A:E8 X:F0 Y:00 P:27 SP:FB - 
D9C9  E8 18 24	 INX impl			A:E8 X:F0 Y:00 P:27 SP:FB - 
D9CA  18 24 01	 CLC impl			A:E8 X:F1 Y:00 P:A5 SP:FB - 
D9CB  24 01 A9	 BIT zpg			A:E8 X:F1 Y:00 P:A4 SP:FB - 
D9CD  A9 AA 8D	 LDA #			A:E8 X:F1 Y:00 P:E4 SP:FB - 
D9CF  8D 00 04	 STA abs			A:AA X:F1 Y:00 P:E4 SP:FB - 
D9D2  A9 5F 51	 LDA #			A:AA X:F1 Y:00 P:E4 SP:FB - 
D9D4  51 33 B0	 EOR ind,Y			A:5F X:F1 Y:00 P:64 SP:FB - 
D9D6  B0 08 10	 BCS rel			A:F5 X:F1 Y:00 P:E4 SP:FB - 
D9D8  10 06 C9	 BPL rel			A:F5 X:F1 Y:00 P:E4 SP:FB - 
D9DA  C9 F5 D0	 CMP #			A:F5 X:F1 Y:00 P:E4 SP:FB - 
D9DC  D0 02 70	 BNE rel			A:F5 X:F1 Y:00 P:67 SP:FB - 
D9DE  70 02 86	 BVS rel			A:F5 X:F1 Y:00 P:67 SP:FB - 
D9E2  E8 38 B8	 INX impl			A:F5 X:F1 Y:00 P:67 SP:FB - 
D9E3  38 B8 A9	 SEC impl			A:F5 X:F2 Y:00 P:E5 SP:FB - 
D9E4  B8 A9 70	 CLV impl			A:F5 X:F2 Y:00 P:E5 SP:FB - 
D9E5  A9 70 8D	 LDA #			A:F5 X:F2 Y:00 P:A5 SP:FB - 
D9E7  8D 00 04	 STA abs			A:70 X:F2 Y:00 P:25 SP:FB - 
D9EA  51 33 D0	 EOR ind,Y			A:70 X:F2 Y:00 P:25 SP:FB - 
D9EC  D0 06 70	 BNE rel			A:00 X:F2 Y:00 P:27 SP:FB - 
D9EE  70 04 90	 BVS rel			A:00 X:F2 Y:00 P:27 SP:FB - 
D9F0  90 02 10	 BCC rel			A:00 X:F2 Y:00 P:27 SP:FB - 
D9F2  10 02 86	 BPL rel			A:00 X:F2 Y:00 P:27 SP:FB - 
D9F6  E8 18 24	 INX impl			A:00 X:F2 Y:00 P:27 SP:FB - 
D9F7  18 24 01	 CLC impl			A:00 X:F3 Y:00 P:A5 SP:FB - 
D9F8  24 01 A9	 BIT zpg			A:00 X:F3 Y:00 P:A4 SP:FB - 
D9FA  A9 69 8D	 LDA #			A:00 X:F3 Y:00 P:E6 SP:FB - 
D9FC  8D 00 04	 STA abs			A:69 X:F3 Y:00 P:64 SP:FB - 
D9FF  A9 00 71	 LDA #			A:69 X:F3 Y:00 P:64 SP:FB - 
DA01  71 33 30	 ADC ind,Y			A:00 X:F3 Y:00 P:66 SP:FB - 
DA03  30 08 B0	 BMI rel			A:69 X:F3 Y:00 P:24 SP:FB - 
DA05  B0 06 C9	 BCS rel			A:69 X:F3 Y:00 P:24 SP:FB - 
DA07  C9 69 D0	 CMP #			A:69 X:F3 Y:00 P:24 SP:FB - 
DA09  D0 02 50	 BNE rel			A:69 X:F3 Y:00 P:27 SP:FB - 
DA0B  50 02 86	 BVC rel			A:69 X:F3 Y:00 P:27 SP:FB - 
DA0F  E8 38 24	 INX impl			A:69 X:F3 Y:00 P:27 SP:FB - 
DA10  38 24 01	 SEC impl			A:69 X:F4 Y:00 P:A5 SP:FB - 
DA11  24 01 A9	 BIT zpg			A:69 X:F4 Y:00 P:A5 SP:FB - 
DA13  A9 00 71	 LDA #			A:69 X:F4 Y:00 P:E5 SP:FB - 
DA15  71 33 30	 ADC ind,Y			A:00 X:F4 Y:00 P:67 SP:FB - 
DA17  30 08 B0	 BMI rel			A:6A X:F4 Y:00 P:24 SP:FB - 
DA19  B0 06 C9	 BCS rel			A:6A X:F4 Y:00 P:24 SP:FB - 
DA1B  C9 6A D0	 CMP #			A:6A X:F4 Y:00 P:24 SP:FB - 
DA1D  D0 02 50	 BNE rel			A:6A X:F4 Y:00 P:27 SP:FB - 
DA1F  50 02 86	 BVC rel			A:6A X:F4 Y:00 P:27 SP:FB - 
DA23  E8 38 B8	 INX impl			A:6A X:F4 Y:00 P:27 SP:FB - 
DA24  38 B8 A9	 SEC impl			A:6A X:F5 Y:00 P:A5 SP:FB - 
DA25  B8 A9 7F	 CLV impl			A:6A X:F5 Y:00 P:A5 SP:FB - 
DA26  A9 7F 8D	 LDA #			A:6A X:F5 Y:00 P:A5 SP:FB - 
DA28  8D 00 04	 STA abs			A:7F X:F5 Y:00 P:25 SP:FB - 
DA2B  71 33 10	 ADC ind,Y			A:7F X:F5 Y:00 P:25 SP:FB - 
DA2D  10 08 B0	 BPL rel			A:FF X:F5 Y:00 P:E4 SP:FB - 
DA2F  B0 06 C9	 BCS rel			A:FF X:F5 Y:00 P:E4 SP:FB - 
DA31  C9 FF D0	 CMP #			A:FF X:F5 Y:00 P:E4 SP:FB - 
DA33  D0 02 70	 BNE rel			A:FF X:F5 Y:00 P:67 SP:FB - 
DA35  70 02 86	 BVS rel			A:FF X:F5 Y:00 P:67 SP:FB - 
DA39  E8 18 24	 INX impl			A:FF X:F5 Y:00 P:67 SP:FB - 
DA3A  18 24 01	 CLC impl			A:FF X:F6 Y:00 P:E5 SP:FB - 
DA3B  24 01 A9	 BIT zpg			A:FF X:F6 Y:00 P:E4 SP:FB - 
DA3D  A9 80 8D	 LDA #			A:FF X:F6 Y:00 P:E4 SP:FB - 
DA3F  8D 00 04	 STA abs			A:80 X:F6 Y:00 P:E4 SP:FB - 
DA42  A9 7F 71	 LDA #			A:80 X:F6 Y:00 P:E4 SP:FB - 
DA44  71 33 10	 ADC ind,Y			A:7F X:F6 Y:00 P:64 SP:FB - 
DA46  10 08 B0	 BPL rel			A:FF X:F6 Y:00 P:A4 SP:FB - 
DA48  B0 06 C9	 BCS rel			A:FF X:F6 Y:00 P:A4 SP:FB - 
DA4A  C9 FF D0	 CMP #			A:FF X:F6 Y:00 P:A4 SP:FB - 
DA4C  D0 02 50	 BNE rel			A:FF X:F6 Y:00 P:27 SP:FB - 
DA4E  50 02 86	 BVC rel			A:FF X:F6 Y:00 P:27 SP:FB - 
DA52  E8 38 B8	 INX impl			A:FF X:F6 Y:00 P:27 SP:FB - 
DA53  38 B8 A9	 SEC impl			A:FF X:F7 Y:00 P:A5 SP:FB - 
DA54  B8 A9 80	 CLV impl			A:FF X:F7 Y:00 P:A5 SP:FB - 
DA55  A9 80 8D	 LDA #			A:FF X:F7 Y:00 P:A5 SP:FB - 
DA57  8D 00 04	 STA abs			A:80 X:F7 Y:00 P:A5 SP:FB - 
DA5A  A9 7F 71	 LDA #			A:80 X:F7 Y:00 P:A5 SP:FB - 
DA5C  71 33 D0	 ADC ind,Y			A:7F X:F7 Y:00 P:25 SP:FB - 
DA5E  D0 06 30	 BNE rel			A:00 X:F7 Y:00 P:27 SP:FB - 
DA60  30 04 70	 BMI rel			A:00 X:F7 Y:00 P:27 SP:FB - 
DA62  70 02 B0	 BVS rel			A:00 X:F7 Y:00 P:27 SP:FB - 
DA64  B0 02 86	 BCS rel			A:00 X:F7 Y:00 P:27 SP:FB - 
DA68  E8 24 01	 INX impl			A:00 X:F7 Y:00 P:27 SP:FB - 
DA69  24 01 A9	 BIT zpg			A:00 X:F8 Y:00 P:A5 SP:FB - 
DA6B  A9 40 8D	 LDA #			A:00 X:F8 Y:00 P:E7 SP:FB - 
DA6D  8D 00 04	 STA abs			A:40 X:F8 Y:00 P:65 SP:FB - 
DA70  D1 33 30	 CMP ind,Y			A:40 X:F8 Y:00 P:65 SP:FB - 
DA72  30 06 90	 BMI rel			A:40 X:F8 Y:00 P:67 SP:FB - 
DA74  90 04 D0	 BCC rel			A:40 X:F8 Y:00 P:67 SP:FB - 
DA76  D0 02 70	 BNE rel			A:40 X:F8 Y:00 P:67 SP:FB - 
DA78  70 02 86	 BVS rel			A:40 X:F8 Y:00 P:67 SP:FB - 
DA7C  E8 B8 CE	 INX impl			A:40 X:F8 Y:00 P:67 SP:FB - 
DA7D  B8 CE 00	 CLV impl			A:40 X:F9 Y:00 P:E5 SP:FB - 
DA7E  CE 00 04	 DEC abs			A:40 X:F9 Y:00 P:A5 SP:FB - 
DA81  D1 33 F0	 CMP ind,Y			A:40 X:F9 Y:00 P:25 SP:FB - 
DA83  F0 06 30	 BEQ rel			A:40 X:F9 Y:00 P:25 SP:FB - 
DA85  30 04 90	 BMI rel			A:40 X:F9 Y:00 P:25 SP:FB - 
DA87  90 02 50	 BCC rel			A:40 X:F9 Y:00 P:25 SP:FB - 
DA89  50 02 86	 BVC rel			A:40 X:F9 Y:00 P:25 SP:FB - 
DA8D  E8 EE 00	 INX impl			A:40 X:F9 Y:00 P:25 SP:FB - 
DA8E  EE 00 04	 INC abs			A:40 X:FA Y:00 P:A5 SP:FB - 
DA91  EE 00 04	 INC abs			A:40 X:FA Y:00 P:25 SP:FB - 
DA94  D1 33 F0	 CMP ind,Y			A:40 X:FA Y:00 P:25 SP:FB - 
DA96  F0 02 30	 BEQ rel			A:40 X:FA Y:00 P:A4 SP:FB - 
DA98  30 02 86	 BMI rel			A:40 X:FA Y:00 P:A4 SP:FB - 
DA9C  E8 A9 00	 INX impl			A:40 X:FA Y:00 P:A4 SP:FB - 
DA9D  A9 00 8D	 LDA #			A:40 X:FB Y:00 P:A4 SP:FB - 
DA9F  8D 00 04	 STA abs			A:00 X:FB Y:00 P:26 SP:FB - 
DAA2  A9 80 D1	 LDA #			A:00 X:FB Y:00 P:26 SP:FB - 
DAA4  D1 33 F0	 CMP ind,Y			A:80 X:FB Y:00 P:A4 SP:FB - 
DAA6  F0 04 10	 BEQ rel			A:80 X:FB Y:00 P:A5 SP:FB - 
DAA8  10 02 B0	 BPL rel			A:80 X:FB Y:00 P:A5 SP:FB - 
DAAA  B0 02 86	 BCS rel			A:80 X:FB Y:00 P:A5 SP:FB - 
DAAE  E8 A0 80	 INX impl			A:80 X:FB Y:00 P:A5 SP:FB - 
DAAF  A0 80 8C	 LDY #			A:80 X:FC Y:00 P:A5 SP:FB - 
DAB1  8C 00 04	 STY abs			A:80 X:FC Y:80 P:A5 SP:FB - 
DAB4  A0 00 D1	 LDY #			A:80 X:FC Y:80 P:A5 SP:FB - 
DAB6  D1 33 D0	 CMP ind,Y			A:80 X:FC Y:00 P:27 SP:FB - 
DAB8  D0 04 30	 BNE rel			A:80 X:FC Y:00 P:27 SP:FB - 
DABA  30 02 B0	 BMI rel			A:80 X:FC Y:00 P:27 SP:FB - 
DABC  B0 02 86	 BCS rel			A:80 X:FC Y:00 P:27 SP:FB - 
DAC0  E8 EE 00	 INX impl			A:80 X:FC Y:00 P:27 SP:FB - 
DAC1  EE 00 04	 INC abs			A:80 X:FD Y:00 P:A5 SP:FB - 
DAC4  D1 33 B0	 CMP ind,Y			A:80 X:FD Y:00 P:A5 SP:FB - 
DAC6  B0 04 F0	 BCS rel			A:80 X:FD Y:00 P:A4 SP:FB - 
DAC8  F0 02 30	 BEQ rel			A:80 X:FD Y:00 P:A4 SP:FB - 
DACA  30 02 86	 BMI rel			A:80 X:FD Y:00 P:A4 SP:FB - 
DACE  E8 CE 00	 INX impl			A:80 X:FD Y:00 P:A4 SP:FB - 
DACF  CE 00 04	 DEC abs			A:80 X:FE Y:00 P:A4 SP:FB - 
DAD2  CE 00 04	 DEC abs			A:80 X:FE Y:00 P:A4 SP:FB - 
DAD5  D1 33 90	 CMP ind,Y			A:80 X:FE Y:00 P:24 SP:FB - 
DAD7  90 04 F0	 BCC rel			A:80 X:FE Y:00 P:25 SP:FB - 
DAD9  F0 02 10	 BEQ rel			A:80 X:FE Y:00 P:25 SP:FB - 
DADB  10 02 86	 BPL rel			A:80 X:FE Y:00 P:25 SP:FB - 
DADF  60 A9 00	 RTS impl			A:80 X:FE Y:00 P:25 SP:FB - 
C61B  A5 00 85	 LDA zpg			A:80 X:FE Y:00 P:25 SP:FD - 
C61D  85 10 A9	 STA zpg			A:00 X:FE Y:00 P:27 SP:FD - 
C61F  A9 00 85	 LDA #			A:00 X:FE Y:00 P:27 SP:FD - 
C621  85 00 20	 STA zpg			A:00 X:FE Y:00 P:27 SP:FD - 
C623  20 E0 DA	 JSR abs			A:00 X:FE Y:00 P:27 SP:FD - 
DAE0  A9 00 85	 LDA #			A:00 X:FE Y:00 P:27 SP:FB - 
DAE2  85 33 A9	 STA zpg			A:00 X:FE Y:00 P:27 SP:FB - 
DAE4  A9 04 85	 LDA #			A:00 X:FE Y:00 P:27 SP:FB - 
DAE6  85 34 A0	 STA zpg			A:04 X:FE Y:00 P:25 SP:FB - 
DAE8  A0 00 A2	 LDY #			A:04 X:FE Y:00 P:25 SP:FB - 
DAEA  A2 01 24	 LDX #			A:04 X:FE Y:00 P:27 SP:FB - 
DAEC  24 01 A9	 BIT zpg			A:04 X:01 Y:00 P:25 SP:FB - 
DAEE  A9 40 8D	 LDA #			A:04 X:01 Y:00 P:E5 SP:FB - 
DAF0  8D 00 04	 STA abs			A:40 X:01 Y:00 P:65 SP:FB - 
DAF3  38 F1 33	 SEC impl			A:40 X:01 Y:00 P:65 SP:FB - 
DAF4  F1 33 30	 SBC ind,Y			A:40 X:01 Y:00 P:65 SP:FB - 
DAF6  30 0A 90	 BMI rel			A:00 X:01 Y:00 P:27 SP:FB - 
DAF8  90 08 D0	 BCC rel			A:00 X:01 Y:00 P:27 SP:FB - 
DAFA  D0 06 70	 BNE rel			A:00 X:01 Y:00 P:27 SP:FB - 
DAFC  70 04 C9	 BVS rel			A:00 X:01 Y:00 P:27 SP:FB - 
DAFE  C9 00 F0	 CMP #			A:00 X:01 Y:00 P:27 SP:FB - 
DB00  F0 02 86	 BEQ rel			A:00 X:01 Y:00 P:27 SP:FB - 
DB04  E8 B8 38	 INX impl			A:00 X:01 Y:00 P:27 SP:FB - 
DB05  B8 38 A9	 CLV impl			A:00 X:02 Y:00 P:25 SP:FB - 
DB06  38 A9 40	 SEC impl			A:00 X:02 Y:00 P:25 SP:FB - 
DB07  A9 40 CE	 LDA #			A:00 X:02 Y:00 P:25 SP:FB - 
DB09  CE 00 04	 DEC abs			A:40 X:02 Y:00 P:25 SP:FB - 
DB0C  F1 33 F0	 SBC ind,Y			A:40 X:02 Y:00 P:25 SP:FB - 
DB0E  F0 0A 30	 BEQ rel			A:01 X:02 Y:00 P:25 SP:FB - 
DB10  30 08 90	 BMI rel			A:01 X:02 Y:00 P:25 SP:FB - 
DB12  90 06 70	 BCC rel			A:01 X:02 Y:00 P:25 SP:FB - 
DB14  70 04 C9	 BVS rel			A:01 X:02 Y:00 P:25 SP:FB - 
DB16  C9 01 F0	 CMP #			A:01 X:02 Y:00 P:25 SP:FB - 
DB18  F0 02 86	 BEQ rel			A:01 X:02 Y:00 P:27 SP:FB - 
DB1C  E8 A9 40	 INX impl			A:01 X:02 Y:00 P:27 SP:FB - 
DB1D  A9 40 38	 LDA #			A:01 X:03 Y:00 P:25 SP:FB - 
DB1F  38 24 01	 SEC impl			A:40 X:03 Y:00 P:25 SP:FB - 
DB20  24 01 EE	 BIT zpg			A:40 X:03 Y:00 P:25 SP:FB - 
DB22  EE 00 04	 INC abs			A:40 X:03 Y:00 P:E5 SP:FB - 
DB25  EE 00 04	 INC abs			A:40 X:03 Y:00 P:65 SP:FB - 
DB28  F1 33 B0	 SBC ind,Y			A:40 X:03 Y:00 P:65 SP:FB - 
DB2A  B0 0A F0	 BCS rel			A:FF X:03 Y:00 P:A4 SP:FB - 
DB2C  F0 08 10	 BEQ rel			A:FF X:03 Y:00 P:A4 SP:FB - 
DB2E  10 06 70	 BPL rel			A:FF X:03 Y:00 P:A4 SP:FB - 
DB30  70 04 C9	 BVS rel			A:FF X:03 Y:00 P:A4 SP:FB - 
DB32  C9 FF F0	 CMP #			A:FF X:03 Y:00 P:A4 SP:FB - 
DB34  F0 02 86	 BEQ rel			A:FF X:03 Y:00 P:27 SP:FB - 
DB38  E8 18 A9	 INX impl			A:FF X:03 Y:00 P:27 SP:FB - 
DB39  18 A9 00	 CLC impl			A:FF X:04 Y:00 P:25 SP:FB - 
DB3A  A9 00 8D	 LDA #			A:FF X:04 Y:00 P:24 SP:FB - 
DB3C  8D 00 04	 STA abs			A:00 X:04 Y:00 P:26 SP:FB - 
DB3F  A9 80 F1	 LDA #			A:00 X:04 Y:00 P:26 SP:FB - 
DB41  F1 33 90	 SBC ind,Y			A:80 X:04 Y:00 P:A4 SP:FB - 
DB43  90 04 C9	 BCC rel			A:7F X:04 Y:00 P:65 SP:FB - 
DB45  C9 7F F0	 CMP #			A:7F X:04 Y:00 P:65 SP:FB - 
DB47  F0 02 86	 BEQ rel			A:7F X:04 Y:00 P:67 SP:FB - 
DB4B  E8 38 A9	 INX impl			A:7F X:04 Y:00 P:67 SP:FB - 
DB4C  38 A9 7F	 SEC impl			A:7F X:05 Y:00 P:65 SP:FB - 
DB4D  A9 7F 8D	 LDA #			A:7F X:05 Y:00 P:65 SP:FB - 
DB4F  8D 00 04	 STA abs			A:7F X:05 Y:00 P:65 SP:FB - 
DB52  A9 81 F1	 LDA #			A:7F X:05 Y:00 P:65 SP:FB - 
DB54  F1 33 50	 SBC ind,Y			A:81 X:05 Y:00 P:E5 SP:FB - 
DB56  50 06 90	 BVC rel			A:02 X:05 Y:00 P:65 SP:FB - 
DB58  90 04 C9	 BCC rel			A:02 X:05 Y:00 P:65 SP:FB - 
DB5A  C9 02 F0	 CMP #			A:02 X:05 Y:00 P:65 SP:FB - 
DB5C  F0 02 86	 BEQ rel			A:02 X:05 Y:00 P:67 SP:FB - 
DB60  E8 A9 00	 INX impl			A:02 X:05 Y:00 P:67 SP:FB - 
DB61  A9 00 A9	 LDA #			A:02 X:06 Y:00 P:65 SP:FB - 
DB63  A9 87 91	 LDA #			A:00 X:06 Y:00 P:67 SP:FB - 
DB65  91 33 AD	 STA ind,Y			A:87 X:06 Y:00 P:E5 SP:FB - 
DB67  AD 00 04	 LDA abs			A:87 X:06 Y:00 P:E5 SP:FB - 
DB6A  C9 87 F0	 CMP #			A:87 X:06 Y:00 P:E5 SP:FB - 
DB6C  F0 02 86	 BEQ rel			A:87 X:06 Y:00 P:67 SP:FB - 
DB70  E8 A9 7E	 INX impl			A:87 X:06 Y:00 P:67 SP:FB - 
DB71  A9 7E 8D	 LDA #			A:87 X:07 Y:00 P:65 SP:FB - 
DB73  8D 00 02	 STA abs			A:7E X:07 Y:00 P:65 SP:FB - 
DB76  A9 DB 8D	 LDA #			A:7E X:07 Y:00 P:65 SP:FB - 
DB78  8D 01 02	 STA abs			A:DB X:07 Y:00 P:E5 SP:FB - 
DB7B  6C 00 02	 JMP ind			A:DB X:07 Y:00 P:E5 SP:FB - 
DB7E  A9 00 8D	 LDA #			A:DB X:07 Y:00 P:E5 SP:FB - 
DB80  8D FF 02	 STA abs			A:00 X:07 Y:00 P:67 SP:FB - 
DB83  A9 01 8D	 LDA #			A:00 X:07 Y:00 P:67 SP:FB - 
DB85  8D 00 03	 STA abs			A:01 X:07 Y:00 P:65 SP:FB - 
DB88  A9 03 8D	 LDA #			A:01 X:07 Y:00 P:65 SP:FB - 
DB8A  8D 00 02	 STA abs			A:03 X:07 Y:00 P:65 SP:FB - 
DB8D  A9 A9 8D	 LDA #			A:03 X:07 Y:00 P:65 SP:FB - 
DB8F  8D 00 01	 STA abs			A:A9 X:07 Y:00 P:E5 SP:FB - 
DB92  A9 55 8D	 LDA #			A:A9 X:07 Y:00 P:E5 SP:FB - 
DB94  8D 01 01	 STA abs			A:55 X:07 Y:00 P:65 SP:FB - 
DB97  A9 60 8D	 LDA #			A:55 X:07 Y:00 P:65 SP:FB - 
DB99  8D 02 01	 STA abs			A:60 X:07 Y:00 P:65 SP:FB - 
DB9C  A9 A9 8D	 LDA #			A:60 X:07 Y:00 P:65 SP:FB - 
DB9E  8D 00 03	 STA abs			A:A9 X:07 Y:00 P:E5 SP:FB - 
DBA1  A9 AA 8D	 LDA #			A:A9 X:07 Y:00 P:E5 SP:FB - 
DBA3  8D 01 03	 STA abs			A:AA X:07 Y:00 P:E5 SP:FB - 
DBA6  A9 60 8D	 LDA #			A:AA X:07 Y:00 P:E5 SP:FB - 
DBA8  8D 02 03	 STA abs			A:60 X:07 Y:00 P:65 SP:FB - 
DBAB  20 B5 DB	 JSR abs			A:60 X:07 Y:00 P:65 SP:FB - 
DBB5  6C FF 02	 JMP ind			A:60 X:07 Y:00 P:65 SP:F9 - 
0300  A9 AA 60	 LDA #			A:60 X:07 Y:00 P:65 SP:F9 - 
0302  60 AC FF	 RTS impl			A:AA X:07 Y:00 P:E5 SP:F9 - 
DBAE  C9 AA F0	 CMP #			A:AA X:07 Y:00 P:E5 SP:FB - 
DBB0  F0 02 86	 BEQ rel			A:AA X:07 Y:00 P:67 SP:FB - 
DBB4  60 6C FF	 RTS impl			A:AA X:07 Y:00 P:67 SP:FB - 
C626  20 4A DF	 JSR abs			A:AA X:07 Y:00 P:67 SP:FD - 
DF4A  A9 89 8D	 LDA #			A:AA X:07 Y:00 P:67 SP:FB - 
DF4C  8D 00 03	 STA abs			A:89 X:07 Y:00 P:E5 SP:FB - 
DF4F  A9 A3 85	 LDA #			A:89 X:07 Y:00 P:E5 SP:FB - 
DF51  85 33 A9	 STA zpg			A:A3 X:07 Y:00 P:E5 SP:FB - 
DF53  A9 12 8D	 LDA #			A:A3 X:07 Y:00 P:E5 SP:FB - 
DF55  8D 45 02	 STA abs			A:12 X:07 Y:00 P:65 SP:FB - 
DF58  A2 65 A0	 LDX #			A:12 X:07 Y:00 P:65 SP:FB - 
DF5A  A0 00 38	 LDY #			A:12 X:65 Y:00 P:65 SP:FB - 
DF5C  38 A9 00	 SEC impl			A:12 X:65 Y:00 P:67 SP:FB - 
DF5D  A9 00 B8	 LDA #			A:12 X:65 Y:00 P:67 SP:FB - 
DF5F  B8 B9 00	 CLV impl			A:00 X:65 Y:00 P:67 SP:FB - 
DF60  B9 00 03	 LDA abs,Y			A:00 X:65 Y:00 P:27 SP:FB - 
DF63  F0 0C 90	 BEQ rel			A:89 X:65 Y:00 P:A5 SP:FB - 
DF65  90 0A 70	 BCC rel			A:89 X:65 Y:00 P:A5 SP:FB - 
DF67  70 08 C9	 BVS rel			A:89 X:65 Y:00 P:A5 SP:FB - 
DF69  C9 89 D0	 CMP #			A:89 X:65 Y:00 P:A5 SP:FB - 
DF6B  D0 04 E0	 BNE rel			A:89 X:65 Y:00 P:27 SP:FB - 
DF6D  E0 65 F0	 CPX #			A:89 X:65 Y:00 P:27 SP:FB - 
DF6F  F0 04 A9	 BEQ rel			A:89 X:65 Y:00 P:27 SP:FB - 
DF75  A9 FF 85	 LDA #			A:89 X:65 Y:00 P:27 SP:FB - 
DF77  85 01 24	 STA zpg			A:FF X:65 Y:00 P:A5 SP:FB - 
DF79  24 01 A0	 BIT zpg			A:FF X:65 Y:00 P:A5 SP:FB - 
DF7B  A0 34 B9	 LDY #			A:FF X:65 Y:00 P:E5 SP:FB - 
DF7D  B9 FF FF	 LDA abs,Y			A:FF X:65 Y:34 P:65 SP:FB - 
DF80  C9 A3 D0	 CMP #			A:A3 X:65 Y:34 P:E5 SP:FB - 
DF82  D0 02 B0	 BNE rel			A:A3 X:65 Y:34 P:67 SP:FB - 
DF84  B0 04 A9	 BCS rel			A:A3 X:65 Y:34 P:67 SP:FB - 
DF8A  A9 46 85	 LDA #			A:A3 X:65 Y:34 P:67 SP:FB - 
DF8C  85 FF A0	 STA zpg			A:46 X:65 Y:34 P:65 SP:FB - 
DF8E  A0 FF B9	 LDY #			A:46 X:65 Y:34 P:65 SP:FB - 
DF90  B9 46 01	 LDA abs,Y			A:46 X:65 Y:FF P:E5 SP:FB - 
DF93  C9 12 F0	 CMP #			A:12 X:65 Y:FF P:65 SP:FB - 
DF95  F0 04 A9	 BEQ rel			A:12 X:65 Y:FF P:67 SP:FB - 
DF9B  A2 39 18	 LDX #			A:12 X:65 Y:FF P:67 SP:FB - 
DF9D  18 A9 FF	 CLC impl			A:12 X:39 Y:FF P:65 SP:FB - 
DF9E  A9 FF 85	 LDA #			A:12 X:39 Y:FF P:64 SP:FB - 
DFA0  85 01 24	 STA zpg			A:FF X:39 Y:FF P:E4 SP:FB - 
DFA2  24 01 A9	 BIT zpg			A:FF X:39 Y:FF P:E4 SP:FB - 
DFA4  A9 AA 8D	 LDA #			A:FF X:39 Y:FF P:E4 SP:FB - 
DFA6  8D 00 04	 STA abs			A:AA X:39 Y:FF P:E4 SP:FB - 
DFA9  A9 55 A0	 LDA #			A:AA X:39 Y:FF P:E4 SP:FB - 
DFAB  A0 00 19	 LDY #			A:55 X:39 Y:FF P:64 SP:FB - 
DFAD  19 00 04	 ORA abs,Y			A:55 X:39 Y:00 P:66 SP:FB - 
DFB0  B0 08 10	 BCS rel			A:FF X:39 Y:00 P:E4 SP:FB - 
DFB2  10 06 C9	 BPL rel			A:FF X:39 Y:00 P:E4 SP:FB - 
DFB4  C9 FF D0	 CMP #			A:FF X:39 Y:00 P:E4 SP:FB - 
DFB6  D0 02 70	 BNE rel			A:FF X:39 Y:00 P:67 SP:FB - 
DFB8  70 02 86	 BVS rel			A:FF X:39 Y:00 P:67 SP:FB - 
DFBC  E8 38 B8	 INX impl			A:FF X:39 Y:00 P:67 SP:FB - 
DFBD  38 B8 A9	 SEC impl			A:FF X:3A Y:00 P:65 SP:FB - 
DFBE  B8 A9 00	 CLV impl			A:FF X:3A Y:00 P:65 SP:FB - 
DFBF  A9 00 19	 LDA #			A:FF X:3A Y:00 P:25 SP:FB - 
DFC1  19 00 04	 ORA abs,Y			A:00 X:3A Y:00 P:27 SP:FB - 
DFC4  F0 06 70	 BEQ rel			A:AA X:3A Y:00 P:A5 SP:FB - 
DFC6  70 04 90	 BVS rel			A:AA X:3A Y:00 P:A5 SP:FB - 
DFC8  90 02 30	 BCC rel			A:AA X:3A Y:00 P:A5 SP:FB - 
DFCA  30 02 86	 BMI rel			A:AA X:3A Y:00 P:A5 SP:FB - 
DFCE  E8 18 24	 INX impl			A:AA X:3A Y:00 P:A5 SP:FB - 
DFCF  18 24 01	 CLC impl			A:AA X:3B Y:00 P:25 SP:FB - 
DFD0  24 01 A9	 BIT zpg			A:AA X:3B Y:00 P:24 SP:FB - 
DFD2  A9 55 39	 LDA #			A:AA X:3B Y:00 P:E4 SP:FB - 
DFD4  39 00 04	 AND abs,Y			A:55 X:3B Y:00 P:64 SP:FB - 
DFD7  D0 06 50	 BNE rel			A:00 X:3B Y:00 P:66 SP:FB - 
DFD9  50 04 B0	 BVC rel			A:00 X:3B Y:00 P:66 SP:FB - 
DFDB  B0 02 10	 BCS rel			A:00 X:3B Y:00 P:66 SP:FB - 
DFDD  10 02 86	 BPL rel			A:00 X:3B Y:00 P:66 SP:FB - 
DFE1  E8 38 B8	 INX impl			A:00 X:3B Y:00 P:66 SP:FB - 
DFE2  38 B8 A9	 SEC impl			A:00 X:3C Y:00 P:64 SP:FB - 
DFE3  B8 A9 EF	 CLV impl			A:00 X:3C Y:00 P:65 SP:FB - 
DFE4  A9 EF 8D	 LDA #			A:00 X:3C Y:00 P:25 SP:FB - 
DFE6  8D 00 04	 STA abs			A:EF X:3C Y:00 P:A5 SP:FB - 
DFE9  A9 F8 39	 LDA #			A:EF X:3C Y:00 P:A5 SP:FB - 
DFEB  39 00 04	 AND abs,Y			A:F8 X:3C Y:00 P:A5 SP:FB - 
DFEE  90 08 10	 BCC rel			A:E8 X:3C Y:00 P:A5 SP:FB - 
DFF0  10 06 C9	 BPL rel			A:E8 X:3C Y:00 P:A5 SP:FB - 
DFF2  C9 E8 D0	 CMP #			A:E8 X:3C Y:00 P:A5 SP:FB - 
DFF4  D0 02 50	 BNE rel			A:E8 X:3C Y:00 P:27 SP:FB - 
DFF6  50 02 86	 BVC rel			A:E8 X:3C Y:00 P:27 SP:FB - 
DFFA  E8 18 24	 INX impl			A:E8 X:3C Y:00 P:27 SP:FB - 
DFFB  18 24 01	 CLC impl			A:E8 X:3D Y:00 P:25 SP:FB - 
DFFC  24 01 A9	 BIT zpg			A:E8 X:3D Y:00 P:24 SP:FB - 
DFFE  A9 AA 8D	 LDA #			A:E8 X:3D Y:00 P:E4 SP:FB - 
E000  8D 00 04	 STA abs			A:AA X:3D Y:00 P:E4 SP:FB - 
E003  A9 5F 59	 LDA #			A:AA X:3D Y:00 P:E4 SP:FB - 
E005  59 00 04	 EOR abs,Y			A:5F X:3D Y:00 P:64 SP:FB - 
E008  B0 08 10	 BCS rel			A:F5 X:3D Y:00 P:E4 SP:FB - 
E00A  10 06 C9	 BPL rel			A:F5 X:3D Y:00 P:E4 SP:FB - 
E00C  C9 F5 D0	 CMP #			A:F5 X:3D Y:00 P:E4 SP:FB - 
E00E  D0 02 70	 BNE rel			A:F5 X:3D Y:00 P:67 SP:FB - 
E010  70 02 86	 BVS rel			A:F5 X:3D Y:00 P:67 SP:FB - 
E014  E8 38 B8	 INX impl			A:F5 X:3D Y:00 P:67 SP:FB - 
E015  38 B8 A9	 SEC impl			A:F5 X:3E Y:00 P:65 SP:FB - 
E016  B8 A9 70	 CLV impl			A:F5 X:3E Y:00 P:65 SP:FB - 
E017  A9 70 8D	 LDA #			A:F5 X:3E Y:00 P:25 SP:FB - 
E019  8D 00 04	 STA abs			A:70 X:3E Y:00 P:25 SP:FB - 
E01C  59 00 04	 EOR abs,Y			A:70 X:3E Y:00 P:25 SP:FB - 
E01F  D0 06 70	 BNE rel			A:00 X:3E Y:00 P:27 SP:FB - 
E021  70 04 90	 BVS rel			A:00 X:3E Y:00 P:27 SP:FB - 
E023  90 02 10	 BCC rel			A:00 X:3E Y:00 P:27 SP:FB - 
E025  10 02 86	 BPL rel			A:00 X:3E Y:00 P:27 SP:FB - 
E029  E8 18 24	 INX impl			A:00 X:3E Y:00 P:27 SP:FB - 
E02A  18 24 01	 CLC impl			A:00 X:3F Y:00 P:25 SP:FB - 
E02B  24 01 A9	 BIT zpg			A:00 X:3F Y:00 P:24 SP:FB - 
E02D  A9 69 8D	 LDA #			A:00 X:3F Y:00 P:E6 SP:FB - 
E02F  8D 00 04	 STA abs			A:69 X:3F Y:00 P:64 SP:FB - 
E032  A9 00 79	 LDA #			A:69 X:3F Y:00 P:64 SP:FB - 
E034  79 00 04	 ADC abs,Y			A:00 X:3F Y:00 P:66 SP:FB - 
E037  30 08 B0	 BMI rel			A:69 X:3F Y:00 P:24 SP:FB - 
E039  B0 06 C9	 BCS rel			A:69 X:3F Y:00 P:24 SP:FB - 
E03B  C9 69 D0	 CMP #			A:69 X:3F Y:00 P:24 SP:FB - 
E03D  D0 02 50	 BNE rel			A:69 X:3F Y:00 P:27 SP:FB - 
E03F  50 02 86	 BVC rel			A:69 X:3F Y:00 P:27 SP:FB - 
E043  E8 38 24	 INX impl			A:69 X:3F Y:00 P:27 SP:FB - 
E044  38 24 01	 SEC impl			A:69 X:40 Y:00 P:25 SP:FB - 
E045  24 01 A9	 BIT zpg			A:69 X:40 Y:00 P:25 SP:FB - 
E047  A9 00 79	 LDA #			A:69 X:40 Y:00 P:E5 SP:FB - 
E049  79 00 04	 ADC abs,Y			A:00 X:40 Y:00 P:67 SP:FB - 
E04C  30 08 B0	 BMI rel			A:6A X:40 Y:00 P:24 SP:FB - 
E04E  B0 06 C9	 BCS rel			A:6A X:40 Y:00 P:24 SP:FB - 
E050  C9 6A D0	 CMP #			A:6A X:40 Y:00 P:24 SP:FB - 
E052  D0 02 50	 BNE rel			A:6A X:40 Y:00 P:27 SP:FB - 
E054  50 02 86	 BVC rel			A:6A X:40 Y:00 P:27 SP:FB - 
E058  E8 38 B8	 INX impl			A:6A X:40 Y:00 P:27 SP:FB - 
E059  38 B8 A9	 SEC impl			A:6A X:41 Y:00 P:25 SP:FB - 
E05A  B8 A9 7F	 CLV impl			A:6A X:41 Y:00 P:25 SP:FB - 
E05B  A9 7F 8D	 LDA #			A:6A X:41 Y:00 P:25 SP:FB - 
E05D  8D 00 04	 STA abs			A:7F X:41 Y:00 P:25 SP:FB - 
E060  79 00 04	 ADC abs,Y			A:7F X:41 Y:00 P:25 SP:FB - 
E063  10 08 B0	 BPL rel			A:FF X:41 Y:00 P:E4 SP:FB - 
E065  B0 06 C9	 BCS rel			A:FF X:41 Y:00 P:E4 SP:FB - 
E067  C9 FF D0	 CMP #			A:FF X:41 Y:00 P:E4 SP:FB - 
E069  D0 02 70	 BNE rel			A:FF X:41 Y:00 P:67 SP:FB - 
E06B  70 02 86	 BVS rel			A:FF X:41 Y:00 P:67 SP:FB - 
E06F  E8 18 24	 INX impl			A:FF X:41 Y:00 P:67 SP:FB - 
E070  18 24 01	 CLC impl			A:FF X:42 Y:00 P:65 SP:FB - 
E071  24 01 A9	 BIT zpg			A:FF X:42 Y:00 P:64 SP:FB - 
E073  A9 80 8D	 LDA #			A:FF X:42 Y:00 P:E4 SP:FB - 
E075  8D 00 04	 STA abs			A:80 X:42 Y:00 P:E4 SP:FB - 
E078  A9 7F 79	 LDA #			A:80 X:42 Y:00 P:E4 SP:FB - 
E07A  79 00 04	 ADC abs,Y			A:7F X:42 Y:00 P:64 SP:FB - 
E07D  10 08 B0	 BPL rel			A:FF X:42 Y:00 P:A4 SP:FB - 
E07F  B0 06 C9	 BCS rel			A:FF X:42 Y:00 P:A4 SP:FB - 
E081  C9 FF D0	 CMP #			A:FF X:42 Y:00 P:A4 SP:FB - 
E083  D0 02 50	 BNE rel			A:FF X:42 Y:00 P:27 SP:FB - 
E085  50 02 86	 BVC rel			A:FF X:42 Y:00 P:27 SP:FB - 
E089  E8 38 B8	 INX impl			A:FF X:42 Y:00 P:27 SP:FB - 
E08A  38 B8 A9	 SEC impl			A:FF X:43 Y:00 P:25 SP:FB - 
E08B  B8 A9 80	 CLV impl			A:FF X:43 Y:00 P:25 SP:FB - 
E08C  A9 80 8D	 LDA #			A:FF X:43 Y:00 P:25 SP:FB - 
E08E  8D 00 04	 STA abs			A:80 X:43 Y:00 P:A5 SP:FB - 
E091  A9 7F 79	 LDA #			A:80 X:43 Y:00 P:A5 SP:FB - 
E093  79 00 04	 ADC abs,Y			A:7F X:43 Y:00 P:25 SP:FB - 
E096  D0 06 30	 BNE rel			A:00 X:43 Y:00 P:27 SP:FB - 
E098  30 04 70	 BMI rel			A:00 X:43 Y:00 P:27 SP:FB - 
E09A  70 02 B0	 BVS rel			A:00 X:43 Y:00 P:27 SP:FB - 
E09C  B0 02 86	 BCS rel			A:00 X:43 Y:00 P:27 SP:FB - 
E0A0  E8 24 01	 INX impl			A:00 X:43 Y:00 P:27 SP:FB - 
E0A1  24 01 A9	 BIT zpg			A:00 X:44 Y:00 P:25 SP:FB - 
E0A3  A9 40 8D	 LDA #			A:00 X:44 Y:00 P:E7 SP:FB - 
E0A5  8D 00 04	 STA abs			A:40 X:44 Y:00 P:65 SP:FB - 
E0A8  D9 00 04	 CMP abs,Y			A:40 X:44 Y:00 P:65 SP:FB - 
E0AB  30 06 90	 BMI rel			A:40 X:44 Y:00 P:67 SP:FB - 
E0AD  90 04 D0	 BCC rel			A:40 X:44 Y:00 P:67 SP:FB - 
E0AF  D0 02 70	 BNE rel			A:40 X:44 Y:00 P:67 SP:FB - 
E0B1  70 02 86	 BVS rel			A:40 X:44 Y:00 P:67 SP:FB - 
E0B5  E8 B8 CE	 INX impl			A:40 X:44 Y:00 P:67 SP:FB - 
E0B6  B8 CE 00	 CLV impl			A:40 X:45 Y:00 P:65 SP:FB - 
E0B7  CE 00 04	 DEC abs			A:40 X:45 Y:00 P:25 SP:FB - 
E0BA  D9 00 04	 CMP abs,Y			A:40 X:45 Y:00 P:25 SP:FB - 
E0BD  F0 06 30	 BEQ rel			A:40 X:45 Y:00 P:25 SP:FB - 
E0BF  30 04 90	 BMI rel			A:40 X:45 Y:00 P:25 SP:FB - 
E0C1  90 02 50	 BCC rel			A:40 X:45 Y:00 P:25 SP:FB - 
E0C3  50 02 86	 BVC rel			A:40 X:45 Y:00 P:25 SP:FB - 
E0C7  E8 EE 00	 INX impl			A:40 X:45 Y:00 P:25 SP:FB - 
E0C8  EE 00 04	 INC abs			A:40 X:46 Y:00 P:25 SP:FB - 
E0CB  EE 00 04	 INC abs			A:40 X:46 Y:00 P:25 SP:FB - 
E0CE  D9 00 04	 CMP abs,Y			A:40 X:46 Y:00 P:25 SP:FB - 
E0D1  F0 02 30	 BEQ rel			A:40 X:46 Y:00 P:A4 SP:FB - 
E0D3  30 02 86	 BMI rel			A:40 X:46 Y:00 P:A4 SP:FB - 
E0D7  E8 A9 00	 INX impl			A:40 X:46 Y:00 P:A4 SP:FB - 
E0D8  A9 00 8D	 LDA #			A:40 X:47 Y:00 P:24 SP:FB - 
E0DA  8D 00 04	 STA abs			A:00 X:47 Y:00 P:26 SP:FB - 
E0DD  A9 80 D9	 LDA #			A:00 X:47 Y:00 P:26 SP:FB - 
E0DF  D9 00 04	 CMP abs,Y			A:80 X:47 Y:00 P:A4 SP:FB - 
E0E2  F0 04 10	 BEQ rel			A:80 X:47 Y:00 P:A5 SP:FB - 
E0E4  10 02 B0	 BPL rel			A:80 X:47 Y:00 P:A5 SP:FB - 
E0E6  B0 02 86	 BCS rel			A:80 X:47 Y:00 P:A5 SP:FB - 
E0EA  E8 A0 80	 INX impl			A:80 X:47 Y:00 P:A5 SP:FB - 
E0EB  A0 80 8C	 LDY #			A:80 X:48 Y:00 P:25 SP:FB - 
E0ED  8C 00 04	 STY abs			A:80 X:48 Y:80 P:A5 SP:FB - 
E0F0  A0 00 D9	 LDY #			A:80 X:48 Y:80 P:A5 SP:FB - 
E0F2  D9 00 04	 CMP abs,Y			A:80 X:48 Y:00 P:27 SP:FB - 
E0F5  D0 04 30	 BNE rel			A:80 X:48 Y:00 P:27 SP:FB - 
E0F7  30 02 B0	 BMI rel			A:80 X:48 Y:00 P:27 SP:FB - 
E0F9  B0 02 86	 BCS rel			A:80 X:48 Y:00 P:27 SP:FB - 
E0FD  E8 EE 00	 INX impl			A:80 X:48 Y:00 P:27 SP:FB - 
E0FE  EE 00 04	 INC abs			A:80 X:49 Y:00 P:25 SP:FB - 
E101  D9 00 04	 CMP abs,Y			A:80 X:49 Y:00 P:A5 SP:FB - 
E104  B0 04 F0	 BCS rel			A:80 X:49 Y:00 P:A4 SP:FB - 
E106  F0 02 30	 BEQ rel			A:80 X:49 Y:00 P:A4 SP:FB - 
E108  30 02 86	 BMI rel			A:80 X:49 Y:00 P:A4 SP:FB - 
E10C  E8 CE 00	 INX impl			A:80 X:49 Y:00 P:A4 SP:FB - 
E10D  CE 00 04	 DEC abs			A:80 X:4A Y:00 P:24 SP:FB - 
E110  CE 00 04	 DEC abs			A:80 X:4A Y:00 P:A4 SP:FB - 
E113  D9 00 04	 CMP abs,Y			A:80 X:4A Y:00 P:24 SP:FB - 
E116  90 04 F0	 BCC rel			A:80 X:4A Y:00 P:25 SP:FB - 
E118  F0 02 10	 BEQ rel			A:80 X:4A Y:00 P:25 SP:FB - 
E11A  10 02 86	 BPL rel			A:80 X:4A Y:00 P:25 SP:FB - 
E11E  E8 24 01	 INX impl			A:80 X:4A Y:00 P:25 SP:FB - 
E11F  24 01 A9	 BIT zpg			A:80 X:4B Y:00 P:25 SP:FB - 
E121  A9 40 8D	 LDA #			A:80 X:4B Y:00 P:E5 SP:FB - 
E123  8D 00 04	 STA abs			A:40 X:4B Y:00 P:65 SP:FB - 
E126  38 F9 00	 SEC impl			A:40 X:4B Y:00 P:65 SP:FB - 
E127  F9 00 04	 SBC abs,Y			A:40 X:4B Y:00 P:65 SP:FB - 
E12A  30 0A 90	 BMI rel			A:00 X:4B Y:00 P:27 SP:FB - 
E12C  90 08 D0	 BCC rel			A:00 X:4B Y:00 P:27 SP:FB - 
E12E  D0 06 70	 BNE rel			A:00 X:4B Y:00 P:27 SP:FB - 
E130  70 04 C9	 BVS rel			A:00 X:4B Y:00 P:27 SP:FB - 
E132  C9 00 F0	 CMP #			A:00 X:4B Y:00 P:27 SP:FB - 
E134  F0 02 86	 BEQ rel			A:00 X:4B Y:00 P:27 SP:FB - 
E138  E8 B8 38	 INX impl			A:00 X:4B Y:00 P:27 SP:FB - 
E139  B8 38 A9	 CLV impl			A:00 X:4C Y:00 P:25 SP:FB - 
E13A  38 A9 40	 SEC impl			A:00 X:4C Y:00 P:25 SP:FB - 
E13B  A9 40 CE	 LDA #			A:00 X:4C Y:00 P:25 SP:FB - 
E13D  CE 00 04	 DEC abs			A:40 X:4C Y:00 P:25 SP:FB - 
E140  F9 00 04	 SBC abs,Y			A:40 X:4C Y:00 P:25 SP:FB - 
E143  F0 0A 30	 BEQ rel			A:01 X:4C Y:00 P:25 SP:FB - 
E145  30 08 90	 BMI rel			A:01 X:4C Y:00 P:25 SP:FB - 
E147  90 06 70	 BCC rel			A:01 X:4C Y:00 P:25 SP:FB - 
E149  70 04 C9	 BVS rel			A:01 X:4C Y:00 P:25 SP:FB - 
E14B  C9 01 F0	 CMP #			A:01 X:4C Y:00 P:25 SP:FB - 
E14D  F0 02 86	 BEQ rel			A:01 X:4C Y:00 P:27 SP:FB - 
E151  E8 A9 40	 INX impl			A:01 X:4C Y:00 P:27 SP:FB - 
E152  A9 40 38	 LDA #			A:01 X:4D Y:00 P:25 SP:FB - 
E154  38 24 01	 SEC impl			A:40 X:4D Y:00 P:25 SP:FB - 
E155  24 01 EE	 BIT zpg			A:40 X:4D Y:00 P:25 SP:FB - 
E157  EE 00 04	 INC abs			A:40 X:4D Y:00 P:E5 SP:FB - 
E15A  EE 00 04	 INC abs			A:40 X:4D Y:00 P:65 SP:FB - 
E15D  F9 00 04	 SBC abs,Y			A:40 X:4D Y:00 P:65 SP:FB - 
E160  B0 0A F0	 BCS rel			A:FF X:4D Y:00 P:A4 SP:FB - 
E162  F0 08 10	 BEQ rel			A:FF X:4D Y:00 P:A4 SP:FB - 
E164  10 06 70	 BPL rel			A:FF X:4D Y:00 P:A4 SP:FB - 
E166  70 04 C9	 BVS rel			A:FF X:4D Y:00 P:A4 SP:FB - 
E168  C9 FF F0	 CMP #			A:FF X:4D Y:00 P:A4 SP:FB - 
E16A  F0 02 86	 BEQ rel			A:FF X:4D Y:00 P:27 SP:FB - 
E16E  E8 18 A9	 INX impl			A:FF X:4D Y:00 P:27 SP:FB - 
E16F  18 A9 00	 CLC impl			A:FF X:4E Y:00 P:25 SP:FB - 
E170  A9 00 8D	 LDA #			A:FF X:4E Y:00 P:24 SP:FB - 
E172  8D 00 04	 STA abs			A:00 X:4E Y:00 P:26 SP:FB - 
E175  A9 80 F9	 LDA #			A:00 X:4E Y:00 P:26 SP:FB - 
E177  F9 00 04	 SBC abs,Y			A:80 X:4E Y:00 P:A4 SP:FB - 
E17A  90 04 C9	 BCC rel			A:7F X:4E Y:00 P:65 SP:FB - 
E17C  C9 7F F0	 CMP #			A:7F X:4E Y:00 P:65 SP:FB - 
E17E  F0 02 86	 BEQ rel			A:7F X:4E Y:00 P:67 SP:FB - 
E182  E8 38 A9	 INX impl			A:7F X:4E Y:00 P:67 SP:FB - 
E183  38 A9 7F	 SEC impl			A:7F X:4F Y:00 P:65 SP:FB - 
E184  A9 7F 8D	 LDA #			A:7F X:4F Y:00 P:65 SP:FB - 
E186  8D 00 04	 STA abs			A:7F X:4F Y:00 P:65 SP:FB - 
E189  A9 81 F9	 LDA #			A:7F X:4F Y:00 P:65 SP:FB - 
E18B  F9 00 04	 SBC abs,Y			A:81 X:4F Y:00 P:E5 SP:FB - 
E18E  50 06 90	 BVC rel			A:02 X:4F Y:00 P:65 SP:FB - 
E190  90 04 C9	 BCC rel			A:02 X:4F Y:00 P:65 SP:FB - 
E192  C9 02 F0	 CMP #			A:02 X:4F Y:00 P:65 SP:FB - 
E194  F0 02 86	 BEQ rel			A:02 X:4F Y:00 P:67 SP:FB - 
E198  E8 A9 00	 INX impl			A:02 X:4F Y:00 P:67 SP:FB - 
E199  A9 00 A9	 LDA #			A:02 X:50 Y:00 P:65 SP:FB - 
E19B  A9 87 99	 LDA #			A:00 X:50 Y:00 P:67 SP:FB - 
E19D  99 00 04	 STA abs,Y			A:87 X:50 Y:00 P:E5 SP:FB - 
E1A0  AD 00 04	 LDA abs			A:87 X:50 Y:00 P:E5 SP:FB - 
E1A3  C9 87 F0	 CMP #			A:87 X:50 Y:00 P:E5 SP:FB - 
E1A5  F0 02 86	 BEQ rel			A:87 X:50 Y:00 P:67 SP:FB - 
E1A9  60 A9 FF	 RTS impl			A:87 X:50 Y:00 P:67 SP:FB - 
C629  20 B8 DB	 JSR abs			A:87 X:50 Y:00 P:67 SP:FD - 
DBB8  A9 FF 85	 LDA #			A:87 X:50 Y:00 P:67 SP:FB - 
DBBA  85 01 A9	 STA zpg			A:FF X:50 Y:00 P:E5 SP:FB - 
DBBC  A9 AA 85	 LDA #			A:FF X:50 Y:00 P:E5 SP:FB - 
DBBE  85 33 A9	 STA zpg			A:AA X:50 Y:00 P:E5 SP:FB - 
DBC0  A9 BB 85	 LDA #			A:AA X:50 Y:00 P:E5 SP:FB - 
DBC2  85 89 A2	 STA zpg			A:BB X:50 Y:00 P:E5 SP:FB - 
DBC4  A2 00 A9	 LDX #			A:BB X:50 Y:00 P:E5 SP:FB - 
DBC6  A9 66 24	 LDA #			A:BB X:00 Y:00 P:67 SP:FB - 
DBC8  24 01 38	 BIT zpg			A:66 X:00 Y:00 P:65 SP:FB - 
DBCA  38 A0 00	 SEC impl			A:66 X:00 Y:00 P:E5 SP:FB - 
DBCB  A0 00 B4	 LDY #			A:66 X:00 Y:00 P:E5 SP:FB - 
DBCD  B4 33 10	 LDY zpg,X			A:66 X:00 Y:00 P:67 SP:FB - 
DBCF  10 12 F0	 BPL rel			A:66 X:00 Y:AA P:E5 SP:FB - 
DBD1  F0 10 50	 BEQ rel			A:66 X:00 Y:AA P:E5 SP:FB - 
DBD3  50 0E 90	 BVC rel			A:66 X:00 Y:AA P:E5 SP:FB - 
DBD5  90 0C C9	 BCC rel			A:66 X:00 Y:AA P:E5 SP:FB - 
DBD7  C9 66 D0	 CMP #			A:66 X:00 Y:AA P:E5 SP:FB - 
DBD9  D0 08 E0	 BNE rel			A:66 X:00 Y:AA P:67 SP:FB - 
DBDB  E0 00 D0	 CPX #			A:66 X:00 Y:AA P:67 SP:FB - 
DBDD  D0 04 C0	 BNE rel			A:66 X:00 Y:AA P:67 SP:FB - 
DBDF  C0 AA F0	 CPY #			A:66 X:00 Y:AA P:67 SP:FB - 
DBE1  F0 04 A9	 BEQ rel			A:66 X:00 Y:AA P:67 SP:FB - 
DBE7  A2 8A A9	 LDX #			A:66 X:00 Y:AA P:67 SP:FB - 
DBE9  A9 66 B8	 LDA #			A:66 X:8A Y:AA P:E5 SP:FB - 
DBEB  B8 18 A0	 CLV impl			A:66 X:8A Y:AA P:65 SP:FB - 
DBEC  18 A0 00	 CLC impl			A:66 X:8A Y:AA P:25 SP:FB - 
DBED  A0 00 B4	 LDY #			A:66 X:8A Y:AA P:24 SP:FB - 
DBEF  B4 FF 10	 LDY zpg,X			A:66 X:8A Y:00 P:26 SP:FB - 
DBF1  10 12 F0	 BPL rel			A:66 X:8A Y:BB P:A4 SP:FB - 
DBF3  F0 10 70	 BEQ rel			A:66 X:8A Y:BB P:A4 SP:FB - 
DBF5  70 0E B0	 BVS rel			A:66 X:8A Y:BB P:A4 SP:FB - 
DBF7  B0 0C C0	 BCS rel			A:66 X:8A Y:BB P:A4 SP:FB - 
DBF9  C0 BB D0	 CPY #			A:66 X:8A Y:BB P:A4 SP:FB - 
DBFB  D0 08 C9	 BNE rel			A:66 X:8A Y:BB P:27 SP:FB - 
DBFD  C9 66 D0	 CMP #			A:66 X:8A Y:BB P:27 SP:FB - 
DBFF  D0 04 E0	 BNE rel			A:66 X:8A Y:BB P:27 SP:FB - 
DC01  E0 8A F0	 CPX #			A:66 X:8A Y:BB P:27 SP:FB - 
DC03  F0 04 A9	 BEQ rel			A:66 X:8A Y:BB P:27 SP:FB - 
DC09  24 01 38	 BIT zpg			A:66 X:8A Y:BB P:27 SP:FB - 
DC0B  38 A0 44	 SEC impl			A:66 X:8A Y:BB P:E5 SP:FB - 
DC0C  A0 44 A2	 LDY #			A:66 X:8A Y:BB P:E5 SP:FB - 
DC0E  A2 00 94	 LDX #			A:66 X:8A Y:44 P:65 SP:FB - 
DC10  94 33 A5	 STY zpg,X			A:66 X:00 Y:44 P:67 SP:FB - 
DC12  A5 33 90	 LDA zpg			A:66 X:00 Y:44 P:67 SP:FB - 
DC14  90 18 C9	 BCC rel			A:44 X:00 Y:44 P:65 SP:FB - 
DC16  C9 44 D0	 CMP #			A:44 X:00 Y:44 P:65 SP:FB - 
DC18  D0 14 50	 BNE rel			A:44 X:00 Y:44 P:67 SP:FB - 
DC1A  50 12 18	 BVC rel			A:44 X:00 Y:44 P:67 SP:FB - 
DC1C  18 B8 A0	 CLC impl			A:44 X:00 Y:44 P:67 SP:FB - 
DC1D  B8 A0 99	 CLV impl			A:44 X:00 Y:44 P:66 SP:FB - 
DC1E  A0 99 A2	 LDY #			A:44 X:00 Y:44 P:26 SP:FB - 
DC20  A2 80 94	 LDX #			A:44 X:00 Y:99 P:A4 SP:FB - 
DC22  94 85 A5	 STY zpg,X			A:44 X:80 Y:99 P:A4 SP:FB - 
DC24  A5 05 B0	 LDA zpg			A:44 X:80 Y:99 P:A4 SP:FB - 
DC26  B0 06 C9	 BCS rel			A:99 X:80 Y:99 P:A4 SP:FB - 
DC28  C9 99 D0	 CMP #			A:99 X:80 Y:99 P:A4 SP:FB - 
DC2A  D0 02 50	 BNE rel			A:99 X:80 Y:99 P:27 SP:FB - 
DC2C  50 04 A9	 BVC rel			A:99 X:80 Y:99 P:27 SP:FB - 
DC32  A0 0B A9	 LDY #			A:99 X:80 Y:99 P:27 SP:FB - 
DC34  A9 AA A2	 LDA #			A:99 X:80 Y:0B P:25 SP:FB - 
DC36  A2 78 85	 LDX #			A:AA X:80 Y:0B P:A5 SP:FB - 
DC38  85 78 20	 STA zpg			A:AA X:78 Y:0B P:25 SP:FB - 
DC3A  20 B6 F7	 JSR abs			A:AA X:78 Y:0B P:25 SP:FB - 
F7B6  18 A9 FF	 CLC impl			A:AA X:78 Y:0B P:25 SP:F9 - 
F7B7  A9 FF 85	 LDA #			A:AA X:78 Y:0B P:24 SP:F9 - 
F7B9  85 01 24	 STA zpg			A:FF X:78 Y:0B P:A4 SP:F9 - 
F7BB  24 01 A9	 BIT zpg			A:FF X:78 Y:0B P:A4 SP:F9 - 
F7BD  A9 55 60	 LDA #			A:FF X:78 Y:0B P:E4 SP:F9 - 
F7BF  60 B0 09	 RTS impl			A:55 X:78 Y:0B P:64 SP:F9 - 
DC3D  15 00 20	 ORA zpg,X			A:55 X:78 Y:0B P:64 SP:FB - 
DC3F  20 C0 F7	 JSR abs			A:FF X:78 Y:0B P:E4 SP:FB - 
F7C0  B0 09 10	 BCS rel			A:FF X:78 Y:0B P:E4 SP:F9 - 
F7C2  10 07 C9	 BPL rel			A:FF X:78 Y:0B P:E4 SP:F9 - 
F7C4  C9 FF D0	 CMP #			A:FF X:78 Y:0B P:E4 SP:F9 - 
F7C6  D0 03 50	 BNE rel			A:FF X:78 Y:0B P:67 SP:F9 - 
F7C8  50 01 60	 BVC rel			A:FF X:78 Y:0B P:67 SP:F9 - 
F7CA  60 84 00	 RTS impl			A:FF X:78 Y:0B P:67 SP:F9 - 
DC42  C8 A9 00	 INY impl			A:FF X:78 Y:0B P:67 SP:FB - 
DC43  A9 00 85	 LDA #			A:FF X:78 Y:0C P:65 SP:FB - 
DC45  85 78 20	 STA zpg			A:00 X:78 Y:0C P:67 SP:FB - 
DC47  20 CE F7	 JSR abs			A:00 X:78 Y:0C P:67 SP:FB - 
F7CE  38 B8 A9	 SEC impl			A:00 X:78 Y:0C P:67 SP:F9 - 
F7CF  B8 A9 00	 CLV impl			A:00 X:78 Y:0C P:67 SP:F9 - 
F7D0  A9 00 60	 LDA #			A:00 X:78 Y:0C P:27 SP:F9 - 
F7D2  60 D0 07	 RTS impl			A:00 X:78 Y:0C P:27 SP:F9 - 
DC4A  15 00 20	 ORA zpg,X			A:00 X:78 Y:0C P:27 SP:FB - 
DC4C  20 D3 F7	 JSR abs			A:00 X:78 Y:0C P:27 SP:FB - 
F7D3  D0 07 70	 BNE rel			A:00 X:78 Y:0C P:27 SP:F9 - 
F7D5  70 05 90	 BVS rel			A:00 X:78 Y:0C P:27 SP:F9 - 
F7D7  90 03 30	 BCC rel			A:00 X:78 Y:0C P:27 SP:F9 - 
F7D9  30 01 60	 BMI rel			A:00 X:78 Y:0C P:27 SP:F9 - 
F7DB  60 84 00	 RTS impl			A:00 X:78 Y:0C P:27 SP:F9 - 
DC4F  C8 A9 AA	 INY impl			A:00 X:78 Y:0C P:27 SP:FB - 
DC50  A9 AA 85	 LDA #			A:00 X:78 Y:0D P:25 SP:FB - 
DC52  85 78 20	 STA zpg			A:AA X:78 Y:0D P:A5 SP:FB - 
DC54  20 DF F7	 JSR abs			A:AA X:78 Y:0D P:A5 SP:FB - 
F7DF  18 24 01	 CLC impl			A:AA X:78 Y:0D P:A5 SP:F9 - 
F7E0  24 01 A9	 BIT zpg			A:AA X:78 Y:0D P:A4 SP:F9 - 
F7E2  A9 55 60	 LDA #			A:AA X:78 Y:0D P:E4 SP:F9 - 
F7E4  60 D0 07	 RTS impl			A:55 X:78 Y:0D P:64 SP:F9 - 
DC57  35 00 20	 AND zpg,X			A:55 X:78 Y:0D P:64 SP:FB - 
DC59  20 E5 F7	 JSR abs			A:00 X:78 Y:0D P:66 SP:FB - 
F7E5  D0 07 50	 BNE rel			A:00 X:78 Y:0D P:66 SP:F9 - 
F7E7  50 05 B0	 BVC rel			A:00 X:78 Y:0D P:66 SP:F9 - 
F7E9  B0 03 30	 BCS rel			A:00 X:78 Y:0D P:66 SP:F9 - 
F7EB  30 01 60	 BMI rel			A:00 X:78 Y:0D P:66 SP:F9 - 
F7ED  60 84 00	 RTS impl			A:00 X:78 Y:0D P:66 SP:F9 - 
DC5C  C8 A9 EF	 INY impl			A:00 X:78 Y:0D P:66 SP:FB - 
DC5D  A9 EF 85	 LDA #			A:00 X:78 Y:0E P:64 SP:FB - 
DC5F  85 78 20	 STA zpg			A:EF X:78 Y:0E P:E4 SP:FB - 
DC61  20 F1 F7	 JSR abs			A:EF X:78 Y:0E P:E4 SP:FB - 
F7F1  38 B8 A9	 SEC impl			A:EF X:78 Y:0E P:E4 SP:F9 - 
F7F2  B8 A9 F8	 CLV impl			A:EF X:78 Y:0E P:E5 SP:F9 - 
F7F3  A9 F8 60	 LDA #			A:EF X:78 Y:0E P:A5 SP:F9 - 
F7F5  60 90 09	 RTS impl			A:F8 X:78 Y:0E P:A5 SP:F9 - 
DC64  35 00 20	 AND zpg,X			A:F8 X:78 Y:0E P:A5 SP:FB - 
DC66  20 F6 F7	 JSR abs			A:E8 X:78 Y:0E P:A5 SP:FB - 
F7F6  90 09 10	 BCC rel			A:E8 X:78 Y:0E P:A5 SP:F9 - 
F7F8  10 07 C9	 BPL rel			A:E8 X:78 Y:0E P:A5 SP:F9 - 
F7FA  C9 E8 D0	 CMP #			A:E8 X:78 Y:0E P:A5 SP:F9 - 
F7FC  D0 03 70	 BNE rel			A:E8 X:78 Y:0E P:27 SP:F9 - 
F7FE  70 01 60	 BVS rel			A:E8 X:78 Y:0E P:27 SP:F9 - 
F800  60 84 00	 RTS impl			A:E8 X:78 Y:0E P:27 SP:F9 - 
DC69  C8 A9 AA	 INY impl			A:E8 X:78 Y:0E P:27 SP:FB - 
DC6A  A9 AA 85	 LDA #			A:E8 X:78 Y:0F P:25 SP:FB - 
DC6C  85 78 20	 STA zpg			A:AA X:78 Y:0F P:A5 SP:FB - 
DC6E  20 04 F8	 JSR abs			A:AA X:78 Y:0F P:A5 SP:FB - 
F804  18 24 01	 CLC impl			A:AA X:78 Y:0F P:A5 SP:F9 - 
F805  24 01 A9	 BIT zpg			A:AA X:78 Y:0F P:A4 SP:F9 - 
F807  A9 5F 60	 LDA #			A:AA X:78 Y:0F P:E4 SP:F9 - 
F809  60 B0 09	 RTS impl			A:5F X:78 Y:0F P:64 SP:F9 - 
DC71  55 00 20	 EOR zpg,X			A:5F X:78 Y:0F P:64 SP:FB - 
DC73  20 0A F8	 JSR abs			A:F5 X:78 Y:0F P:E4 SP:FB - 
F80A  B0 09 10	 BCS rel			A:F5 X:78 Y:0F P:E4 SP:F9 - 
F80C  10 07 C9	 BPL rel			A:F5 X:78 Y:0F P:E4 SP:F9 - 
F80E  C9 F5 D0	 CMP #			A:F5 X:78 Y:0F P:E4 SP:F9 - 
F810  D0 03 50	 BNE rel			A:F5 X:78 Y:0F P:67 SP:F9 - 
F812  50 01 60	 BVC rel			A:F5 X:78 Y:0F P:67 SP:F9 - 
F814  60 84 00	 RTS impl			A:F5 X:78 Y:0F P:67 SP:F9 - 
DC76  C8 A9 70	 INY impl			A:F5 X:78 Y:0F P:67 SP:FB - 
DC77  A9 70 85	 LDA #			A:F5 X:78 Y:10 P:65 SP:FB - 
DC79  85 78 20	 STA zpg			A:70 X:78 Y:10 P:65 SP:FB - 
DC7B  20 18 F8	 JSR abs			A:70 X:78 Y:10 P:65 SP:FB - 
F818  38 B8 A9	 SEC impl			A:70 X:78 Y:10 P:65 SP:F9 - 
F819  B8 A9 70	 CLV impl			A:70 X:78 Y:10 P:65 SP:F9 - 
F81A  A9 70 60	 LDA #			A:70 X:78 Y:10 P:25 SP:F9 - 
F81C  60 D0 07	 RTS impl			A:70 X:78 Y:10 P:25 SP:F9 - 
DC7E  55 00 20	 EOR zpg,X			A:70 X:78 Y:10 P:25 SP:FB - 
DC80  20 1D F8	 JSR abs			A:00 X:78 Y:10 P:27 SP:FB - 
F81D  D0 07 70	 BNE rel			A:00 X:78 Y:10 P:27 SP:F9 - 
F81F  70 05 90	 BVS rel			A:00 X:78 Y:10 P:27 SP:F9 - 
F821  90 03 30	 BCC rel			A:00 X:78 Y:10 P:27 SP:F9 - 
F823  30 01 60	 BMI rel			A:00 X:78 Y:10 P:27 SP:F9 - 
F825  60 84 00	 RTS impl			A:00 X:78 Y:10 P:27 SP:F9 - 
DC83  C8 A9 69	 INY impl			A:00 X:78 Y:10 P:27 SP:FB - 
DC84  A9 69 85	 LDA #			A:00 X:78 Y:11 P:25 SP:FB - 
DC86  85 78 20	 STA zpg			A:69 X:78 Y:11 P:25 SP:FB - 
DC88  20 29 F8	 JSR abs			A:69 X:78 Y:11 P:25 SP:FB - 
F829  18 24 01	 CLC impl			A:69 X:78 Y:11 P:25 SP:F9 - 
F82A  24 01 A9	 BIT zpg			A:69 X:78 Y:11 P:24 SP:F9 - 
F82C  A9 00 60	 LDA #			A:69 X:78 Y:11 P:E4 SP:F9 - 
F82E  60 30 09	 RTS impl			A:00 X:78 Y:11 P:66 SP:F9 - 
DC8B  75 00 20	 ADC zpg,X			A:00 X:78 Y:11 P:66 SP:FB - 
DC8D  20 2F F8	 JSR abs			A:69 X:78 Y:11 P:24 SP:FB - 
F82F  30 09 B0	 BMI rel			A:69 X:78 Y:11 P:24 SP:F9 - 
F831  B0 07 C9	 BCS rel			A:69 X:78 Y:11 P:24 SP:F9 - 
F833  C9 69 D0	 CMP #			A:69 X:78 Y:11 P:24 SP:F9 - 
F835  D0 03 70	 BNE rel			A:69 X:78 Y:11 P:27 SP:F9 - 
F837  70 01 60	 BVS rel			A:69 X:78 Y:11 P:27 SP:F9 - 
F839  60 84 00	 RTS impl			A:69 X:78 Y:11 P:27 SP:F9 - 
DC90  C8 20 3D	 INY impl			A:69 X:78 Y:11 P:27 SP:FB - 
DC91  20 3D F8	 JSR abs			A:69 X:78 Y:12 P:25 SP:FB - 
F83D  38 24 01	 SEC impl			A:69 X:78 Y:12 P:25 SP:F9 - 
F83E  24 01 A9	 BIT zpg			A:69 X:78 Y:12 P:25 SP:F9 - 
F840  A9 00 60	 LDA #			A:69 X:78 Y:12 P:E5 SP:F9 - 
F842  60 30 09	 RTS impl			A:00 X:78 Y:12 P:67 SP:F9 - 
DC94  75 00 20	 ADC zpg,X			A:00 X:78 Y:12 P:67 SP:FB - 
DC96  20 43 F8	 JSR abs			A:6A X:78 Y:12 P:24 SP:FB - 
F843  30 09 B0	 BMI rel			A:6A X:78 Y:12 P:24 SP:F9 - 
F845  B0 07 C9	 BCS rel			A:6A X:78 Y:12 P:24 SP:F9 - 
F847  C9 6A D0	 CMP #			A:6A X:78 Y:12 P:24 SP:F9 - 
F849  D0 03 70	 BNE rel			A:6A X:78 Y:12 P:27 SP:F9 - 
F84B  70 01 60	 BVS rel			A:6A X:78 Y:12 P:27 SP:F9 - 
F84D  60 84 00	 RTS impl			A:6A X:78 Y:12 P:27 SP:F9 - 
DC99  C8 A9 7F	 INY impl			A:6A X:78 Y:12 P:27 SP:FB - 
DC9A  A9 7F 85	 LDA #			A:6A X:78 Y:13 P:25 SP:FB - 
DC9C  85 78 20	 STA zpg			A:7F X:78 Y:13 P:25 SP:FB - 
DC9E  20 51 F8	 JSR abs			A:7F X:78 Y:13 P:25 SP:FB - 
F851  38 B8 A9	 SEC impl			A:7F X:78 Y:13 P:25 SP:F9 - 
F852  B8 A9 7F	 CLV impl			A:7F X:78 Y:13 P:25 SP:F9 - 
F853  A9 7F 60	 LDA #			A:7F X:78 Y:13 P:25 SP:F9 - 
F855  60 10 09	 RTS impl			A:7F X:78 Y:13 P:25 SP:F9 - 
DCA1  75 00 20	 ADC zpg,X			A:7F X:78 Y:13 P:25 SP:FB - 
DCA3  20 56 F8	 JSR abs			A:FF X:78 Y:13 P:E4 SP:FB - 
F856  10 09 B0	 BPL rel			A:FF X:78 Y:13 P:E4 SP:F9 - 
F858  B0 07 C9	 BCS rel			A:FF X:78 Y:13 P:E4 SP:F9 - 
F85A  C9 FF D0	 CMP #			A:FF X:78 Y:13 P:E4 SP:F9 - 
F85C  D0 03 50	 BNE rel			A:FF X:78 Y:13 P:67 SP:F9 - 
F85E  50 01 60	 BVC rel			A:FF X:78 Y:13 P:67 SP:F9 - 
F860  60 84 00	 RTS impl			A:FF X:78 Y:13 P:67 SP:F9 - 
DCA6  C8 A9 80	 INY impl			A:FF X:78 Y:13 P:67 SP:FB - 
DCA7  A9 80 85	 LDA #			A:FF X:78 Y:14 P:65 SP:FB - 
DCA9  85 78 20	 STA zpg			A:80 X:78 Y:14 P:E5 SP:FB - 
DCAB  20 64 F8	 JSR abs			A:80 X:78 Y:14 P:E5 SP:FB - 
F864  18 24 01	 CLC impl			A:80 X:78 Y:14 P:E5 SP:F9 - 
F865  24 01 A9	 BIT zpg			A:80 X:78 Y:14 P:E4 SP:F9 - 
F867  A9 7F 60	 LDA #			A:80 X:78 Y:14 P:E4 SP:F9 - 
F869  60 10 09	 RTS impl			A:7F X:78 Y:14 P:64 SP:F9 - 
DCAE  75 00 20	 ADC zpg,X			A:7F X:78 Y:14 P:64 SP:FB - 
DCB0  20 6A F8	 JSR abs			A:FF X:78 Y:14 P:A4 SP:FB - 
F86A  10 09 B0	 BPL rel			A:FF X:78 Y:14 P:A4 SP:F9 - 
F86C  B0 07 C9	 BCS rel			A:FF X:78 Y:14 P:A4 SP:F9 - 
F86E  C9 FF D0	 CMP #			A:FF X:78 Y:14 P:A4 SP:F9 - 
F870  D0 03 70	 BNE rel			A:FF X:78 Y:14 P:27 SP:F9 - 
F872  70 01 60	 BVS rel			A:FF X:78 Y:14 P:27 SP:F9 - 
F874  60 84 00	 RTS impl			A:FF X:78 Y:14 P:27 SP:F9 - 
DCB3  C8 20 78	 INY impl			A:FF X:78 Y:14 P:27 SP:FB - 
DCB4  20 78 F8	 JSR abs			A:FF X:78 Y:15 P:25 SP:FB - 
F878  38 B8 A9	 SEC impl			A:FF X:78 Y:15 P:25 SP:F9 - 
F879  B8 A9 7F	 CLV impl			A:FF X:78 Y:15 P:25 SP:F9 - 
F87A  A9 7F 60	 LDA #			A:FF X:78 Y:15 P:25 SP:F9 - 
F87C  60 D0 07	 RTS impl			A:7F X:78 Y:15 P:25 SP:F9 - 
DCB7  75 00 20	 ADC zpg,X			A:7F X:78 Y:15 P:25 SP:FB - 
DCB9  20 7D F8	 JSR abs			A:00 X:78 Y:15 P:27 SP:FB - 
F87D  D0 07 30	 BNE rel			A:00 X:78 Y:15 P:27 SP:F9 - 
F87F  30 05 70	 BMI rel			A:00 X:78 Y:15 P:27 SP:F9 - 
F881  70 03 90	 BVS rel			A:00 X:78 Y:15 P:27 SP:F9 - 
F883  90 01 60	 BCC rel			A:00 X:78 Y:15 P:27 SP:F9 - 
F885  60 84 00	 RTS impl			A:00 X:78 Y:15 P:27 SP:F9 - 
DCBC  C8 A9 40	 INY impl			A:00 X:78 Y:15 P:27 SP:FB - 
DCBD  A9 40 85	 LDA #			A:00 X:78 Y:16 P:25 SP:FB - 
DCBF  85 78 20	 STA zpg			A:40 X:78 Y:16 P:25 SP:FB - 
DCC1  20 89 F8	 JSR abs			A:40 X:78 Y:16 P:25 SP:FB - 
F889  24 01 A9	 BIT zpg			A:40 X:78 Y:16 P:25 SP:F9 - 
F88B  A9 40 60	 LDA #			A:40 X:78 Y:16 P:E5 SP:F9 - 
F88D  60 30 07	 RTS impl			A:40 X:78 Y:16 P:65 SP:F9 - 
DCC4  D5 00 20	 CMP zpg,X			A:40 X:78 Y:16 P:65 SP:FB - 
DCC6  20 8E F8	 JSR abs			A:40 X:78 Y:16 P:67 SP:FB - 
F88E  30 07 90	 BMI rel			A:40 X:78 Y:16 P:67 SP:F9 - 
F890  90 05 D0	 BCC rel			A:40 X:78 Y:16 P:67 SP:F9 - 
F892  D0 03 50	 BNE rel			A:40 X:78 Y:16 P:67 SP:F9 - 
F894  50 01 60	 BVC rel			A:40 X:78 Y:16 P:67 SP:F9 - 
F896  60 84 00	 RTS impl			A:40 X:78 Y:16 P:67 SP:F9 - 
DCC9  C8 48 A9	 INY impl			A:40 X:78 Y:16 P:67 SP:FB - 
DCCA  48 A9 3F	 PHA impl			A:40 X:78 Y:17 P:65 SP:FB - 
DCCB  A9 3F 85	 LDA #			A:40 X:78 Y:17 P:65 SP:FA - 
DCCD  85 78 68	 STA zpg			A:3F X:78 Y:17 P:65 SP:FA - 
DCCF  68 20 9A	 PLA impl			A:3F X:78 Y:17 P:65 SP:FA - 
DCD0  20 9A F8	 JSR abs			A:40 X:78 Y:17 P:65 SP:FB - 
F89A  B8 60 F0	 CLV impl			A:40 X:78 Y:17 P:65 SP:F9 - 
F89B  60 F0 07	 RTS impl			A:40 X:78 Y:17 P:25 SP:F9 - 
DCD3  D5 00 20	 CMP zpg,X			A:40 X:78 Y:17 P:25 SP:FB - 
DCD5  20 9C F8	 JSR abs			A:40 X:78 Y:17 P:25 SP:FB - 
F89C  F0 07 30	 BEQ rel			A:40 X:78 Y:17 P:25 SP:F9 - 
F89E  30 05 90	 BMI rel			A:40 X:78 Y:17 P:25 SP:F9 - 
F8A0  90 03 70	 BCC rel			A:40 X:78 Y:17 P:25 SP:F9 - 
F8A2  70 01 60	 BVS rel			A:40 X:78 Y:17 P:25 SP:F9 - 
F8A4  60 84 00	 RTS impl			A:40 X:78 Y:17 P:25 SP:F9 - 
DCD8  C8 48 A9	 INY impl			A:40 X:78 Y:17 P:25 SP:FB - 
DCD9  48 A9 41	 PHA impl			A:40 X:78 Y:18 P:25 SP:FB - 
DCDA  A9 41 85	 LDA #			A:40 X:78 Y:18 P:25 SP:FA - 
DCDC  85 78 68	 STA zpg			A:41 X:78 Y:18 P:25 SP:FA - 
DCDE  68 D5 00	 PLA impl			A:41 X:78 Y:18 P:25 SP:FA - 
DCDF  D5 00 20	 CMP zpg,X			A:40 X:78 Y:18 P:25 SP:FB - 
DCE1  20 A8 F8	 JSR abs			A:40 X:78 Y:18 P:A4 SP:FB - 
F8A8  F0 05 10	 BEQ rel			A:40 X:78 Y:18 P:A4 SP:F9 - 
F8AA  10 03 10	 BPL rel			A:40 X:78 Y:18 P:A4 SP:F9 - 
F8AC  10 01 60	 BPL rel			A:40 X:78 Y:18 P:A4 SP:F9 - 
F8AE  60 84 00	 RTS impl			A:40 X:78 Y:18 P:A4 SP:F9 - 
DCE4  C8 48 A9	 INY impl			A:40 X:78 Y:18 P:A4 SP:FB - 
DCE5  48 A9 00	 PHA impl			A:40 X:78 Y:19 P:24 SP:FB - 
DCE6  A9 00 85	 LDA #			A:40 X:78 Y:19 P:24 SP:FA - 
DCE8  85 78 68	 STA zpg			A:00 X:78 Y:19 P:26 SP:FA - 
DCEA  68 20 B2	 PLA impl			A:00 X:78 Y:19 P:26 SP:FA - 
DCEB  20 B2 F8	 JSR abs			A:40 X:78 Y:19 P:24 SP:FB - 
F8B2  A9 80 60	 LDA #			A:40 X:78 Y:19 P:24 SP:F9 - 
F8B4  60 F0 05	 RTS impl			A:80 X:78 Y:19 P:A4 SP:F9 - 
DCEE  D5 00 20	 CMP zpg,X			A:80 X:78 Y:19 P:A4 SP:FB - 
DCF0  20 B5 F8	 JSR abs			A:80 X:78 Y:19 P:A5 SP:FB - 
F8B5  F0 05 10	 BEQ rel			A:80 X:78 Y:19 P:A5 SP:F9 - 
F8B7  10 03 90	 BPL rel			A:80 X:78 Y:19 P:A5 SP:F9 - 
F8B9  90 01 60	 BCC rel			A:80 X:78 Y:19 P:A5 SP:F9 - 
F8BB  60 84 00	 RTS impl			A:80 X:78 Y:19 P:A5 SP:F9 - 
DCF3  C8 48 A9	 INY impl			A:80 X:78 Y:19 P:A5 SP:FB - 
DCF4  48 A9 80	 PHA impl			A:80 X:78 Y:1A P:25 SP:FB - 
DCF5  A9 80 85	 LDA #			A:80 X:78 Y:1A P:25 SP:FA - 
DCF7  85 78 68	 STA zpg			A:80 X:78 Y:1A P:A5 SP:FA - 
DCF9  68 D5 00	 PLA impl			A:80 X:78 Y:1A P:A5 SP:FA - 
DCFA  D5 00 20	 CMP zpg,X			A:80 X:78 Y:1A P:A5 SP:FB - 
DCFC  20 BF F8	 JSR abs			A:80 X:78 Y:1A P:27 SP:FB - 
F8BF  D0 05 30	 BNE rel			A:80 X:78 Y:1A P:27 SP:F9 - 
F8C1  30 03 90	 BMI rel			A:80 X:78 Y:1A P:27 SP:F9 - 
F8C3  90 01 60	 BCC rel			A:80 X:78 Y:1A P:27 SP:F9 - 
F8C5  60 84 00	 RTS impl			A:80 X:78 Y:1A P:27 SP:F9 - 
DCFF  C8 48 A9	 INY impl			A:80 X:78 Y:1A P:27 SP:FB - 
DD00  48 A9 81	 PHA impl			A:80 X:78 Y:1B P:25 SP:FB - 
DD01  A9 81 85	 LDA #			A:80 X:78 Y:1B P:25 SP:FA - 
DD03  85 78 68	 STA zpg			A:81 X:78 Y:1B P:A5 SP:FA - 
DD05  68 D5 00	 PLA impl			A:81 X:78 Y:1B P:A5 SP:FA - 
DD06  D5 00 20	 CMP zpg,X			A:80 X:78 Y:1B P:A5 SP:FB - 
DD08  20 C9 F8	 JSR abs			A:80 X:78 Y:1B P:A4 SP:FB - 
F8C9  B0 05 F0	 BCS rel			A:80 X:78 Y:1B P:A4 SP:F9 - 
F8CB  F0 03 10	 BEQ rel			A:80 X:78 Y:1B P:A4 SP:F9 - 
F8CD  10 01 60	 BPL rel			A:80 X:78 Y:1B P:A4 SP:F9 - 
F8CF  60 84 00	 RTS impl			A:80 X:78 Y:1B P:A4 SP:F9 - 
DD0B  C8 48 A9	 INY impl			A:80 X:78 Y:1B P:A4 SP:FB - 
DD0C  48 A9 7F	 PHA impl			A:80 X:78 Y:1C P:24 SP:FB - 
DD0D  A9 7F 85	 LDA #			A:80 X:78 Y:1C P:24 SP:FA - 
DD0F  85 78 68	 STA zpg			A:7F X:78 Y:1C P:24 SP:FA - 
DD11  68 D5 00	 PLA impl			A:7F X:78 Y:1C P:24 SP:FA - 
DD12  D5 00 20	 CMP zpg,X			A:80 X:78 Y:1C P:A4 SP:FB - 
DD14  20 D3 F8	 JSR abs			A:80 X:78 Y:1C P:25 SP:FB - 
F8D3  90 05 F0	 BCC rel			A:80 X:78 Y:1C P:25 SP:F9 - 
F8D5  F0 03 30	 BEQ rel			A:80 X:78 Y:1C P:25 SP:F9 - 
F8D7  30 01 60	 BMI rel			A:80 X:78 Y:1C P:25 SP:F9 - 
F8D9  60 84 00	 RTS impl			A:80 X:78 Y:1C P:25 SP:F9 - 
DD17  C8 A9 40	 INY impl			A:80 X:78 Y:1C P:25 SP:FB - 
DD18  A9 40 85	 LDA #			A:80 X:78 Y:1D P:25 SP:FB - 
DD1A  85 78 20	 STA zpg			A:40 X:78 Y:1D P:25 SP:FB - 
DD1C  20 31 F9	 JSR abs			A:40 X:78 Y:1D P:25 SP:FB - 
F931  24 01 A9	 BIT zpg			A:40 X:78 Y:1D P:25 SP:F9 - 
F933  A9 40 38	 LDA #			A:40 X:78 Y:1D P:E5 SP:F9 - 
F935  38 60 30	 SEC impl			A:40 X:78 Y:1D P:65 SP:F9 - 
F936  60 30 0B	 RTS impl			A:40 X:78 Y:1D P:65 SP:F9 - 
DD1F  F5 00 20	 SBC zpg,X			A:40 X:78 Y:1D P:65 SP:FB - 
DD21  20 37 F9	 JSR abs			A:00 X:78 Y:1D P:27 SP:FB - 
F937  30 0B 90	 BMI rel			A:00 X:78 Y:1D P:27 SP:F9 - 
F939  90 09 D0	 BCC rel			A:00 X:78 Y:1D P:27 SP:F9 - 
F93B  D0 07 70	 BNE rel			A:00 X:78 Y:1D P:27 SP:F9 - 
F93D  70 05 C9	 BVS rel			A:00 X:78 Y:1D P:27 SP:F9 - 
F93F  C9 00 D0	 CMP #			A:00 X:78 Y:1D P:27 SP:F9 - 
F941  D0 01 60	 BNE rel			A:00 X:78 Y:1D P:27 SP:F9 - 
F943  60 84 00	 RTS impl			A:00 X:78 Y:1D P:27 SP:F9 - 
DD24  C8 A9 3F	 INY impl			A:00 X:78 Y:1D P:27 SP:FB - 
DD25  A9 3F 85	 LDA #			A:00 X:78 Y:1E P:25 SP:FB - 
DD27  85 78 20	 STA zpg			A:3F X:78 Y:1E P:25 SP:FB - 
DD29  20 47 F9	 JSR abs			A:3F X:78 Y:1E P:25 SP:FB - 
F947  B8 38 A9	 CLV impl			A:3F X:78 Y:1E P:25 SP:F9 - 
F948  38 A9 40	 SEC impl			A:3F X:78 Y:1E P:25 SP:F9 - 
F949  A9 40 60	 LDA #			A:3F X:78 Y:1E P:25 SP:F9 - 
F94B  60 F0 0B	 RTS impl			A:40 X:78 Y:1E P:25 SP:F9 - 
DD2C  F5 00 20	 SBC zpg,X			A:40 X:78 Y:1E P:25 SP:FB - 
DD2E  20 4C F9	 JSR abs			A:01 X:78 Y:1E P:25 SP:FB - 
F94C  F0 0B 30	 BEQ rel			A:01 X:78 Y:1E P:25 SP:F9 - 
F94E  30 09 90	 BMI rel			A:01 X:78 Y:1E P:25 SP:F9 - 
F950  90 07 70	 BCC rel			A:01 X:78 Y:1E P:25 SP:F9 - 
F952  70 05 C9	 BVS rel			A:01 X:78 Y:1E P:25 SP:F9 - 
F954  C9 01 D0	 CMP #			A:01 X:78 Y:1E P:25 SP:F9 - 
F956  D0 01 60	 BNE rel			A:01 X:78 Y:1E P:27 SP:F9 - 
F958  60 84 00	 RTS impl			A:01 X:78 Y:1E P:27 SP:F9 - 
DD31  C8 A9 41	 INY impl			A:01 X:78 Y:1E P:27 SP:FB - 
DD32  A9 41 85	 LDA #			A:01 X:78 Y:1F P:25 SP:FB - 
DD34  85 78 20	 STA zpg			A:41 X:78 Y:1F P:25 SP:FB - 
DD36  20 5C F9	 JSR abs			A:41 X:78 Y:1F P:25 SP:FB - 
F95C  A9 40 38	 LDA #			A:41 X:78 Y:1F P:25 SP:F9 - 
F95E  38 24 01	 SEC impl			A:40 X:78 Y:1F P:25 SP:F9 - 
F95F  24 01 60	 BIT zpg			A:40 X:78 Y:1F P:25 SP:F9 - 
F961  60 B0 0B	 RTS impl			A:40 X:78 Y:1F P:E5 SP:F9 - 
DD39  F5 00 20	 SBC zpg,X			A:40 X:78 Y:1F P:E5 SP:FB - 
DD3B  20 62 F9	 JSR abs			A:FF X:78 Y:1F P:A4 SP:FB - 
F962  B0 0B F0	 BCS rel			A:FF X:78 Y:1F P:A4 SP:F9 - 
F964  F0 09 10	 BEQ rel			A:FF X:78 Y:1F P:A4 SP:F9 - 
F966  10 07 70	 BPL rel			A:FF X:78 Y:1F P:A4 SP:F9 - 
F968  70 05 C9	 BVS rel			A:FF X:78 Y:1F P:A4 SP:F9 - 
F96A  C9 FF D0	 CMP #			A:FF X:78 Y:1F P:A4 SP:F9 - 
F96C  D0 01 60	 BNE rel			A:FF X:78 Y:1F P:27 SP:F9 - 
F96E  60 84 00	 RTS impl			A:FF X:78 Y:1F P:27 SP:F9 - 
DD3E  C8 A9 00	 INY impl			A:FF X:78 Y:1F P:27 SP:FB - 
DD3F  A9 00 85	 LDA #			A:FF X:78 Y:20 P:25 SP:FB - 
DD41  85 78 20	 STA zpg			A:00 X:78 Y:20 P:27 SP:FB - 
DD43  20 72 F9	 JSR abs			A:00 X:78 Y:20 P:27 SP:FB - 
F972  18 A9 80	 CLC impl			A:00 X:78 Y:20 P:27 SP:F9 - 
F973  A9 80 60	 LDA #			A:00 X:78 Y:20 P:26 SP:F9 - 
F975  60 90 05	 RTS impl			A:80 X:78 Y:20 P:A4 SP:F9 - 
DD46  F5 00 20	 SBC zpg,X			A:80 X:78 Y:20 P:A4 SP:FB - 
DD48  20 76 F9	 JSR abs			A:7F X:78 Y:20 P:65 SP:FB - 
F976  90 05 C9	 BCC rel			A:7F X:78 Y:20 P:65 SP:F9 - 
F978  C9 7F D0	 CMP #			A:7F X:78 Y:20 P:65 SP:F9 - 
F97A  D0 01 60	 BNE rel			A:7F X:78 Y:20 P:67 SP:F9 - 
F97C  60 84 00	 RTS impl			A:7F X:78 Y:20 P:67 SP:F9 - 
DD4B  C8 A9 7F	 INY impl			A:7F X:78 Y:20 P:67 SP:FB - 
DD4C  A9 7F 85	 LDA #			A:7F X:78 Y:21 P:65 SP:FB - 
DD4E  85 78 20	 STA zpg			A:7F X:78 Y:21 P:65 SP:FB - 
DD50  20 80 F9	 JSR abs			A:7F X:78 Y:21 P:65 SP:FB - 
F980  38 A9 81	 SEC impl			A:7F X:78 Y:21 P:65 SP:F9 - 
F981  A9 81 60	 LDA #			A:7F X:78 Y:21 P:65 SP:F9 - 
F983  60 50 07	 RTS impl			A:81 X:78 Y:21 P:E5 SP:F9 - 
DD53  F5 00 20	 SBC zpg,X			A:81 X:78 Y:21 P:E5 SP:FB - 
DD55  20 84 F9	 JSR abs			A:02 X:78 Y:21 P:65 SP:FB - 
F984  50 07 90	 BVC rel			A:02 X:78 Y:21 P:65 SP:F9 - 
F986  90 05 C9	 BCC rel			A:02 X:78 Y:21 P:65 SP:F9 - 
F988  C9 02 D0	 CMP #			A:02 X:78 Y:21 P:65 SP:F9 - 
F98A  D0 01 60	 BNE rel			A:02 X:78 Y:21 P:67 SP:F9 - 
F98C  60 84 00	 RTS impl			A:02 X:78 Y:21 P:67 SP:F9 - 
DD58  A9 AA 85	 LDA #			A:02 X:78 Y:21 P:67 SP:FB - 
DD5A  85 33 A9	 STA zpg			A:AA X:78 Y:21 P:E5 SP:FB - 
DD5C  A9 BB 85	 LDA #			A:AA X:78 Y:21 P:E5 SP:FB - 
DD5E  85 89 A2	 STA zpg			A:BB X:78 Y:21 P:E5 SP:FB - 
DD60  A2 00 A0	 LDX #			A:BB X:78 Y:21 P:E5 SP:FB - 
DD62  A0 66 24	 LDY #			A:BB X:00 Y:21 P:67 SP:FB - 
DD64  24 01 38	 BIT zpg			A:BB X:00 Y:66 P:65 SP:FB - 
DD66  38 A9 00	 SEC impl			A:BB X:00 Y:66 P:E5 SP:FB - 
DD67  A9 00 B5	 LDA #			A:BB X:00 Y:66 P:E5 SP:FB - 
DD69  B5 33 10	 LDA zpg,X			A:00 X:00 Y:66 P:67 SP:FB - 
DD6B  10 12 F0	 BPL rel			A:AA X:00 Y:66 P:E5 SP:FB - 
DD6D  F0 10 50	 BEQ rel			A:AA X:00 Y:66 P:E5 SP:FB - 
DD6F  50 0E 90	 BVC rel			A:AA X:00 Y:66 P:E5 SP:FB - 
DD71  90 0C C0	 BCC rel			A:AA X:00 Y:66 P:E5 SP:FB - 
DD73  C0 66 D0	 CPY #			A:AA X:00 Y:66 P:E5 SP:FB - 
DD75  D0 08 E0	 BNE rel			A:AA X:00 Y:66 P:67 SP:FB - 
DD77  E0 00 D0	 CPX #			A:AA X:00 Y:66 P:67 SP:FB - 
DD79  D0 04 C9	 BNE rel			A:AA X:00 Y:66 P:67 SP:FB - 
DD7B  C9 AA F0	 CMP #			A:AA X:00 Y:66 P:67 SP:FB - 
DD7D  F0 04 A9	 BEQ rel			A:AA X:00 Y:66 P:67 SP:FB - 
DD83  A2 8A A0	 LDX #			A:AA X:00 Y:66 P:67 SP:FB - 
DD85  A0 66 B8	 LDY #			A:AA X:8A Y:66 P:E5 SP:FB - 
DD87  B8 18 A9	 CLV impl			A:AA X:8A Y:66 P:65 SP:FB - 
DD88  18 A9 00	 CLC impl			A:AA X:8A Y:66 P:25 SP:FB - 
DD89  A9 00 B5	 LDA #			A:AA X:8A Y:66 P:24 SP:FB - 
DD8B  B5 FF 10	 LDA zpg,X			A:00 X:8A Y:66 P:26 SP:FB - 
DD8D  10 12 F0	 BPL rel			A:BB X:8A Y:66 P:A4 SP:FB - 
DD8F  F0 10 70	 BEQ rel			A:BB X:8A Y:66 P:A4 SP:FB - 
DD91  70 0E B0	 BVS rel			A:BB X:8A Y:66 P:A4 SP:FB - 
DD93  B0 0C C9	 BCS rel			A:BB X:8A Y:66 P:A4 SP:FB - 
DD95  C9 BB D0	 CMP #			A:BB X:8A Y:66 P:A4 SP:FB - 
DD97  D0 08 C0	 BNE rel			A:BB X:8A Y:66 P:27 SP:FB - 
DD99  C0 66 D0	 CPY #			A:BB X:8A Y:66 P:27 SP:FB - 
DD9B  D0 04 E0	 BNE rel			A:BB X:8A Y:66 P:27 SP:FB - 
DD9D  E0 8A F0	 CPX #			A:BB X:8A Y:66 P:27 SP:FB - 
DD9F  F0 04 A9	 BEQ rel			A:BB X:8A Y:66 P:27 SP:FB - 
DDA5  24 01 38	 BIT zpg			A:BB X:8A Y:66 P:27 SP:FB - 
DDA7  38 A9 44	 SEC impl			A:BB X:8A Y:66 P:E5 SP:FB - 
DDA8  A9 44 A2	 LDA #			A:BB X:8A Y:66 P:E5 SP:FB - 
DDAA  A2 00 95	 LDX #			A:44 X:8A Y:66 P:65 SP:FB - 
DDAC  95 33 A5	 STA zpg,X			A:44 X:00 Y:66 P:67 SP:FB - 
DDAE  A5 33 90	 LDA zpg			A:44 X:00 Y:66 P:67 SP:FB - 
DDB0  90 18 C9	 BCC rel			A:44 X:00 Y:66 P:65 SP:FB - 
DDB2  C9 44 D0	 CMP #			A:44 X:00 Y:66 P:65 SP:FB - 
DDB4  D0 14 50	 BNE rel			A:44 X:00 Y:66 P:67 SP:FB - 
DDB6  50 12 18	 BVC rel			A:44 X:00 Y:66 P:67 SP:FB - 
DDB8  18 B8 A9	 CLC impl			A:44 X:00 Y:66 P:67 SP:FB - 
DDB9  B8 A9 99	 CLV impl			A:44 X:00 Y:66 P:66 SP:FB - 
DDBA  A9 99 A2	 LDA #			A:44 X:00 Y:66 P:26 SP:FB - 
DDBC  A2 80 95	 LDX #			A:99 X:00 Y:66 P:A4 SP:FB - 
DDBE  95 85 A5	 STA zpg,X			A:99 X:80 Y:66 P:A4 SP:FB - 
DDC0  A5 05 B0	 LDA zpg			A:99 X:80 Y:66 P:A4 SP:FB - 
DDC2  B0 06 C9	 BCS rel			A:99 X:80 Y:66 P:A4 SP:FB - 
DDC4  C9 99 D0	 CMP #			A:99 X:80 Y:66 P:A4 SP:FB - 
DDC6  D0 02 50	 BNE rel			A:99 X:80 Y:66 P:27 SP:FB - 
DDC8  50 04 A9	 BVC rel			A:99 X:80 Y:66 P:27 SP:FB - 
DDCE  A0 25 A2	 LDY #			A:99 X:80 Y:66 P:27 SP:FB - 
DDD0  A2 78 20	 LDX #			A:99 X:80 Y:25 P:25 SP:FB - 
DDD2  20 90 F9	 JSR abs			A:99 X:78 Y:25 P:25 SP:FB - 
F990  A2 55 A9	 LDX #			A:99 X:78 Y:25 P:25 SP:F9 - 
F992  A9 FF 85	 LDA #			A:99 X:55 Y:25 P:25 SP:F9 - 
F994  85 01 EA	 STA zpg			A:FF X:55 Y:25 P:A5 SP:F9 - 
F996  EA 24 01	 NOP impl			A:FF X:55 Y:25 P:A5 SP:F9 - 
F997  24 01 38	 BIT zpg			A:FF X:55 Y:25 P:A5 SP:F9 - 
F999  38 A9 01	 SEC impl			A:FF X:55 Y:25 P:E5 SP:F9 - 
F99A  A9 01 60	 LDA #			A:FF X:55 Y:25 P:E5 SP:F9 - 
F99C  60 90 1B	 RTS impl			A:01 X:55 Y:25 P:65 SP:F9 - 
DDD5  95 00 56	 STA zpg,X			A:01 X:55 Y:25 P:65 SP:FB - 
DDD7  56 00 B5	 LSR zpg,X			A:01 X:55 Y:25 P:65 SP:FB - 
DDD9  B5 00 20	 LDA zpg,X			A:01 X:55 Y:25 P:67 SP:FB - 
DDDB  20 9D F9	 JSR abs			A:00 X:55 Y:25 P:67 SP:FB - 
F99D  90 1B D0	 BCC rel			A:00 X:55 Y:25 P:67 SP:F9 - 
F99F  D0 19 30	 BNE rel			A:00 X:55 Y:25 P:67 SP:F9 - 
F9A1  30 17 50	 BMI rel			A:00 X:55 Y:25 P:67 SP:F9 - 
F9A3  50 15 C9	 BVC rel			A:00 X:55 Y:25 P:67 SP:F9 - 
F9A5  C9 00 D0	 CMP #			A:00 X:55 Y:25 P:67 SP:F9 - 
F9A7  D0 11 B8	 BNE rel			A:00 X:55 Y:25 P:67 SP:F9 - 
F9A9  B8 A9 AA	 CLV impl			A:00 X:55 Y:25 P:67 SP:F9 - 
F9AA  A9 AA 60	 LDA #			A:00 X:55 Y:25 P:27 SP:F9 - 
F9AC  60 B0 0B	 RTS impl			A:AA X:55 Y:25 P:A5 SP:F9 - 
DDDE  C8 95 00	 INY impl			A:AA X:55 Y:25 P:A5 SP:FB - 
DDDF  95 00 56	 STA zpg,X			A:AA X:55 Y:26 P:25 SP:FB - 
DDE1  56 00 B5	 LSR zpg,X			A:AA X:55 Y:26 P:25 SP:FB - 
DDE3  B5 00 20	 LDA zpg,X			A:AA X:55 Y:26 P:24 SP:FB - 
DDE5  20 AD F9	 JSR abs			A:55 X:55 Y:26 P:24 SP:FB - 
F9AD  B0 0B F0	 BCS rel			A:55 X:55 Y:26 P:24 SP:F9 - 
F9AF  F0 09 30	 BEQ rel			A:55 X:55 Y:26 P:24 SP:F9 - 
F9B1  30 07 70	 BMI rel			A:55 X:55 Y:26 P:24 SP:F9 - 
F9B3  70 05 C9	 BVS rel			A:55 X:55 Y:26 P:24 SP:F9 - 
F9B5  C9 55 D0	 CMP #			A:55 X:55 Y:26 P:24 SP:F9 - 
F9B7  D0 01 60	 BNE rel			A:55 X:55 Y:26 P:27 SP:F9 - 
F9B9  60 84 00	 RTS impl			A:55 X:55 Y:26 P:27 SP:F9 - 
DDE8  C8 20 BD	 INY impl			A:55 X:55 Y:26 P:27 SP:FB - 
DDE9  20 BD F9	 JSR abs			A:55 X:55 Y:27 P:25 SP:FB - 
F9BD  24 01 38	 BIT zpg			A:55 X:55 Y:27 P:25 SP:F9 - 
F9BF  38 A9 80	 SEC impl			A:55 X:55 Y:27 P:E5 SP:F9 - 
F9C0  A9 80 60	 LDA #			A:55 X:55 Y:27 P:E5 SP:F9 - 
F9C2  60 90 1C	 RTS impl			A:80 X:55 Y:27 P:E5 SP:F9 - 
DDEC  95 00 16	 STA zpg,X			A:80 X:55 Y:27 P:E5 SP:FB - 
DDEE  16 00 B5	 ASL zpg,X			A:80 X:55 Y:27 P:E5 SP:FB - 
DDF0  B5 00 20	 LDA zpg,X			A:80 X:55 Y:27 P:67 SP:FB - 
DDF2  20 C3 F9	 JSR abs			A:00 X:55 Y:27 P:67 SP:FB - 
F9C3  90 1C D0	 BCC rel			A:00 X:55 Y:27 P:67 SP:F9 - 
F9C5  D0 1A 30	 BNE rel			A:00 X:55 Y:27 P:67 SP:F9 - 
F9C7  30 18 50	 BMI rel			A:00 X:55 Y:27 P:67 SP:F9 - 
F9C9  50 16 C9	 BVC rel			A:00 X:55 Y:27 P:67 SP:F9 - 
F9CB  C9 00 D0	 CMP #			A:00 X:55 Y:27 P:67 SP:F9 - 
F9CD  D0 12 B8	 BNE rel			A:00 X:55 Y:27 P:67 SP:F9 - 
F9CF  B8 A9 55	 CLV impl			A:00 X:55 Y:27 P:67 SP:F9 - 
F9D0  A9 55 38	 LDA #			A:00 X:55 Y:27 P:27 SP:F9 - 
F9D2  38 60 B0	 SEC impl			A:55 X:55 Y:27 P:25 SP:F9 - 
F9D3  60 B0 0B	 RTS impl			A:55 X:55 Y:27 P:25 SP:F9 - 
DDF5  C8 95 00	 INY impl			A:55 X:55 Y:27 P:25 SP:FB - 
DDF6  95 00 16	 STA zpg,X			A:55 X:55 Y:28 P:25 SP:FB - 
DDF8  16 00 B5	 ASL zpg,X			A:55 X:55 Y:28 P:25 SP:FB - 
DDFA  B5 00 20	 LDA zpg,X			A:55 X:55 Y:28 P:A4 SP:FB - 
DDFC  20 D4 F9	 JSR abs			A:AA X:55 Y:28 P:A4 SP:FB - 
F9D4  B0 0B F0	 BCS rel			A:AA X:55 Y:28 P:A4 SP:F9 - 
F9D6  F0 09 10	 BEQ rel			A:AA X:55 Y:28 P:A4 SP:F9 - 
F9D8  10 07 70	 BPL rel			A:AA X:55 Y:28 P:A4 SP:F9 - 
F9DA  70 05 C9	 BVS rel			A:AA X:55 Y:28 P:A4 SP:F9 - 
F9DC  C9 AA D0	 CMP #			A:AA X:55 Y:28 P:A4 SP:F9 - 
F9DE  D0 01 60	 BNE rel			A:AA X:55 Y:28 P:27 SP:F9 - 
F9E0  60 84 00	 RTS impl			A:AA X:55 Y:28 P:27 SP:F9 - 
DDFF  C8 20 E4	 INY impl			A:AA X:55 Y:28 P:27 SP:FB - 
DE00  20 E4 F9	 JSR abs			A:AA X:55 Y:29 P:25 SP:FB - 
F9E4  24 01 38	 BIT zpg			A:AA X:55 Y:29 P:25 SP:F9 - 
F9E6  38 A9 01	 SEC impl			A:AA X:55 Y:29 P:E5 SP:F9 - 
F9E7  A9 01 60	 LDA #			A:AA X:55 Y:29 P:E5 SP:F9 - 
F9E9  60 90 1C	 RTS impl			A:01 X:55 Y:29 P:65 SP:F9 - 
DE03  95 00 76	 STA zpg,X			A:01 X:55 Y:29 P:65 SP:FB - 
DE05  76 00 B5	 ROR zpg,X			A:01 X:55 Y:29 P:65 SP:FB - 
DE07  B5 00 20	 LDA zpg,X			A:01 X:55 Y:29 P:E5 SP:FB - 
DE09  20 EA F9	 JSR abs			A:80 X:55 Y:29 P:E5 SP:FB - 
F9EA  90 1C F0	 BCC rel			A:80 X:55 Y:29 P:E5 SP:F9 - 
F9EC  F0 1A 10	 BEQ rel			A:80 X:55 Y:29 P:E5 SP:F9 - 
F9EE  10 18 50	 BPL rel			A:80 X:55 Y:29 P:E5 SP:F9 - 
F9F0  50 16 C9	 BVC rel			A:80 X:55 Y:29 P:E5 SP:F9 - 
F9F2  C9 80 D0	 CMP #			A:80 X:55 Y:29 P:E5 SP:F9 - 
F9F4  D0 12 B8	 BNE rel			A:80 X:55 Y:29 P:67 SP:F9 - 
F9F6  B8 18 A9	 CLV impl			A:80 X:55 Y:29 P:67 SP:F9 - 
F9F7  18 A9 55	 CLC impl			A:80 X:55 Y:29 P:27 SP:F9 - 
F9F8  A9 55 60	 LDA #			A:80 X:55 Y:29 P:26 SP:F9 - 
F9FA  60 90 0B	 RTS impl			A:55 X:55 Y:29 P:24 SP:F9 - 
DE0C  C8 95 00	 INY impl			A:55 X:55 Y:29 P:24 SP:FB - 
DE0D  95 00 76	 STA zpg,X			A:55 X:55 Y:2A P:24 SP:FB - 
DE0F  76 00 B5	 ROR zpg,X			A:55 X:55 Y:2A P:24 SP:FB - 
DE11  B5 00 20	 LDA zpg,X			A:55 X:55 Y:2A P:25 SP:FB - 
DE13  20 FB F9	 JSR abs			A:2A X:55 Y:2A P:25 SP:FB - 
F9FB  90 0B F0	 BCC rel			A:2A X:55 Y:2A P:25 SP:F9 - 
F9FD  F0 09 30	 BEQ rel			A:2A X:55 Y:2A P:25 SP:F9 - 
F9FF  30 07 70	 BMI rel			A:2A X:55 Y:2A P:25 SP:F9 - 
FA01  70 05 C9	 BVS rel			A:2A X:55 Y:2A P:25 SP:F9 - 
FA03  C9 2A D0	 CMP #			A:2A X:55 Y:2A P:25 SP:F9 - 
FA05  D0 01 60	 BNE rel			A:2A X:55 Y:2A P:27 SP:F9 - 
FA07  60 84 00	 RTS impl			A:2A X:55 Y:2A P:27 SP:F9 - 
DE16  C8 20 0A	 INY impl			A:2A X:55 Y:2A P:27 SP:FB - 
DE17  20 0A FA	 JSR abs			A:2A X:55 Y:2B P:25 SP:FB - 
FA0A  24 01 38	 BIT zpg			A:2A X:55 Y:2B P:25 SP:F9 - 
FA0C  38 A9 80	 SEC impl			A:2A X:55 Y:2B P:E5 SP:F9 - 
FA0D  A9 80 60	 LDA #			A:2A X:55 Y:2B P:E5 SP:F9 - 
FA0F  60 90 1C	 RTS impl			A:80 X:55 Y:2B P:E5 SP:F9 - 
DE1A  95 00 36	 STA zpg,X			A:80 X:55 Y:2B P:E5 SP:FB - 
DE1C  36 00 B5	 ROL zpg,X			A:80 X:55 Y:2B P:E5 SP:FB - 
DE1E  B5 00 20	 LDA zpg,X			A:80 X:55 Y:2B P:65 SP:FB - 
DE20  20 10 FA	 JSR abs			A:01 X:55 Y:2B P:65 SP:FB - 
FA10  90 1C F0	 BCC rel			A:01 X:55 Y:2B P:65 SP:F9 - 
FA12  F0 1A 30	 BEQ rel			A:01 X:55 Y:2B P:65 SP:F9 - 
FA14  30 18 50	 BMI rel			A:01 X:55 Y:2B P:65 SP:F9 - 
FA16  50 16 C9	 BVC rel			A:01 X:55 Y:2B P:65 SP:F9 - 
FA18  C9 01 D0	 CMP #			A:01 X:55 Y:2B P:65 SP:F9 - 
FA1A  D0 12 B8	 BNE rel			A:01 X:55 Y:2B P:67 SP:F9 - 
FA1C  B8 18 A9	 CLV impl			A:01 X:55 Y:2B P:67 SP:F9 - 
FA1D  18 A9 55	 CLC impl			A:01 X:55 Y:2B P:27 SP:F9 - 
FA1E  A9 55 60	 LDA #			A:01 X:55 Y:2B P:26 SP:F9 - 
FA20  60 B0 0B	 RTS impl			A:55 X:55 Y:2B P:24 SP:F9 - 
DE23  C8 95 00	 INY impl			A:55 X:55 Y:2B P:24 SP:FB - 
DE24  95 00 36	 STA zpg,X			A:55 X:55 Y:2C P:24 SP:FB - 
DE26  36 00 B5	 ROL zpg,X			A:55 X:55 Y:2C P:24 SP:FB - 
DE28  B5 00 20	 LDA zpg,X			A:55 X:55 Y:2C P:A4 SP:FB - 
DE2A  20 21 FA	 JSR abs			A:AA X:55 Y:2C P:A4 SP:FB - 
FA21  B0 0B F0	 BCS rel			A:AA X:55 Y:2C P:A4 SP:F9 - 
FA23  F0 09 10	 BEQ rel			A:AA X:55 Y:2C P:A4 SP:F9 - 
FA25  10 07 70	 BPL rel			A:AA X:55 Y:2C P:A4 SP:F9 - 
FA27  70 05 C9	 BVS rel			A:AA X:55 Y:2C P:A4 SP:F9 - 
FA29  C9 AA D0	 CMP #			A:AA X:55 Y:2C P:A4 SP:F9 - 
FA2B  D0 01 60	 BNE rel			A:AA X:55 Y:2C P:27 SP:F9 - 
FA2D  60 84 00	 RTS impl			A:AA X:55 Y:2C P:27 SP:F9 - 
DE2D  A9 FF 95	 LDA #			A:AA X:55 Y:2C P:27 SP:FB - 
DE2F  95 00 85	 STA zpg,X			A:FF X:55 Y:2C P:A5 SP:FB - 
DE31  85 01 24	 STA zpg			A:FF X:55 Y:2C P:A5 SP:FB - 
DE33  24 01 38	 BIT zpg			A:FF X:55 Y:2C P:A5 SP:FB - 
DE35  38 F6 00	 SEC impl			A:FF X:55 Y:2C P:E5 SP:FB - 
DE36  F6 00 D0	 INC zpg,X			A:FF X:55 Y:2C P:E5 SP:FB - 
DE38  D0 0C 30	 BNE rel			A:FF X:55 Y:2C P:67 SP:FB - 
DE3A  30 0A 50	 BMI rel			A:FF X:55 Y:2C P:67 SP:FB - 
DE3C  50 08 90	 BVC rel			A:FF X:55 Y:2C P:67 SP:FB - 
DE3E  90 06 B5	 BCC rel			A:FF X:55 Y:2C P:67 SP:FB - 
DE40  B5 00 C9	 LDA zpg,X			A:FF X:55 Y:2C P:67 SP:FB - 
DE42  C9 00 F0	 CMP #			A:00 X:55 Y:2C P:67 SP:FB - 
DE44  F0 04 A9	 BEQ rel			A:00 X:55 Y:2C P:67 SP:FB - 
DE4A  A9 7F 95	 LDA #			A:00 X:55 Y:2C P:67 SP:FB - 
DE4C  95 00 B8	 STA zpg,X			A:7F X:55 Y:2C P:65 SP:FB - 
DE4E  B8 18 F6	 CLV impl			A:7F X:55 Y:2C P:65 SP:FB - 
DE4F  18 F6 00	 CLC impl			A:7F X:55 Y:2C P:25 SP:FB - 
DE50  F6 00 F0	 INC zpg,X			A:7F X:55 Y:2C P:24 SP:FB - 
DE52  F0 0C 10	 BEQ rel			A:7F X:55 Y:2C P:A4 SP:FB - 
DE54  10 0A 70	 BPL rel			A:7F X:55 Y:2C P:A4 SP:FB - 
DE56  70 08 B0	 BVS rel			A:7F X:55 Y:2C P:A4 SP:FB - 
DE58  B0 06 B5	 BCS rel			A:7F X:55 Y:2C P:A4 SP:FB - 
DE5A  B5 00 C9	 LDA zpg,X			A:7F X:55 Y:2C P:A4 SP:FB - 
DE5C  C9 80 F0	 CMP #			A:80 X:55 Y:2C P:A4 SP:FB - 
DE5E  F0 04 A9	 BEQ rel			A:80 X:55 Y:2C P:27 SP:FB - 
DE64  A9 00 95	 LDA #			A:80 X:55 Y:2C P:27 SP:FB - 
DE66  95 00 24	 STA zpg,X			A:00 X:55 Y:2C P:27 SP:FB - 
DE68  24 01 38	 BIT zpg			A:00 X:55 Y:2C P:27 SP:FB - 
DE6A  38 D6 00	 SEC impl			A:00 X:55 Y:2C P:E7 SP:FB - 
DE6B  D6 00 F0	 DEC zpg,X			A:00 X:55 Y:2C P:E7 SP:FB - 
DE6D  F0 0C 10	 BEQ rel			A:00 X:55 Y:2C P:E5 SP:FB - 
DE6F  10 0A 50	 BPL rel			A:00 X:55 Y:2C P:E5 SP:FB - 
DE71  50 08 90	 BVC rel			A:00 X:55 Y:2C P:E5 SP:FB - 
DE73  90 06 B5	 BCC rel			A:00 X:55 Y:2C P:E5 SP:FB - 
DE75  B5 00 C9	 LDA zpg,X			A:00 X:55 Y:2C P:E5 SP:FB - 
DE77  C9 FF F0	 CMP #			A:FF X:55 Y:2C P:E5 SP:FB - 
DE79  F0 04 A9	 BEQ rel			A:FF X:55 Y:2C P:67 SP:FB - 
DE7F  A9 80 95	 LDA #			A:FF X:55 Y:2C P:67 SP:FB - 
DE81  95 00 B8	 STA zpg,X			A:80 X:55 Y:2C P:E5 SP:FB - 
DE83  B8 18 D6	 CLV impl			A:80 X:55 Y:2C P:E5 SP:FB - 
DE84  18 D6 00	 CLC impl			A:80 X:55 Y:2C P:A5 SP:FB - 
DE85  D6 00 F0	 DEC zpg,X			A:80 X:55 Y:2C P:A4 SP:FB - 
DE87  F0 0C 30	 BEQ rel			A:80 X:55 Y:2C P:24 SP:FB - 
DE89  30 0A 70	 BMI rel			A:80 X:55 Y:2C P:24 SP:FB - 
DE8B  70 08 B0	 BVS rel			A:80 X:55 Y:2C P:24 SP:FB - 
DE8D  B0 06 B5	 BCS rel			A:80 X:55 Y:2C P:24 SP:FB - 
DE8F  B5 00 C9	 LDA zpg,X			A:80 X:55 Y:2C P:24 SP:FB - 
DE91  C9 7F F0	 CMP #			A:7F X:55 Y:2C P:24 SP:FB - 
DE93  F0 04 A9	 BEQ rel			A:7F X:55 Y:2C P:27 SP:FB - 
DE99  A9 01 95	 LDA #			A:7F X:55 Y:2C P:27 SP:FB - 
DE9B  95 00 D6	 STA zpg,X			A:01 X:55 Y:2C P:25 SP:FB - 
DE9D  D6 00 F0	 DEC zpg,X			A:01 X:55 Y:2C P:25 SP:FB - 
DE9F  F0 04 A9	 BEQ rel			A:01 X:55 Y:2C P:27 SP:FB - 
DEA5  A9 33 85	 LDA #			A:01 X:55 Y:2C P:27 SP:FB - 
DEA7  85 78 A9	 STA zpg			A:33 X:55 Y:2C P:25 SP:FB - 
DEA9  A9 44 A0	 LDA #			A:33 X:55 Y:2C P:25 SP:FB - 
DEAB  A0 78 A2	 LDY #			A:44 X:55 Y:2C P:25 SP:FB - 
DEAD  A2 00 38	 LDX #			A:44 X:55 Y:78 P:25 SP:FB - 
DEAF  38 24 01	 SEC impl			A:44 X:00 Y:78 P:27 SP:FB - 
DEB0  24 01 B6	 BIT zpg			A:44 X:00 Y:78 P:27 SP:FB - 
DEB2  B6 00 90	 LDX zpg,Y			A:44 X:00 Y:78 P:E5 SP:FB - 
DEB4  90 12 50	 BCC rel			A:44 X:33 Y:78 P:65 SP:FB - 
DEB6  50 10 30	 BVC rel			A:44 X:33 Y:78 P:65 SP:FB - 
DEB8  30 0E F0	 BMI rel			A:44 X:33 Y:78 P:65 SP:FB - 
DEBA  F0 0C E0	 BEQ rel			A:44 X:33 Y:78 P:65 SP:FB - 
DEBC  E0 33 D0	 CPX #			A:44 X:33 Y:78 P:65 SP:FB - 
DEBE  D0 08 C0	 BNE rel			A:44 X:33 Y:78 P:67 SP:FB - 
DEC0  C0 78 D0	 CPY #			A:44 X:33 Y:78 P:67 SP:FB - 
DEC2  D0 04 C9	 BNE rel			A:44 X:33 Y:78 P:67 SP:FB - 
DEC4  C9 44 F0	 CMP #			A:44 X:33 Y:78 P:67 SP:FB - 
DEC6  F0 04 A9	 BEQ rel			A:44 X:33 Y:78 P:67 SP:FB - 
DECC  A9 97 85	 LDA #			A:44 X:33 Y:78 P:67 SP:FB - 
DECE  85 7F A9	 STA zpg			A:97 X:33 Y:78 P:E5 SP:FB - 
DED0  A9 47 A0	 LDA #			A:97 X:33 Y:78 P:E5 SP:FB - 
DED2  A0 FF A2	 LDY #			A:47 X:33 Y:78 P:65 SP:FB - 
DED4  A2 00 18	 LDX #			A:47 X:33 Y:FF P:E5 SP:FB - 
DED6  18 B8 B6	 CLC impl			A:47 X:00 Y:FF P:67 SP:FB - 
DED7  B8 B6 80	 CLV impl			A:47 X:00 Y:FF P:66 SP:FB - 
DED8  B6 80 B0	 LDX zpg,Y			A:47 X:00 Y:FF P:26 SP:FB - 
DEDA  B0 12 70	 BCS rel			A:47 X:97 Y:FF P:A4 SP:FB - 
DEDC  70 10 10	 BVS rel			A:47 X:97 Y:FF P:A4 SP:FB - 
DEDE  10 0E F0	 BPL rel			A:47 X:97 Y:FF P:A4 SP:FB - 
DEE0  F0 0C E0	 BEQ rel			A:47 X:97 Y:FF P:A4 SP:FB - 
DEE2  E0 97 D0	 CPX #			A:47 X:97 Y:FF P:A4 SP:FB - 
DEE4  D0 08 C0	 BNE rel			A:47 X:97 Y:FF P:27 SP:FB - 
DEE6  C0 FF D0	 CPY #			A:47 X:97 Y:FF P:27 SP:FB - 
DEE8  D0 04 C9	 BNE rel			A:47 X:97 Y:FF P:27 SP:FB - 
DEEA  C9 47 F0	 CMP #			A:47 X:97 Y:FF P:27 SP:FB - 
DEEC  F0 04 A9	 BEQ rel			A:47 X:97 Y:FF P:27 SP:FB - 
DEF2  A9 00 85	 LDA #			A:47 X:97 Y:FF P:27 SP:FB - 
DEF4  85 7F A9	 STA zpg			A:00 X:97 Y:FF P:27 SP:FB - 
DEF6  A9 47 A0	 LDA #			A:00 X:97 Y:FF P:27 SP:FB - 
DEF8  A0 FF A2	 LDY #			A:47 X:97 Y:FF P:25 SP:FB - 
DEFA  A2 69 18	 LDX #			A:47 X:97 Y:FF P:A5 SP:FB - 
DEFC  18 B8 96	 CLC impl			A:47 X:69 Y:FF P:25 SP:FB - 
DEFD  B8 96 80	 CLV impl			A:47 X:69 Y:FF P:24 SP:FB - 
DEFE  96 80 B0	 STX zpg,Y			A:47 X:69 Y:FF P:24 SP:FB - 
DF00  B0 18 70	 BCS rel			A:47 X:69 Y:FF P:24 SP:FB - 
DF02  70 16 30	 BVS rel			A:47 X:69 Y:FF P:24 SP:FB - 
DF04  30 14 F0	 BMI rel			A:47 X:69 Y:FF P:24 SP:FB - 
DF06  F0 12 E0	 BEQ rel			A:47 X:69 Y:FF P:24 SP:FB - 
DF08  E0 69 D0	 CPX #			A:47 X:69 Y:FF P:24 SP:FB - 
DF0A  D0 0E C0	 BNE rel			A:47 X:69 Y:FF P:27 SP:FB - 
DF0C  C0 FF D0	 CPY #			A:47 X:69 Y:FF P:27 SP:FB - 
DF0E  D0 0A C9	 BNE rel			A:47 X:69 Y:FF P:27 SP:FB - 
DF10  C9 47 D0	 CMP #			A:47 X:69 Y:FF P:27 SP:FB - 
DF12  D0 06 A5	 BNE rel			A:47 X:69 Y:FF P:27 SP:FB - 
DF14  A5 7F C9	 LDA zpg			A:47 X:69 Y:FF P:27 SP:FB - 
DF16  C9 69 F0	 CMP #			A:69 X:69 Y:FF P:25 SP:FB - 
DF18  F0 04 A9	 BEQ rel			A:69 X:69 Y:FF P:27 SP:FB - 
DF1E  A9 F5 85	 LDA #			A:69 X:69 Y:FF P:27 SP:FB - 
DF20  85 4F A9	 STA zpg			A:F5 X:69 Y:FF P:A5 SP:FB - 
DF22  A9 47 A0	 LDA #			A:F5 X:69 Y:FF P:A5 SP:FB - 
DF24  A0 4F 24	 LDY #			A:47 X:69 Y:FF P:25 SP:FB - 
DF26  24 01 A2	 BIT zpg			A:47 X:69 Y:4F P:25 SP:FB - 
DF28  A2 00 38	 LDX #			A:47 X:69 Y:4F P:E5 SP:FB - 
DF2A  38 96 00	 SEC impl			A:47 X:00 Y:4F P:67 SP:FB - 
DF2B  96 00 90	 STX zpg,Y			A:47 X:00 Y:4F P:67 SP:FB - 
DF2D  90 16 50	 BCC rel			A:47 X:00 Y:4F P:67 SP:FB - 
DF2F  50 14 30	 BVC rel			A:47 X:00 Y:4F P:67 SP:FB - 
DF31  30 12 D0	 BMI rel			A:47 X:00 Y:4F P:67 SP:FB - 
DF33  D0 10 E0	 BNE rel			A:47 X:00 Y:4F P:67 SP:FB - 
DF35  E0 00 D0	 CPX #			A:47 X:00 Y:4F P:67 SP:FB - 
DF37  D0 0C C0	 BNE rel			A:47 X:00 Y:4F P:67 SP:FB - 
DF39  C0 4F D0	 CPY #			A:47 X:00 Y:4F P:67 SP:FB - 
DF3B  D0 08 C9	 BNE rel			A:47 X:00 Y:4F P:67 SP:FB - 
DF3D  C9 47 D0	 CMP #			A:47 X:00 Y:4F P:67 SP:FB - 
DF3F  D0 04 A5	 BNE rel			A:47 X:00 Y:4F P:67 SP:FB - 
DF41  A5 4F F0	 LDA zpg			A:47 X:00 Y:4F P:67 SP:FB - 
DF43  F0 04 A9	 BEQ rel			A:00 X:00 Y:4F P:67 SP:FB - 
DF49  60 A9 89	 RTS impl			A:00 X:00 Y:4F P:67 SP:FB - 
C62C  20 AA E1	 JSR abs			A:00 X:00 Y:4F P:67 SP:FD - 
E1AA  A9 FF 85	 LDA #			A:00 X:00 Y:4F P:67 SP:FB - 
E1AC  85 01 A9	 STA zpg			A:FF X:00 Y:4F P:E5 SP:FB - 
E1AE  A9 AA 8D	 LDA #			A:FF X:00 Y:4F P:E5 SP:FB - 
E1B0  8D 33 06	 STA abs			A:AA X:00 Y:4F P:E5 SP:FB - 
E1B3  A9 BB 8D	 LDA #			A:AA X:00 Y:4F P:E5 SP:FB - 
E1B5  8D 89 06	 STA abs			A:BB X:00 Y:4F P:E5 SP:FB - 
E1B8  A2 00 A9	 LDX #			A:BB X:00 Y:4F P:E5 SP:FB - 
E1BA  A9 66 24	 LDA #			A:BB X:00 Y:4F P:67 SP:FB - 
E1BC  24 01 38	 BIT zpg			A:66 X:00 Y:4F P:65 SP:FB - 
E1BE  38 A0 00	 SEC impl			A:66 X:00 Y:4F P:E5 SP:FB - 
E1BF  A0 00 BC	 LDY #			A:66 X:00 Y:4F P:E5 SP:FB - 
E1C1  BC 33 06	 LDY abs,X			A:66 X:00 Y:00 P:67 SP:FB - 
E1C4  10 12 F0	 BPL rel			A:66 X:00 Y:AA P:E5 SP:FB - 
E1C6  F0 10 50	 BEQ rel			A:66 X:00 Y:AA P:E5 SP:FB - 
E1C8  50 0E 90	 BVC rel			A:66 X:00 Y:AA P:E5 SP:FB - 
E1CA  90 0C C9	 BCC rel			A:66 X:00 Y:AA P:E5 SP:FB - 
E1CC  C9 66 D0	 CMP #			A:66 X:00 Y:AA P:E5 SP:FB - 
E1CE  D0 08 E0	 BNE rel			A:66 X:00 Y:AA P:67 SP:FB - 
E1D0  E0 00 D0	 CPX #			A:66 X:00 Y:AA P:67 SP:FB - 
E1D2  D0 04 C0	 BNE rel			A:66 X:00 Y:AA P:67 SP:FB - 
E1D4  C0 AA F0	 CPY #			A:66 X:00 Y:AA P:67 SP:FB - 
E1D6  F0 04 A9	 BEQ rel			A:66 X:00 Y:AA P:67 SP:FB - 
E1DC  A2 8A A9	 LDX #			A:66 X:00 Y:AA P:67 SP:FB - 
E1DE  A9 66 B8	 LDA #			A:66 X:8A Y:AA P:E5 SP:FB - 
E1E0  B8 18 A0	 CLV impl			A:66 X:8A Y:AA P:65 SP:FB - 
E1E1  18 A0 00	 CLC impl			A:66 X:8A Y:AA P:25 SP:FB - 
E1E2  A0 00 BC	 LDY #			A:66 X:8A Y:AA P:24 SP:FB - 
E1E4  BC FF 05	 LDY abs,X			A:66 X:8A Y:00 P:26 SP:FB - 
E1E7  10 12 F0	 BPL rel			A:66 X:8A Y:BB P:A4 SP:FB - 
E1E9  F0 10 70	 BEQ rel			A:66 X:8A Y:BB P:A4 SP:FB - 
E1EB  70 0E B0	 BVS rel			A:66 X:8A Y:BB P:A4 SP:FB - 
E1ED  B0 0C C0	 BCS rel			A:66 X:8A Y:BB P:A4 SP:FB - 
E1EF  C0 BB D0	 CPY #			A:66 X:8A Y:BB P:A4 SP:FB - 
E1F1  D0 08 C9	 BNE rel			A:66 X:8A Y:BB P:27 SP:FB - 
E1F3  C9 66 D0	 CMP #			A:66 X:8A Y:BB P:27 SP:FB - 
E1F5  D0 04 E0	 BNE rel			A:66 X:8A Y:BB P:27 SP:FB - 
E1F7  E0 8A F0	 CPX #			A:66 X:8A Y:BB P:27 SP:FB - 
E1F9  F0 04 A9	 BEQ rel			A:66 X:8A Y:BB P:27 SP:FB - 
E1FF  A0 53 A9	 LDY #			A:66 X:8A Y:BB P:27 SP:FB - 
E201  A9 AA A2	 LDA #			A:66 X:8A Y:53 P:25 SP:FB - 
E203  A2 78 8D	 LDX #			A:AA X:8A Y:53 P:A5 SP:FB - 
E205  8D 78 06	 STA abs			A:AA X:78 Y:53 P:25 SP:FB - 
E208  20 B6 F7	 JSR abs			A:AA X:78 Y:53 P:25 SP:FB - 
F7B6  18 A9 FF	 CLC impl			A:AA X:78 Y:53 P:25 SP:F9 - 
F7B7  A9 FF 85	 LDA #			A:AA X:78 Y:53 P:24 SP:F9 - 
F7B9  85 01 24	 STA zpg			A:FF X:78 Y:53 P:A4 SP:F9 - 
F7BB  24 01 A9	 BIT zpg			A:FF X:78 Y:53 P:A4 SP:F9 - 
F7BD  A9 55 60	 LDA #			A:FF X:78 Y:53 P:E4 SP:F9 - 
F7BF  60 B0 09	 RTS impl			A:55 X:78 Y:53 P:64 SP:F9 - 
E20B  1D 00 06	 ORA abs,X			A:55 X:78 Y:53 P:64 SP:FB - 
E20E  20 C0 F7	 JSR abs			A:FF X:78 Y:53 P:E4 SP:FB - 
F7C0  B0 09 10	 BCS rel			A:FF X:78 Y:53 P:E4 SP:F9 - 
F7C2  10 07 C9	 BPL rel			A:FF X:78 Y:53 P:E4 SP:F9 - 
F7C4  C9 FF D0	 CMP #			A:FF X:78 Y:53 P:E4 SP:F9 - 
F7C6  D0 03 50	 BNE rel			A:FF X:78 Y:53 P:67 SP:F9 - 
F7C8  50 01 60	 BVC rel			A:FF X:78 Y:53 P:67 SP:F9 - 
F7CA  60 84 00	 RTS impl			A:FF X:78 Y:53 P:67 SP:F9 - 
E211  C8 A9 00	 INY impl			A:FF X:78 Y:53 P:67 SP:FB - 
E212  A9 00 8D	 LDA #			A:FF X:78 Y:54 P:65 SP:FB - 
E214  8D 78 06	 STA abs			A:00 X:78 Y:54 P:67 SP:FB - 
E217  20 CE F7	 JSR abs			A:00 X:78 Y:54 P:67 SP:FB - 
F7CE  38 B8 A9	 SEC impl			A:00 X:78 Y:54 P:67 SP:F9 - 
F7CF  B8 A9 00	 CLV impl			A:00 X:78 Y:54 P:67 SP:F9 - 
F7D0  A9 00 60	 LDA #			A:00 X:78 Y:54 P:27 SP:F9 - 
F7D2  60 D0 07	 RTS impl			A:00 X:78 Y:54 P:27 SP:F9 - 
E21A  1D 00 06	 ORA abs,X			A:00 X:78 Y:54 P:27 SP:FB - 
E21D  20 D3 F7	 JSR abs			A:00 X:78 Y:54 P:27 SP:FB - 
F7D3  D0 07 70	 BNE rel			A:00 X:78 Y:54 P:27 SP:F9 - 
F7D5  70 05 90	 BVS rel			A:00 X:78 Y:54 P:27 SP:F9 - 
F7D7  90 03 30	 BCC rel			A:00 X:78 Y:54 P:27 SP:F9 - 
F7D9  30 01 60	 BMI rel			A:00 X:78 Y:54 P:27 SP:F9 - 
F7DB  60 84 00	 RTS impl			A:00 X:78 Y:54 P:27 SP:F9 - 
E220  C8 A9 AA	 INY impl			A:00 X:78 Y:54 P:27 SP:FB - 
E221  A9 AA 8D	 LDA #			A:00 X:78 Y:55 P:25 SP:FB - 
E223  8D 78 06	 STA abs			A:AA X:78 Y:55 P:A5 SP:FB - 
E226  20 DF F7	 JSR abs			A:AA X:78 Y:55 P:A5 SP:FB - 
F7DF  18 24 01	 CLC impl			A:AA X:78 Y:55 P:A5 SP:F9 - 
F7E0  24 01 A9	 BIT zpg			A:AA X:78 Y:55 P:A4 SP:F9 - 
F7E2  A9 55 60	 LDA #			A:AA X:78 Y:55 P:E4 SP:F9 - 
F7E4  60 D0 07	 RTS impl			A:55 X:78 Y:55 P:64 SP:F9 - 
E229  3D 00 06	 AND abs,X			A:55 X:78 Y:55 P:64 SP:FB - 
E22C  20 E5 F7	 JSR abs			A:00 X:78 Y:55 P:66 SP:FB - 
F7E5  D0 07 50	 BNE rel			A:00 X:78 Y:55 P:66 SP:F9 - 
F7E7  50 05 B0	 BVC rel			A:00 X:78 Y:55 P:66 SP:F9 - 
F7E9  B0 03 30	 BCS rel			A:00 X:78 Y:55 P:66 SP:F9 - 
F7EB  30 01 60	 BMI rel			A:00 X:78 Y:55 P:66 SP:F9 - 
F7ED  60 84 00	 RTS impl			A:00 X:78 Y:55 P:66 SP:F9 - 
E22F  C8 A9 EF	 INY impl			A:00 X:78 Y:55 P:66 SP:FB - 
E230  A9 EF 8D	 LDA #			A:00 X:78 Y:56 P:64 SP:FB - 
E232  8D 78 06	 STA abs			A:EF X:78 Y:56 P:E4 SP:FB - 
E235  20 F1 F7	 JSR abs			A:EF X:78 Y:56 P:E4 SP:FB - 
F7F1  38 B8 A9	 SEC impl			A:EF X:78 Y:56 P:E4 SP:F9 - 
F7F2  B8 A9 F8	 CLV impl			A:EF X:78 Y:56 P:E5 SP:F9 - 
F7F3  A9 F8 60	 LDA #			A:EF X:78 Y:56 P:A5 SP:F9 - 
F7F5  60 90 09	 RTS impl			A:F8 X:78 Y:56 P:A5 SP:F9 - 
E238  3D 00 06	 AND abs,X			A:F8 X:78 Y:56 P:A5 SP:FB - 
E23B  20 F6 F7	 JSR abs			A:E8 X:78 Y:56 P:A5 SP:FB - 
F7F6  90 09 10	 BCC rel			A:E8 X:78 Y:56 P:A5 SP:F9 - 
F7F8  10 07 C9	 BPL rel			A:E8 X:78 Y:56 P:A5 SP:F9 - 
F7FA  C9 E8 D0	 CMP #			A:E8 X:78 Y:56 P:A5 SP:F9 - 
F7FC  D0 03 70	 BNE rel			A:E8 X:78 Y:56 P:27 SP:F9 - 
F7FE  70 01 60	 BVS rel			A:E8 X:78 Y:56 P:27 SP:F9 - 
F800  60 84 00	 RTS impl			A:E8 X:78 Y:56 P:27 SP:F9 - 
E23E  C8 A9 AA	 INY impl			A:E8 X:78 Y:56 P:27 SP:FB - 
E23F  A9 AA 8D	 LDA #			A:E8 X:78 Y:57 P:25 SP:FB - 
E241  8D 78 06	 STA abs			A:AA X:78 Y:57 P:A5 SP:FB - 
E244  20 04 F8	 JSR abs			A:AA X:78 Y:57 P:A5 SP:FB - 
F804  18 24 01	 CLC impl			A:AA X:78 Y:57 P:A5 SP:F9 - 
F805  24 01 A9	 BIT zpg			A:AA X:78 Y:57 P:A4 SP:F9 - 
F807  A9 5F 60	 LDA #			A:AA X:78 Y:57 P:E4 SP:F9 - 
F809  60 B0 09	 RTS impl			A:5F X:78 Y:57 P:64 SP:F9 - 
E247  5D 00 06	 EOR abs,X			A:5F X:78 Y:57 P:64 SP:FB - 
E24A  20 0A F8	 JSR abs			A:F5 X:78 Y:57 P:E4 SP:FB - 
F80A  B0 09 10	 BCS rel			A:F5 X:78 Y:57 P:E4 SP:F9 - 
F80C  10 07 C9	 BPL rel			A:F5 X:78 Y:57 P:E4 SP:F9 - 
F80E  C9 F5 D0	 CMP #			A:F5 X:78 Y:57 P:E4 SP:F9 - 
F810  D0 03 50	 BNE rel			A:F5 X:78 Y:57 P:67 SP:F9 - 
F812  50 01 60	 BVC rel			A:F5 X:78 Y:57 P:67 SP:F9 - 
F814  60 84 00	 RTS impl			A:F5 X:78 Y:57 P:67 SP:F9 - 
E24D  C8 A9 70	 INY impl			A:F5 X:78 Y:57 P:67 SP:FB - 
E24E  A9 70 8D	 LDA #			A:F5 X:78 Y:58 P:65 SP:FB - 
E250  8D 78 06	 STA abs			A:70 X:78 Y:58 P:65 SP:FB - 
E253  20 18 F8	 JSR abs			A:70 X:78 Y:58 P:65 SP:FB - 
F818  38 B8 A9	 SEC impl			A:70 X:78 Y:58 P:65 SP:F9 - 
F819  B8 A9 70	 CLV impl			A:70 X:78 Y:58 P:65 SP:F9 - 
F81A  A9 70 60	 LDA #			A:70 X:78 Y:58 P:25 SP:F9 - 
F81C  60 D0 07	 RTS impl			A:70 X:78 Y:58 P:25 SP:F9 - 
E256  5D 00 06	 EOR abs,X			A:70 X:78 Y:58 P:25 SP:FB - 
E259  20 1D F8	 JSR abs			A:00 X:78 Y:58 P:27 SP:FB - 
F81D  D0 07 70	 BNE rel			A:00 X:78 Y:58 P:27 SP:F9 - 
F81F  70 05 90	 BVS rel			A:00 X:78 Y:58 P:27 SP:F9 - 
F821  90 03 30	 BCC rel			A:00 X:78 Y:58 P:27 SP:F9 - 
F823  30 01 60	 BMI rel			A:00 X:78 Y:58 P:27 SP:F9 - 
F825  60 84 00	 RTS impl			A:00 X:78 Y:58 P:27 SP:F9 - 
E25C  C8 A9 69	 INY impl			A:00 X:78 Y:58 P:27 SP:FB - 
E25D  A9 69 8D	 LDA #			A:00 X:78 Y:59 P:25 SP:FB - 
E25F  8D 78 06	 STA abs			A:69 X:78 Y:59 P:25 SP:FB - 
E262  20 29 F8	 JSR abs			A:69 X:78 Y:59 P:25 SP:FB - 
F829  18 24 01	 CLC impl			A:69 X:78 Y:59 P:25 SP:F9 - 
F82A  24 01 A9	 BIT zpg			A:69 X:78 Y:59 P:24 SP:F9 - 
F82C  A9 00 60	 LDA #			A:69 X:78 Y:59 P:E4 SP:F9 - 
F82E  60 30 09	 RTS impl			A:00 X:78 Y:59 P:66 SP:F9 - 
E265  7D 00 06	 ADC abs,X			A:00 X:78 Y:59 P:66 SP:FB - 
E268  20 2F F8	 JSR abs			A:69 X:78 Y:59 P:24 SP:FB - 
F82F  30 09 B0	 BMI rel			A:69 X:78 Y:59 P:24 SP:F9 - 
F831  B0 07 C9	 BCS rel			A:69 X:78 Y:59 P:24 SP:F9 - 
F833  C9 69 D0	 CMP #			A:69 X:78 Y:59 P:24 SP:F9 - 
F835  D0 03 70	 BNE rel			A:69 X:78 Y:59 P:27 SP:F9 - 
F837  70 01 60	 BVS rel			A:69 X:78 Y:59 P:27 SP:F9 - 
F839  60 84 00	 RTS impl			A:69 X:78 Y:59 P:27 SP:F9 - 
E26B  C8 20 3D	 INY impl			A:69 X:78 Y:59 P:27 SP:FB - 
E26C  20 3D F8	 JSR abs			A:69 X:78 Y:5A P:25 SP:FB - 
F83D  38 24 01	 SEC impl			A:69 X:78 Y:5A P:25 SP:F9 - 
F83E  24 01 A9	 BIT zpg			A:69 X:78 Y:5A P:25 SP:F9 - 
F840  A9 00 60	 LDA #			A:69 X:78 Y:5A P:E5 SP:F9 - 
F842  60 30 09	 RTS impl			A:00 X:78 Y:5A P:67 SP:F9 - 
E26F  7D 00 06	 ADC abs,X			A:00 X:78 Y:5A P:67 SP:FB - 
E272  20 43 F8	 JSR abs			A:6A X:78 Y:5A P:24 SP:FB - 
F843  30 09 B0	 BMI rel			A:6A X:78 Y:5A P:24 SP:F9 - 
F845  B0 07 C9	 BCS rel			A:6A X:78 Y:5A P:24 SP:F9 - 
F847  C9 6A D0	 CMP #			A:6A X:78 Y:5A P:24 SP:F9 - 
F849  D0 03 70	 BNE rel			A:6A X:78 Y:5A P:27 SP:F9 - 
F84B  70 01 60	 BVS rel			A:6A X:78 Y:5A P:27 SP:F9 - 
F84D  60 84 00	 RTS impl			A:6A X:78 Y:5A P:27 SP:F9 - 
E275  C8 A9 7F	 INY impl			A:6A X:78 Y:5A P:27 SP:FB - 
E276  A9 7F 8D	 LDA #			A:6A X:78 Y:5B P:25 SP:FB - 
E278  8D 78 06	 STA abs			A:7F X:78 Y:5B P:25 SP:FB - 
E27B  20 51 F8	 JSR abs			A:7F X:78 Y:5B P:25 SP:FB - 
F851  38 B8 A9	 SEC impl			A:7F X:78 Y:5B P:25 SP:F9 - 
F852  B8 A9 7F	 CLV impl			A:7F X:78 Y:5B P:25 SP:F9 - 
F853  A9 7F 60	 LDA #			A:7F X:78 Y:5B P:25 SP:F9 - 
F855  60 10 09	 RTS impl			A:7F X:78 Y:5B P:25 SP:F9 - 
E27E  7D 00 06	 ADC abs,X			A:7F X:78 Y:5B P:25 SP:FB - 
E281  20 56 F8	 JSR abs			A:FF X:78 Y:5B P:E4 SP:FB - 
F856  10 09 B0	 BPL rel			A:FF X:78 Y:5B P:E4 SP:F9 - 
F858  B0 07 C9	 BCS rel			A:FF X:78 Y:5B P:E4 SP:F9 - 
F85A  C9 FF D0	 CMP #			A:FF X:78 Y:5B P:E4 SP:F9 - 
F85C  D0 03 50	 BNE rel			A:FF X:78 Y:5B P:67 SP:F9 - 
F85E  50 01 60	 BVC rel			A:FF X:78 Y:5B P:67 SP:F9 - 
F860  60 84 00	 RTS impl			A:FF X:78 Y:5B P:67 SP:F9 - 
E284  C8 A9 80	 INY impl			A:FF X:78 Y:5B P:67 SP:FB - 
E285  A9 80 8D	 LDA #			A:FF X:78 Y:5C P:65 SP:FB - 
E287  8D 78 06	 STA abs			A:80 X:78 Y:5C P:E5 SP:FB - 
E28A  20 64 F8	 JSR abs			A:80 X:78 Y:5C P:E5 SP:FB - 
F864  18 24 01	 CLC impl			A:80 X:78 Y:5C P:E5 SP:F9 - 
F865  24 01 A9	 BIT zpg			A:80 X:78 Y:5C P:E4 SP:F9 - 
F867  A9 7F 60	 LDA #			A:80 X:78 Y:5C P:E4 SP:F9 - 
F869  60 10 09	 RTS impl			A:7F X:78 Y:5C P:64 SP:F9 - 
E28D  7D 00 06	 ADC abs,X			A:7F X:78 Y:5C P:64 SP:FB - 
E290  20 6A F8	 JSR abs			A:FF X:78 Y:5C P:A4 SP:FB - 
F86A  10 09 B0	 BPL rel			A:FF X:78 Y:5C P:A4 SP:F9 - 
F86C  B0 07 C9	 BCS rel			A:FF X:78 Y:5C P:A4 SP:F9 - 
F86E  C9 FF D0	 CMP #			A:FF X:78 Y:5C P:A4 SP:F9 - 
F870  D0 03 70	 BNE rel			A:FF X:78 Y:5C P:27 SP:F9 - 
F872  70 01 60	 BVS rel			A:FF X:78 Y:5C P:27 SP:F9 - 
F874  60 84 00	 RTS impl			A:FF X:78 Y:5C P:27 SP:F9 - 
E293  C8 20 78	 INY impl			A:FF X:78 Y:5C P:27 SP:FB - 
E294  20 78 F8	 JSR abs			A:FF X:78 Y:5D P:25 SP:FB - 
F878  38 B8 A9	 SEC impl			A:FF X:78 Y:5D P:25 SP:F9 - 
F879  B8 A9 7F	 CLV impl			A:FF X:78 Y:5D P:25 SP:F9 - 
F87A  A9 7F 60	 LDA #			A:FF X:78 Y:5D P:25 SP:F9 - 
F87C  60 D0 07	 RTS impl			A:7F X:78 Y:5D P:25 SP:F9 - 
E297  7D 00 06	 ADC abs,X			A:7F X:78 Y:5D P:25 SP:FB - 
E29A  20 7D F8	 JSR abs			A:00 X:78 Y:5D P:27 SP:FB - 
F87D  D0 07 30	 BNE rel			A:00 X:78 Y:5D P:27 SP:F9 - 
F87F  30 05 70	 BMI rel			A:00 X:78 Y:5D P:27 SP:F9 - 
F881  70 03 90	 BVS rel			A:00 X:78 Y:5D P:27 SP:F9 - 
F883  90 01 60	 BCC rel			A:00 X:78 Y:5D P:27 SP:F9 - 
F885  60 84 00	 RTS impl			A:00 X:78 Y:5D P:27 SP:F9 - 
E29D  C8 A9 40	 INY impl			A:00 X:78 Y:5D P:27 SP:FB - 
E29E  A9 40 8D	 LDA #			A:00 X:78 Y:5E P:25 SP:FB - 
E2A0  8D 78 06	 STA abs			A:40 X:78 Y:5E P:25 SP:FB - 
E2A3  20 89 F8	 JSR abs			A:40 X:78 Y:5E P:25 SP:FB - 
F889  24 01 A9	 BIT zpg			A:40 X:78 Y:5E P:25 SP:F9 - 
F88B  A9 40 60	 LDA #			A:40 X:78 Y:5E P:E5 SP:F9 - 
F88D  60 30 07	 RTS impl			A:40 X:78 Y:5E P:65 SP:F9 - 
E2A6  DD 00 06	 CMP abs,X			A:40 X:78 Y:5E P:65 SP:FB - 
E2A9  20 8E F8	 JSR abs			A:40 X:78 Y:5E P:67 SP:FB - 
F88E  30 07 90	 BMI rel			A:40 X:78 Y:5E P:67 SP:F9 - 
F890  90 05 D0	 BCC rel			A:40 X:78 Y:5E P:67 SP:F9 - 
F892  D0 03 50	 BNE rel			A:40 X:78 Y:5E P:67 SP:F9 - 
F894  50 01 60	 BVC rel			A:40 X:78 Y:5E P:67 SP:F9 - 
F896  60 84 00	 RTS impl			A:40 X:78 Y:5E P:67 SP:F9 - 
E2AC  C8 48 A9	 INY impl			A:40 X:78 Y:5E P:67 SP:FB - 
E2AD  48 A9 3F	 PHA impl			A:40 X:78 Y:5F P:65 SP:FB - 
E2AE  A9 3F 8D	 LDA #			A:40 X:78 Y:5F P:65 SP:FA - 
E2B0  8D 78 06	 STA abs			A:3F X:78 Y:5F P:65 SP:FA - 
E2B3  68 20 9A	 PLA impl			A:3F X:78 Y:5F P:65 SP:FA - 
E2B4  20 9A F8	 JSR abs			A:40 X:78 Y:5F P:65 SP:FB - 
F89A  B8 60 F0	 CLV impl			A:40 X:78 Y:5F P:65 SP:F9 - 
F89B  60 F0 07	 RTS impl			A:40 X:78 Y:5F P:25 SP:F9 - 
E2B7  DD 00 06	 CMP abs,X			A:40 X:78 Y:5F P:25 SP:FB - 
E2BA  20 9C F8	 JSR abs			A:40 X:78 Y:5F P:25 SP:FB - 
F89C  F0 07 30	 BEQ rel			A:40 X:78 Y:5F P:25 SP:F9 - 
F89E  30 05 90	 BMI rel			A:40 X:78 Y:5F P:25 SP:F9 - 
F8A0  90 03 70	 BCC rel			A:40 X:78 Y:5F P:25 SP:F9 - 
F8A2  70 01 60	 BVS rel			A:40 X:78 Y:5F P:25 SP:F9 - 
F8A4  60 84 00	 RTS impl			A:40 X:78 Y:5F P:25 SP:F9 - 
E2BD  C8 48 A9	 INY impl			A:40 X:78 Y:5F P:25 SP:FB - 
E2BE  48 A9 41	 PHA impl			A:40 X:78 Y:60 P:25 SP:FB - 
E2BF  A9 41 8D	 LDA #			A:40 X:78 Y:60 P:25 SP:FA - 
E2C1  8D 78 06	 STA abs			A:41 X:78 Y:60 P:25 SP:FA - 
E2C4  68 DD 00	 PLA impl			A:41 X:78 Y:60 P:25 SP:FA - 
E2C5  DD 00 06	 CMP abs,X			A:40 X:78 Y:60 P:25 SP:FB - 
E2C8  20 A8 F8	 JSR abs			A:40 X:78 Y:60 P:A4 SP:FB - 
F8A8  F0 05 10	 BEQ rel			A:40 X:78 Y:60 P:A4 SP:F9 - 
F8AA  10 03 10	 BPL rel			A:40 X:78 Y:60 P:A4 SP:F9 - 
F8AC  10 01 60	 BPL rel			A:40 X:78 Y:60 P:A4 SP:F9 - 
F8AE  60 84 00	 RTS impl			A:40 X:78 Y:60 P:A4 SP:F9 - 
E2CB  C8 48 A9	 INY impl			A:40 X:78 Y:60 P:A4 SP:FB - 
E2CC  48 A9 00	 PHA impl			A:40 X:78 Y:61 P:24 SP:FB - 
E2CD  A9 00 8D	 LDA #			A:40 X:78 Y:61 P:24 SP:FA - 
E2CF  8D 78 06	 STA abs			A:00 X:78 Y:61 P:26 SP:FA - 
E2D2  68 20 B2	 PLA impl			A:00 X:78 Y:61 P:26 SP:FA - 
E2D3  20 B2 F8	 JSR abs			A:40 X:78 Y:61 P:24 SP:FB - 
F8B2  A9 80 60	 LDA #			A:40 X:78 Y:61 P:24 SP:F9 - 
F8B4  60 F0 05	 RTS impl			A:80 X:78 Y:61 P:A4 SP:F9 - 
E2D6  DD 00 06	 CMP abs,X			A:80 X:78 Y:61 P:A4 SP:FB - 
E2D9  20 B5 F8	 JSR abs			A:80 X:78 Y:61 P:A5 SP:FB - 
F8B5  F0 05 10	 BEQ rel			A:80 X:78 Y:61 P:A5 SP:F9 - 
F8B7  10 03 90	 BPL rel			A:80 X:78 Y:61 P:A5 SP:F9 - 
F8B9  90 01 60	 BCC rel			A:80 X:78 Y:61 P:A5 SP:F9 - 
F8BB  60 84 00	 RTS impl			A:80 X:78 Y:61 P:A5 SP:F9 - 
E2DC  C8 48 A9	 INY impl			A:80 X:78 Y:61 P:A5 SP:FB - 
E2DD  48 A9 80	 PHA impl			A:80 X:78 Y:62 P:25 SP:FB - 
E2DE  A9 80 8D	 LDA #			A:80 X:78 Y:62 P:25 SP:FA - 
E2E0  8D 78 06	 STA abs			A:80 X:78 Y:62 P:A5 SP:FA - 
E2E3  68 DD 00	 PLA impl			A:80 X:78 Y:62 P:A5 SP:FA - 
E2E4  DD 00 06	 CMP abs,X			A:80 X:78 Y:62 P:A5 SP:FB - 
E2E7  20 BF F8	 JSR abs			A:80 X:78 Y:62 P:27 SP:FB - 
F8BF  D0 05 30	 BNE rel			A:80 X:78 Y:62 P:27 SP:F9 - 
F8C1  30 03 90	 BMI rel			A:80 X:78 Y:62 P:27 SP:F9 - 
F8C3  90 01 60	 BCC rel			A:80 X:78 Y:62 P:27 SP:F9 - 
F8C5  60 84 00	 RTS impl			A:80 X:78 Y:62 P:27 SP:F9 - 
E2EA  C8 48 A9	 INY impl			A:80 X:78 Y:62 P:27 SP:FB - 
E2EB  48 A9 81	 PHA impl			A:80 X:78 Y:63 P:25 SP:FB - 
E2EC  A9 81 8D	 LDA #			A:80 X:78 Y:63 P:25 SP:FA - 
E2EE  8D 78 06	 STA abs			A:81 X:78 Y:63 P:A5 SP:FA - 
E2F1  68 DD 00	 PLA impl			A:81 X:78 Y:63 P:A5 SP:FA - 
E2F2  DD 00 06	 CMP abs,X			A:80 X:78 Y:63 P:A5 SP:FB - 
E2F5  20 C9 F8	 JSR abs			A:80 X:78 Y:63 P:A4 SP:FB - 
F8C9  B0 05 F0	 BCS rel			A:80 X:78 Y:63 P:A4 SP:F9 - 
F8CB  F0 03 10	 BEQ rel			A:80 X:78 Y:63 P:A4 SP:F9 - 
F8CD  10 01 60	 BPL rel			A:80 X:78 Y:63 P:A4 SP:F9 - 
F8CF  60 84 00	 RTS impl			A:80 X:78 Y:63 P:A4 SP:F9 - 
E2F8  C8 48 A9	 INY impl			A:80 X:78 Y:63 P:A4 SP:FB - 
E2F9  48 A9 7F	 PHA impl			A:80 X:78 Y:64 P:24 SP:FB - 
E2FA  A9 7F 8D	 LDA #			A:80 X:78 Y:64 P:24 SP:FA - 
E2FC  8D 78 06	 STA abs			A:7F X:78 Y:64 P:24 SP:FA - 
E2FF  68 DD 00	 PLA impl			A:7F X:78 Y:64 P:24 SP:FA - 
E300  DD 00 06	 CMP abs,X			A:80 X:78 Y:64 P:A4 SP:FB - 
E303  20 D3 F8	 JSR abs			A:80 X:78 Y:64 P:25 SP:FB - 
F8D3  90 05 F0	 BCC rel			A:80 X:78 Y:64 P:25 SP:F9 - 
F8D5  F0 03 30	 BEQ rel			A:80 X:78 Y:64 P:25 SP:F9 - 
F8D7  30 01 60	 BMI rel			A:80 X:78 Y:64 P:25 SP:F9 - 
F8D9  60 84 00	 RTS impl			A:80 X:78 Y:64 P:25 SP:F9 - 
E306  C8 A9 40	 INY impl			A:80 X:78 Y:64 P:25 SP:FB - 
E307  A9 40 8D	 LDA #			A:80 X:78 Y:65 P:25 SP:FB - 
E309  8D 78 06	 STA abs			A:40 X:78 Y:65 P:25 SP:FB - 
E30C  20 31 F9	 JSR abs			A:40 X:78 Y:65 P:25 SP:FB - 
F931  24 01 A9	 BIT zpg			A:40 X:78 Y:65 P:25 SP:F9 - 
F933  A9 40 38	 LDA #			A:40 X:78 Y:65 P:E5 SP:F9 - 
F935  38 60 30	 SEC impl			A:40 X:78 Y:65 P:65 SP:F9 - 
F936  60 30 0B	 RTS impl			A:40 X:78 Y:65 P:65 SP:F9 - 
E30F  FD 00 06	 SBC abs,X			A:40 X:78 Y:65 P:65 SP:FB - 
E312  20 37 F9	 JSR abs			A:00 X:78 Y:65 P:27 SP:FB - 
F937  30 0B 90	 BMI rel			A:00 X:78 Y:65 P:27 SP:F9 - 
F939  90 09 D0	 BCC rel			A:00 X:78 Y:65 P:27 SP:F9 - 
F93B  D0 07 70	 BNE rel			A:00 X:78 Y:65 P:27 SP:F9 - 
F93D  70 05 C9	 BVS rel			A:00 X:78 Y:65 P:27 SP:F9 - 
F93F  C9 00 D0	 CMP #			A:00 X:78 Y:65 P:27 SP:F9 - 
F941  D0 01 60	 BNE rel			A:00 X:78 Y:65 P:27 SP:F9 - 
F943  60 84 00	 RTS impl			A:00 X:78 Y:65 P:27 SP:F9 - 
E315  C8 A9 3F	 INY impl			A:00 X:78 Y:65 P:27 SP:FB - 
E316  A9 3F 8D	 LDA #			A:00 X:78 Y:66 P:25 SP:FB - 
E318  8D 78 06	 STA abs			A:3F X:78 Y:66 P:25 SP:FB - 
E31B  20 47 F9	 JSR abs			A:3F X:78 Y:66 P:25 SP:FB - 
F947  B8 38 A9	 CLV impl			A:3F X:78 Y:66 P:25 SP:F9 - 
F948  38 A9 40	 SEC impl			A:3F X:78 Y:66 P:25 SP:F9 - 
F949  A9 40 60	 LDA #			A:3F X:78 Y:66 P:25 SP:F9 - 
F94B  60 F0 0B	 RTS impl			A:40 X:78 Y:66 P:25 SP:F9 - 
E31E  FD 00 06	 SBC abs,X			A:40 X:78 Y:66 P:25 SP:FB - 
E321  20 4C F9	 JSR abs			A:01 X:78 Y:66 P:25 SP:FB - 
F94C  F0 0B 30	 BEQ rel			A:01 X:78 Y:66 P:25 SP:F9 - 
F94E  30 09 90	 BMI rel			A:01 X:78 Y:66 P:25 SP:F9 - 
F950  90 07 70	 BCC rel			A:01 X:78 Y:66 P:25 SP:F9 - 
F952  70 05 C9	 BVS rel			A:01 X:78 Y:66 P:25 SP:F9 - 
F954  C9 01 D0	 CMP #			A:01 X:78 Y:66 P:25 SP:F9 - 
F956  D0 01 60	 BNE rel			A:01 X:78 Y:66 P:27 SP:F9 - 
F958  60 84 00	 RTS impl			A:01 X:78 Y:66 P:27 SP:F9 - 
E324  C8 A9 41	 INY impl			A:01 X:78 Y:66 P:27 SP:FB - 
E325  A9 41 8D	 LDA #			A:01 X:78 Y:67 P:25 SP:FB - 
E327  8D 78 06	 STA abs			A:41 X:78 Y:67 P:25 SP:FB - 
E32A  20 5C F9	 JSR abs			A:41 X:78 Y:67 P:25 SP:FB - 
F95C  A9 40 38	 LDA #			A:41 X:78 Y:67 P:25 SP:F9 - 
F95E  38 24 01	 SEC impl			A:40 X:78 Y:67 P:25 SP:F9 - 
F95F  24 01 60	 BIT zpg			A:40 X:78 Y:67 P:25 SP:F9 - 
F961  60 B0 0B	 RTS impl			A:40 X:78 Y:67 P:E5 SP:F9 - 
E32D  FD 00 06	 SBC abs,X			A:40 X:78 Y:67 P:E5 SP:FB - 
E330  20 62 F9	 JSR abs			A:FF X:78 Y:67 P:A4 SP:FB - 
F962  B0 0B F0	 BCS rel			A:FF X:78 Y:67 P:A4 SP:F9 - 
F964  F0 09 10	 BEQ rel			A:FF X:78 Y:67 P:A4 SP:F9 - 
F966  10 07 70	 BPL rel			A:FF X:78 Y:67 P:A4 SP:F9 - 
F968  70 05 C9	 BVS rel			A:FF X:78 Y:67 P:A4 SP:F9 - 
F96A  C9 FF D0	 CMP #			A:FF X:78 Y:67 P:A4 SP:F9 - 
F96C  D0 01 60	 BNE rel			A:FF X:78 Y:67 P:27 SP:F9 - 
F96E  60 84 00	 RTS impl			A:FF X:78 Y:67 P:27 SP:F9 - 
E333  C8 A9 00	 INY impl			A:FF X:78 Y:67 P:27 SP:FB - 
E334  A9 00 8D	 LDA #			A:FF X:78 Y:68 P:25 SP:FB - 
E336  8D 78 06	 STA abs			A:00 X:78 Y:68 P:27 SP:FB - 
E339  20 72 F9	 JSR abs			A:00 X:78 Y:68 P:27 SP:FB - 
F972  18 A9 80	 CLC impl			A:00 X:78 Y:68 P:27 SP:F9 - 
F973  A9 80 60	 LDA #			A:00 X:78 Y:68 P:26 SP:F9 - 
F975  60 90 05	 RTS impl			A:80 X:78 Y:68 P:A4 SP:F9 - 
E33C  FD 00 06	 SBC abs,X			A:80 X:78 Y:68 P:A4 SP:FB - 
E33F  20 76 F9	 JSR abs			A:7F X:78 Y:68 P:65 SP:FB - 
F976  90 05 C9	 BCC rel			A:7F X:78 Y:68 P:65 SP:F9 - 
F978  C9 7F D0	 CMP #			A:7F X:78 Y:68 P:65 SP:F9 - 
F97A  D0 01 60	 BNE rel			A:7F X:78 Y:68 P:67 SP:F9 - 
F97C  60 84 00	 RTS impl			A:7F X:78 Y:68 P:67 SP:F9 - 
E342  C8 A9 7F	 INY impl			A:7F X:78 Y:68 P:67 SP:FB - 
E343  A9 7F 8D	 LDA #			A:7F X:78 Y:69 P:65 SP:FB - 
E345  8D 78 06	 STA abs			A:7F X:78 Y:69 P:65 SP:FB - 
E348  20 80 F9	 JSR abs			A:7F X:78 Y:69 P:65 SP:FB - 
F980  38 A9 81	 SEC impl			A:7F X:78 Y:69 P:65 SP:F9 - 
F981  A9 81 60	 LDA #			A:7F X:78 Y:69 P:65 SP:F9 - 
F983  60 50 07	 RTS impl			A:81 X:78 Y:69 P:E5 SP:F9 - 
E34B  FD 00 06	 SBC abs,X			A:81 X:78 Y:69 P:E5 SP:FB - 
E34E  20 84 F9	 JSR abs			A:02 X:78 Y:69 P:65 SP:FB - 
F984  50 07 90	 BVC rel			A:02 X:78 Y:69 P:65 SP:F9 - 
F986  90 05 C9	 BCC rel			A:02 X:78 Y:69 P:65 SP:F9 - 
F988  C9 02 D0	 CMP #			A:02 X:78 Y:69 P:65 SP:F9 - 
F98A  D0 01 60	 BNE rel			A:02 X:78 Y:69 P:67 SP:F9 - 
F98C  60 84 00	 RTS impl			A:02 X:78 Y:69 P:67 SP:F9 - 
E351  A9 AA 8D	 LDA #			A:02 X:78 Y:69 P:67 SP:FB - 
E353  8D 33 06	 STA abs			A:AA X:78 Y:69 P:E5 SP:FB - 
E356  A9 BB 8D	 LDA #			A:AA X:78 Y:69 P:E5 SP:FB - 
E358  8D 89 06	 STA abs			A:BB X:78 Y:69 P:E5 SP:FB - 
E35B  A2 00 A0	 LDX #			A:BB X:78 Y:69 P:E5 SP:FB - 
E35D  A0 66 24	 LDY #			A:BB X:00 Y:69 P:67 SP:FB - 
E35F  24 01 38	 BIT zpg			A:BB X:00 Y:66 P:65 SP:FB - 
E361  38 A9 00	 SEC impl			A:BB X:00 Y:66 P:E5 SP:FB - 
E362  A9 00 BD	 LDA #			A:BB X:00 Y:66 P:E5 SP:FB - 
E364  BD 33 06	 LDA abs,X			A:00 X:00 Y:66 P:67 SP:FB - 
E367  10 12 F0	 BPL rel			A:AA X:00 Y:66 P:E5 SP:FB - 
E369  F0 10 50	 BEQ rel			A:AA X:00 Y:66 P:E5 SP:FB - 
E36B  50 0E 90	 BVC rel			A:AA X:00 Y:66 P:E5 SP:FB - 
E36D  90 0C C0	 BCC rel			A:AA X:00 Y:66 P:E5 SP:FB - 
E36F  C0 66 D0	 CPY #			A:AA X:00 Y:66 P:E5 SP:FB - 
E371  D0 08 E0	 BNE rel			A:AA X:00 Y:66 P:67 SP:FB - 
E373  E0 00 D0	 CPX #			A:AA X:00 Y:66 P:67 SP:FB - 
E375  D0 04 C9	 BNE rel			A:AA X:00 Y:66 P:67 SP:FB - 
E377  C9 AA F0	 CMP #			A:AA X:00 Y:66 P:67 SP:FB - 
E379  F0 04 A9	 BEQ rel			A:AA X:00 Y:66 P:67 SP:FB - 
E37F  A2 8A A0	 LDX #			A:AA X:00 Y:66 P:67 SP:FB - 
E381  A0 66 B8	 LDY #			A:AA X:8A Y:66 P:E5 SP:FB - 
E383  B8 18 A9	 CLV impl			A:AA X:8A Y:66 P:65 SP:FB - 
E384  18 A9 00	 CLC impl			A:AA X:8A Y:66 P:25 SP:FB - 
E385  A9 00 BD	 LDA #			A:AA X:8A Y:66 P:24 SP:FB - 
E387  BD FF 05	 LDA abs,X			A:00 X:8A Y:66 P:26 SP:FB - 
E38A  10 12 F0	 BPL rel			A:BB X:8A Y:66 P:A4 SP:FB - 
E38C  F0 10 70	 BEQ rel			A:BB X:8A Y:66 P:A4 SP:FB - 
E38E  70 0E B0	 BVS rel			A:BB X:8A Y:66 P:A4 SP:FB - 
E390  B0 0C C9	 BCS rel			A:BB X:8A Y:66 P:A4 SP:FB - 
E392  C9 BB D0	 CMP #			A:BB X:8A Y:66 P:A4 SP:FB - 
E394  D0 08 C0	 BNE rel			A:BB X:8A Y:66 P:27 SP:FB - 
E396  C0 66 D0	 CPY #			A:BB X:8A Y:66 P:27 SP:FB - 
E398  D0 04 E0	 BNE rel			A:BB X:8A Y:66 P:27 SP:FB - 
E39A  E0 8A F0	 CPX #			A:BB X:8A Y:66 P:27 SP:FB - 
E39C  F0 04 A9	 BEQ rel			A:BB X:8A Y:66 P:27 SP:FB - 
E3A2  24 01 38	 BIT zpg			A:BB X:8A Y:66 P:27 SP:FB - 
E3A4  38 A9 44	 SEC impl			A:BB X:8A Y:66 P:E5 SP:FB - 
E3A5  A9 44 A2	 LDA #			A:BB X:8A Y:66 P:E5 SP:FB - 
E3A7  A2 00 9D	 LDX #			A:44 X:8A Y:66 P:65 SP:FB - 
E3A9  9D 33 06	 STA abs,X			A:44 X:00 Y:66 P:67 SP:FB - 
E3AC  AD 33 06	 LDA abs			A:44 X:00 Y:66 P:67 SP:FB - 
E3AF  90 1A C9	 BCC rel			A:44 X:00 Y:66 P:65 SP:FB - 
E3B1  C9 44 D0	 CMP #			A:44 X:00 Y:66 P:65 SP:FB - 
E3B3  D0 16 50	 BNE rel			A:44 X:00 Y:66 P:67 SP:FB - 
E3B5  50 14 18	 BVC rel			A:44 X:00 Y:66 P:67 SP:FB - 
E3B7  18 B8 A9	 CLC impl			A:44 X:00 Y:66 P:67 SP:FB - 
E3B8  B8 A9 99	 CLV impl			A:44 X:00 Y:66 P:66 SP:FB - 
E3B9  A9 99 A2	 LDA #			A:44 X:00 Y:66 P:26 SP:FB - 
E3BB  A2 80 9D	 LDX #			A:99 X:00 Y:66 P:A4 SP:FB - 
E3BD  9D 85 05	 STA abs,X			A:99 X:80 Y:66 P:A4 SP:FB - 
E3C0  AD 05 06	 LDA abs			A:99 X:80 Y:66 P:A4 SP:FB - 
E3C3  B0 06 C9	 BCS rel			A:99 X:80 Y:66 P:A4 SP:FB - 
E3C5  C9 99 D0	 CMP #			A:99 X:80 Y:66 P:A4 SP:FB - 
E3C7  D0 02 50	 BNE rel			A:99 X:80 Y:66 P:27 SP:FB - 
E3C9  50 04 A9	 BVC rel			A:99 X:80 Y:66 P:27 SP:FB - 
E3CF  A0 6D A2	 LDY #			A:99 X:80 Y:66 P:27 SP:FB - 
E3D1  A2 6D 20	 LDX #			A:99 X:80 Y:6D P:25 SP:FB - 
E3D3  20 90 F9	 JSR abs			A:99 X:6D Y:6D P:25 SP:FB - 
F990  A2 55 A9	 LDX #			A:99 X:6D Y:6D P:25 SP:F9 - 
F992  A9 FF 85	 LDA #			A:99 X:55 Y:6D P:25 SP:F9 - 
F994  85 01 EA	 STA zpg			A:FF X:55 Y:6D P:A5 SP:F9 - 
F996  EA 24 01	 NOP impl			A:FF X:55 Y:6D P:A5 SP:F9 - 
F997  24 01 38	 BIT zpg			A:FF X:55 Y:6D P:A5 SP:F9 - 
F999  38 A9 01	 SEC impl			A:FF X:55 Y:6D P:E5 SP:F9 - 
F99A  A9 01 60	 LDA #			A:FF X:55 Y:6D P:E5 SP:F9 - 
F99C  60 90 1B	 RTS impl			A:01 X:55 Y:6D P:65 SP:F9 - 
E3D6  9D 00 06	 STA abs,X			A:01 X:55 Y:6D P:65 SP:FB - 
E3D9  5E 00 06	 LSR abs,X			A:01 X:55 Y:6D P:65 SP:FB - 
E3DC  BD 00 06	 LDA abs,X			A:01 X:55 Y:6D P:67 SP:FB - 
E3DF  20 9D F9	 JSR abs			A:00 X:55 Y:6D P:67 SP:FB - 
F99D  90 1B D0	 BCC rel			A:00 X:55 Y:6D P:67 SP:F9 - 
F99F  D0 19 30	 BNE rel			A:00 X:55 Y:6D P:67 SP:F9 - 
F9A1  30 17 50	 BMI rel			A:00 X:55 Y:6D P:67 SP:F9 - 
F9A3  50 15 C9	 BVC rel			A:00 X:55 Y:6D P:67 SP:F9 - 
F9A5  C9 00 D0	 CMP #			A:00 X:55 Y:6D P:67 SP:F9 - 
F9A7  D0 11 B8	 BNE rel			A:00 X:55 Y:6D P:67 SP:F9 - 
F9A9  B8 A9 AA	 CLV impl			A:00 X:55 Y:6D P:67 SP:F9 - 
F9AA  A9 AA 60	 LDA #			A:00 X:55 Y:6D P:27 SP:F9 - 
F9AC  60 B0 0B	 RTS impl			A:AA X:55 Y:6D P:A5 SP:F9 - 
E3E2  C8 9D 00	 INY impl			A:AA X:55 Y:6D P:A5 SP:FB - 
E3E3  9D 00 06	 STA abs,X			A:AA X:55 Y:6E P:25 SP:FB - 
E3E6  5E 00 06	 LSR abs,X			A:AA X:55 Y:6E P:25 SP:FB - 
E3E9  BD 00 06	 LDA abs,X			A:AA X:55 Y:6E P:24 SP:FB - 
E3EC  20 AD F9	 JSR abs			A:55 X:55 Y:6E P:24 SP:FB - 
F9AD  B0 0B F0	 BCS rel			A:55 X:55 Y:6E P:24 SP:F9 - 
F9AF  F0 09 30	 BEQ rel			A:55 X:55 Y:6E P:24 SP:F9 - 
F9B1  30 07 70	 BMI rel			A:55 X:55 Y:6E P:24 SP:F9 - 
F9B3  70 05 C9	 BVS rel			A:55 X:55 Y:6E P:24 SP:F9 - 
F9B5  C9 55 D0	 CMP #			A:55 X:55 Y:6E P:24 SP:F9 - 
F9B7  D0 01 60	 BNE rel			A:55 X:55 Y:6E P:27 SP:F9 - 
F9B9  60 84 00	 RTS impl			A:55 X:55 Y:6E P:27 SP:F9 - 
E3EF  C8 20 BD	 INY impl			A:55 X:55 Y:6E P:27 SP:FB - 
E3F0  20 BD F9	 JSR abs			A:55 X:55 Y:6F P:25 SP:FB - 
F9BD  24 01 38	 BIT zpg			A:55 X:55 Y:6F P:25 SP:F9 - 
F9BF  38 A9 80	 SEC impl			A:55 X:55 Y:6F P:E5 SP:F9 - 
F9C0  A9 80 60	 LDA #			A:55 X:55 Y:6F P:E5 SP:F9 - 
F9C2  60 90 1C	 RTS impl			A:80 X:55 Y:6F P:E5 SP:F9 - 
E3F3  9D 00 06	 STA abs,X			A:80 X:55 Y:6F P:E5 SP:FB - 
E3F6  1E 00 06	 ASL abs,X			A:80 X:55 Y:6F P:E5 SP:FB - 
E3F9  BD 00 06	 LDA abs,X			A:80 X:55 Y:6F P:67 SP:FB - 
E3FC  20 C3 F9	 JSR abs			A:00 X:55 Y:6F P:67 SP:FB - 
F9C3  90 1C D0	 BCC rel			A:00 X:55 Y:6F P:67 SP:F9 - 
F9C5  D0 1A 30	 BNE rel			A:00 X:55 Y:6F P:67 SP:F9 - 
F9C7  30 18 50	 BMI rel			A:00 X:55 Y:6F P:67 SP:F9 - 
F9C9  50 16 C9	 BVC rel			A:00 X:55 Y:6F P:67 SP:F9 - 
F9CB  C9 00 D0	 CMP #			A:00 X:55 Y:6F P:67 SP:F9 - 
F9CD  D0 12 B8	 BNE rel			A:00 X:55 Y:6F P:67 SP:F9 - 
F9CF  B8 A9 55	 CLV impl			A:00 X:55 Y:6F P:67 SP:F9 - 
F9D0  A9 55 38	 LDA #			A:00 X:55 Y:6F P:27 SP:F9 - 
F9D2  38 60 B0	 SEC impl			A:55 X:55 Y:6F P:25 SP:F9 - 
F9D3  60 B0 0B	 RTS impl			A:55 X:55 Y:6F P:25 SP:F9 - 
E3FF  C8 9D 00	 INY impl			A:55 X:55 Y:6F P:25 SP:FB - 
E400  9D 00 06	 STA abs,X			A:55 X:55 Y:70 P:25 SP:FB - 
E403  1E 00 06	 ASL abs,X			A:55 X:55 Y:70 P:25 SP:FB - 
E406  BD 00 06	 LDA abs,X			A:55 X:55 Y:70 P:A4 SP:FB - 
E409  20 D4 F9	 JSR abs			A:AA X:55 Y:70 P:A4 SP:FB - 
F9D4  B0 0B F0	 BCS rel			A:AA X:55 Y:70 P:A4 SP:F9 - 
F9D6  F0 09 10	 BEQ rel			A:AA X:55 Y:70 P:A4 SP:F9 - 
F9D8  10 07 70	 BPL rel			A:AA X:55 Y:70 P:A4 SP:F9 - 
F9DA  70 05 C9	 BVS rel			A:AA X:55 Y:70 P:A4 SP:F9 - 
F9DC  C9 AA D0	 CMP #			A:AA X:55 Y:70 P:A4 SP:F9 - 
F9DE  D0 01 60	 BNE rel			A:AA X:55 Y:70 P:27 SP:F9 - 
F9E0  60 84 00	 RTS impl			A:AA X:55 Y:70 P:27 SP:F9 - 
E40C  C8 20 E4	 INY impl			A:AA X:55 Y:70 P:27 SP:FB - 
E40D  20 E4 F9	 JSR abs			A:AA X:55 Y:71 P:25 SP:FB - 
F9E4  24 01 38	 BIT zpg			A:AA X:55 Y:71 P:25 SP:F9 - 
F9E6  38 A9 01	 SEC impl			A:AA X:55 Y:71 P:E5 SP:F9 - 
F9E7  A9 01 60	 LDA #			A:AA X:55 Y:71 P:E5 SP:F9 - 
F9E9  60 90 1C	 RTS impl			A:01 X:55 Y:71 P:65 SP:F9 - 
E410  9D 00 06	 STA abs,X			A:01 X:55 Y:71 P:65 SP:FB - 
E413  7E 00 06	 ROR abs,X			A:01 X:55 Y:71 P:65 SP:FB - 
E416  BD 00 06	 LDA abs,X			A:01 X:55 Y:71 P:E5 SP:FB - 
E419  20 EA F9	 JSR abs			A:80 X:55 Y:71 P:E5 SP:FB - 
F9EA  90 1C F0	 BCC rel			A:80 X:55 Y:71 P:E5 SP:F9 - 
F9EC  F0 1A 10	 BEQ rel			A:80 X:55 Y:71 P:E5 SP:F9 - 
F9EE  10 18 50	 BPL rel			A:80 X:55 Y:71 P:E5 SP:F9 - 
F9F0  50 16 C9	 BVC rel			A:80 X:55 Y:71 P:E5 SP:F9 - 
F9F2  C9 80 D0	 CMP #			A:80 X:55 Y:71 P:E5 SP:F9 - 
F9F4  D0 12 B8	 BNE rel			A:80 X:55 Y:71 P:67 SP:F9 - 
F9F6  B8 18 A9	 CLV impl			A:80 X:55 Y:71 P:67 SP:F9 - 
F9F7  18 A9 55	 CLC impl			A:80 X:55 Y:71 P:27 SP:F9 - 
F9F8  A9 55 60	 LDA #			A:80 X:55 Y:71 P:26 SP:F9 - 
F9FA  60 90 0B	 RTS impl			A:55 X:55 Y:71 P:24 SP:F9 - 
E41C  C8 9D 00	 INY impl			A:55 X:55 Y:71 P:24 SP:FB - 
E41D  9D 00 06	 STA abs,X			A:55 X:55 Y:72 P:24 SP:FB - 
E420  7E 00 06	 ROR abs,X			A:55 X:55 Y:72 P:24 SP:FB - 
E423  BD 00 06	 LDA abs,X			A:55 X:55 Y:72 P:25 SP:FB - 
E426  20 FB F9	 JSR abs			A:2A X:55 Y:72 P:25 SP:FB - 
F9FB  90 0B F0	 BCC rel			A:2A X:55 Y:72 P:25 SP:F9 - 
F9FD  F0 09 30	 BEQ rel			A:2A X:55 Y:72 P:25 SP:F9 - 
F9FF  30 07 70	 BMI rel			A:2A X:55 Y:72 P:25 SP:F9 - 
FA01  70 05 C9	 BVS rel			A:2A X:55 Y:72 P:25 SP:F9 - 
FA03  C9 2A D0	 CMP #			A:2A X:55 Y:72 P:25 SP:F9 - 
FA05  D0 01 60	 BNE rel			A:2A X:55 Y:72 P:27 SP:F9 - 
FA07  60 84 00	 RTS impl			A:2A X:55 Y:72 P:27 SP:F9 - 
E429  C8 20 0A	 INY impl			A:2A X:55 Y:72 P:27 SP:FB - 
E42A  20 0A FA	 JSR abs			A:2A X:55 Y:73 P:25 SP:FB - 
FA0A  24 01 38	 BIT zpg			A:2A X:55 Y:73 P:25 SP:F9 - 
FA0C  38 A9 80	 SEC impl			A:2A X:55 Y:73 P:E5 SP:F9 - 
FA0D  A9 80 60	 LDA #			A:2A X:55 Y:73 P:E5 SP:F9 - 
FA0F  60 90 1C	 RTS impl			A:80 X:55 Y:73 P:E5 SP:F9 - 
E42D  9D 00 06	 STA abs,X			A:80 X:55 Y:73 P:E5 SP:FB - 
E430  3E 00 06	 ROL abs,X			A:80 X:55 Y:73 P:E5 SP:FB - 
E433  BD 00 06	 LDA abs,X			A:80 X:55 Y:73 P:65 SP:FB - 
E436  20 10 FA	 JSR abs			A:01 X:55 Y:73 P:65 SP:FB - 
FA10  90 1C F0	 BCC rel			A:01 X:55 Y:73 P:65 SP:F9 - 
FA12  F0 1A 30	 BEQ rel			A:01 X:55 Y:73 P:65 SP:F9 - 
FA14  30 18 50	 BMI rel			A:01 X:55 Y:73 P:65 SP:F9 - 
FA16  50 16 C9	 BVC rel			A:01 X:55 Y:73 P:65 SP:F9 - 
FA18  C9 01 D0	 CMP #			A:01 X:55 Y:73 P:65 SP:F9 - 
FA1A  D0 12 B8	 BNE rel			A:01 X:55 Y:73 P:67 SP:F9 - 
FA1C  B8 18 A9	 CLV impl			A:01 X:55 Y:73 P:67 SP:F9 - 
FA1D  18 A9 55	 CLC impl			A:01 X:55 Y:73 P:27 SP:F9 - 
FA1E  A9 55 60	 LDA #			A:01 X:55 Y:73 P:26 SP:F9 - 
FA20  60 B0 0B	 RTS impl			A:55 X:55 Y:73 P:24 SP:F9 - 
E439  C8 9D 00	 INY impl			A:55 X:55 Y:73 P:24 SP:FB - 
E43A  9D 00 06	 STA abs,X			A:55 X:55 Y:74 P:24 SP:FB - 
E43D  3E 00 06	 ROL abs,X			A:55 X:55 Y:74 P:24 SP:FB - 
E440  BD 00 06	 LDA abs,X			A:55 X:55 Y:74 P:A4 SP:FB - 
E443  20 21 FA	 JSR abs			A:AA X:55 Y:74 P:A4 SP:FB - 
FA21  B0 0B F0	 BCS rel			A:AA X:55 Y:74 P:A4 SP:F9 - 
FA23  F0 09 10	 BEQ rel			A:AA X:55 Y:74 P:A4 SP:F9 - 
FA25  10 07 70	 BPL rel			A:AA X:55 Y:74 P:A4 SP:F9 - 
FA27  70 05 C9	 BVS rel			A:AA X:55 Y:74 P:A4 SP:F9 - 
FA29  C9 AA D0	 CMP #			A:AA X:55 Y:74 P:A4 SP:F9 - 
FA2B  D0 01 60	 BNE rel			A:AA X:55 Y:74 P:27 SP:F9 - 
FA2D  60 84 00	 RTS impl			A:AA X:55 Y:74 P:27 SP:F9 - 
E446  A9 FF 9D	 LDA #			A:AA X:55 Y:74 P:27 SP:FB - 
E448  9D 00 06	 STA abs,X			A:FF X:55 Y:74 P:A5 SP:FB - 
E44B  85 01 24	 STA zpg			A:FF X:55 Y:74 P:A5 SP:FB - 
E44D  24 01 38	 BIT zpg			A:FF X:55 Y:74 P:A5 SP:FB - 
E44F  38 FE 00	 SEC impl			A:FF X:55 Y:74 P:E5 SP:FB - 
E450  FE 00 06	 INC abs,X			A:FF X:55 Y:74 P:E5 SP:FB - 
E453  D0 0D 30	 BNE rel			A:FF X:55 Y:74 P:67 SP:FB - 
E455  30 0B 50	 BMI rel			A:FF X:55 Y:74 P:67 SP:FB - 
E457  50 09 90	 BVC rel			A:FF X:55 Y:74 P:67 SP:FB - 
E459  90 07 BD	 BCC rel			A:FF X:55 Y:74 P:67 SP:FB - 
E45B  BD 00 06	 LDA abs,X			A:FF X:55 Y:74 P:67 SP:FB - 
E45E  C9 00 F0	 CMP #			A:00 X:55 Y:74 P:67 SP:FB - 
E460  F0 04 A9	 BEQ rel			A:00 X:55 Y:74 P:67 SP:FB - 
E466  A9 7F 9D	 LDA #			A:00 X:55 Y:74 P:67 SP:FB - 
E468  9D 00 06	 STA abs,X			A:7F X:55 Y:74 P:65 SP:FB - 
E46B  B8 18 FE	 CLV impl			A:7F X:55 Y:74 P:65 SP:FB - 
E46C  18 FE 00	 CLC impl			A:7F X:55 Y:74 P:25 SP:FB - 
E46D  FE 00 06	 INC abs,X			A:7F X:55 Y:74 P:24 SP:FB - 
E470  F0 0D 10	 BEQ rel			A:7F X:55 Y:74 P:A4 SP:FB - 
E472  10 0B 70	 BPL rel			A:7F X:55 Y:74 P:A4 SP:FB - 
E474  70 09 B0	 BVS rel			A:7F X:55 Y:74 P:A4 SP:FB - 
E476  B0 07 BD	 BCS rel			A:7F X:55 Y:74 P:A4 SP:FB - 
E478  BD 00 06	 LDA abs,X			A:7F X:55 Y:74 P:A4 SP:FB - 
E47B  C9 80 F0	 CMP #			A:80 X:55 Y:74 P:A4 SP:FB - 
E47D  F0 04 A9	 BEQ rel			A:80 X:55 Y:74 P:27 SP:FB - 
E483  A9 00 9D	 LDA #			A:80 X:55 Y:74 P:27 SP:FB - 
E485  9D 00 06	 STA abs,X			A:00 X:55 Y:74 P:27 SP:FB - 
E488  24 01 38	 BIT zpg			A:00 X:55 Y:74 P:27 SP:FB - 
E48A  38 DE 00	 SEC impl			A:00 X:55 Y:74 P:E7 SP:FB - 
E48B  DE 00 06	 DEC abs,X			A:00 X:55 Y:74 P:E7 SP:FB - 
E48E  F0 0D 10	 BEQ rel			A:00 X:55 Y:74 P:E5 SP:FB - 
E490  10 0B 50	 BPL rel			A:00 X:55 Y:74 P:E5 SP:FB - 
E492  50 09 90	 BVC rel			A:00 X:55 Y:74 P:E5 SP:FB - 
E494  90 07 BD	 BCC rel			A:00 X:55 Y:74 P:E5 SP:FB - 
E496  BD 00 06	 LDA abs,X			A:00 X:55 Y:74 P:E5 SP:FB - 
E499  C9 FF F0	 CMP #			A:FF X:55 Y:74 P:E5 SP:FB - 
E49B  F0 04 A9	 BEQ rel			A:FF X:55 Y:74 P:67 SP:FB - 
E4A1  A9 80 9D	 LDA #			A:FF X:55 Y:74 P:67 SP:FB - 
E4A3  9D 00 06	 STA abs,X			A:80 X:55 Y:74 P:E5 SP:FB - 
E4A6  B8 18 DE	 CLV impl			A:80 X:55 Y:74 P:E5 SP:FB - 
E4A7  18 DE 00	 CLC impl			A:80 X:55 Y:74 P:A5 SP:FB - 
E4A8  DE 00 06	 DEC abs,X			A:80 X:55 Y:74 P:A4 SP:FB - 
E4AB  F0 0D 30	 BEQ rel			A:80 X:55 Y:74 P:24 SP:FB - 
E4AD  30 0B 70	 BMI rel			A:80 X:55 Y:74 P:24 SP:FB - 
E4AF  70 09 B0	 BVS rel			A:80 X:55 Y:74 P:24 SP:FB - 
E4B1  B0 07 BD	 BCS rel			A:80 X:55 Y:74 P:24 SP:FB - 
E4B3  BD 00 06	 LDA abs,X			A:80 X:55 Y:74 P:24 SP:FB - 
E4B6  C9 7F F0	 CMP #			A:7F X:55 Y:74 P:24 SP:FB - 
E4B8  F0 04 A9	 BEQ rel			A:7F X:55 Y:74 P:27 SP:FB - 
E4BE  A9 01 9D	 LDA #			A:7F X:55 Y:74 P:27 SP:FB - 
E4C0  9D 00 06	 STA abs,X			A:01 X:55 Y:74 P:25 SP:FB - 
E4C3  DE 00 06	 DEC abs,X			A:01 X:55 Y:74 P:25 SP:FB - 
E4C6  F0 04 A9	 BEQ rel			A:01 X:55 Y:74 P:27 SP:FB - 
E4CC  A9 33 8D	 LDA #			A:01 X:55 Y:74 P:27 SP:FB - 
E4CE  8D 78 06	 STA abs			A:33 X:55 Y:74 P:25 SP:FB - 
E4D1  A9 44 A0	 LDA #			A:33 X:55 Y:74 P:25 SP:FB - 
E4D3  A0 78 A2	 LDY #			A:44 X:55 Y:74 P:25 SP:FB - 
E4D5  A2 00 38	 LDX #			A:44 X:55 Y:78 P:25 SP:FB - 
E4D7  38 24 01	 SEC impl			A:44 X:00 Y:78 P:27 SP:FB - 
E4D8  24 01 BE	 BIT zpg			A:44 X:00 Y:78 P:27 SP:FB - 
E4DA  BE 00 06	 LDX abs,Y			A:44 X:00 Y:78 P:E5 SP:FB - 
E4DD  90 12 50	 BCC rel			A:44 X:33 Y:78 P:65 SP:FB - 
E4DF  50 10 30	 BVC rel			A:44 X:33 Y:78 P:65 SP:FB - 
E4E1  30 0E F0	 BMI rel			A:44 X:33 Y:78 P:65 SP:FB - 
E4E3  F0 0C E0	 BEQ rel			A:44 X:33 Y:78 P:65 SP:FB - 
E4E5  E0 33 D0	 CPX #			A:44 X:33 Y:78 P:65 SP:FB - 
E4E7  D0 08 C0	 BNE rel			A:44 X:33 Y:78 P:67 SP:FB - 
E4E9  C0 78 D0	 CPY #			A:44 X:33 Y:78 P:67 SP:FB - 
E4EB  D0 04 C9	 BNE rel			A:44 X:33 Y:78 P:67 SP:FB - 
E4ED  C9 44 F0	 CMP #			A:44 X:33 Y:78 P:67 SP:FB - 
E4EF  F0 04 A9	 BEQ rel			A:44 X:33 Y:78 P:67 SP:FB - 
E4F5  A9 97 8D	 LDA #			A:44 X:33 Y:78 P:67 SP:FB - 
E4F7  8D 7F 06	 STA abs			A:97 X:33 Y:78 P:E5 SP:FB - 
E4FA  A9 47 A0	 LDA #			A:97 X:33 Y:78 P:E5 SP:FB - 
E4FC  A0 FF A2	 LDY #			A:47 X:33 Y:78 P:65 SP:FB - 
E4FE  A2 00 18	 LDX #			A:47 X:33 Y:FF P:E5 SP:FB - 
E500  18 B8 BE	 CLC impl			A:47 X:00 Y:FF P:67 SP:FB - 
E501  B8 BE 80	 CLV impl			A:47 X:00 Y:FF P:66 SP:FB - 
E502  BE 80 05	 LDX abs,Y			A:47 X:00 Y:FF P:26 SP:FB - 
E505  B0 12 70	 BCS rel			A:47 X:97 Y:FF P:A4 SP:FB - 
E507  70 10 10	 BVS rel			A:47 X:97 Y:FF P:A4 SP:FB - 
E509  10 0E F0	 BPL rel			A:47 X:97 Y:FF P:A4 SP:FB - 
E50B  F0 0C E0	 BEQ rel			A:47 X:97 Y:FF P:A4 SP:FB - 
E50D  E0 97 D0	 CPX #			A:47 X:97 Y:FF P:A4 SP:FB - 
E50F  D0 08 C0	 BNE rel			A:47 X:97 Y:FF P:27 SP:FB - 
E511  C0 FF D0	 CPY #			A:47 X:97 Y:FF P:27 SP:FB - 
E513  D0 04 C9	 BNE rel			A:47 X:97 Y:FF P:27 SP:FB - 
E515  C9 47 F0	 CMP #			A:47 X:97 Y:FF P:27 SP:FB - 
E517  F0 04 A9	 BEQ rel			A:47 X:97 Y:FF P:27 SP:FB - 
E51D  60 A9 55	 RTS impl			A:47 X:97 Y:FF P:27 SP:FB - 
C62F  20 A3 C6	 JSR abs			A:47 X:97 Y:FF P:27 SP:FD - 
C6A3  A0 4E A9	 LDY #			A:47 X:97 Y:FF P:27 SP:FB - 
C6A5  A9 FF 85	 LDA #			A:47 X:97 Y:4E P:25 SP:FB - 
C6A7  85 01 20	 STA zpg			A:FF X:97 Y:4E P:A5 SP:FB - 
C6A9  20 B0 C6	 JSR abs			A:FF X:97 Y:4E P:A5 SP:FB - 
C6B0  A9 FF 48	 LDA #			A:FF X:97 Y:4E P:A5 SP:F9 - 
C6B2  48 A9 AA	 PHA impl			A:FF X:97 Y:4E P:A5 SP:F9 - 
C6B3  A9 AA D0	 LDA #			A:FF X:97 Y:4E P:A5 SP:F8 - 
C6B5  D0 05 A9	 BNE rel			A:AA X:97 Y:4E P:A5 SP:F8 - 
C6BC  28 04 A9	 PLP impl			A:AA X:97 Y:4E P:A5 SP:F8 - 
C6BD  04 A9 44	 ILL			A:AA X:97 Y:4E P:EF SP:F9 - 
C6BF  44 A9 64	 ILL			A:AA X:97 Y:4E P:EF SP:F9 - 
C6C1  64 A9 EA	 ILL			A:AA X:97 Y:4E P:EF SP:F9 - 
C6C3  EA EA EA	 NOP impl			A:AA X:97 Y:4E P:EF SP:F9 - 
C6C4  EA EA EA	 NOP impl			A:AA X:97 Y:4E P:EF SP:F9 - 
C6C5  EA EA 08	 NOP impl			A:AA X:97 Y:4E P:EF SP:F9 - 
C6C6  EA 08 48	 NOP impl			A:AA X:97 Y:4E P:EF SP:F9 - 
C6C7  08 48 0C	 PHP impl			A:AA X:97 Y:4E P:EF SP:F9 - 
C6C8  48 0C A9	 PHA impl			A:AA X:97 Y:4E P:EF SP:F8 - 
C6C9  0C A9 A9	 ILL			A:AA X:97 Y:4E P:EF SP:F7 - 
C6CB  A9 EA EA	 LDA #			A:AA X:97 Y:4E P:EF SP:F7 - 
C6CD  EA EA EA	 NOP impl			A:EA X:97 Y:4E P:ED SP:F7 - 
C6CE  EA EA 08	 NOP impl			A:EA X:97 Y:4E P:ED SP:F7 - 
C6CF  EA 08 48	 NOP impl			A:EA X:97 Y:4E P:ED SP:F7 - 
C6D0  08 48 14	 PHP impl			A:EA X:97 Y:4E P:ED SP:F7 - 
C6D1  48 14 A9	 PHA impl			A:EA X:97 Y:4E P:ED SP:F6 - 
C6D2  14 A9 34	 ILL			A:EA X:97 Y:4E P:ED SP:F5 - 
C6D4  34 A9 54	 ILL			A:EA X:97 Y:4E P:ED SP:F5 - 
C6D6  54 A9 74	 ILL			A:EA X:97 Y:4E P:ED SP:F5 - 
C6D8  74 A9 D4	 ILL			A:EA X:97 Y:4E P:ED SP:F5 - 
C6DA  D4 A9 F4	 ILL			A:EA X:97 Y:4E P:ED SP:F5 - 
C6DC  F4 A9 EA	 ILL			A:EA X:97 Y:4E P:ED SP:F5 - 
C6DE  EA EA EA	 NOP impl			A:EA X:97 Y:4E P:ED SP:F5 - 
C6DF  EA EA EA	 NOP impl			A:EA X:97 Y:4E P:ED SP:F5 - 
C6E0  EA EA 08	 NOP impl			A:EA X:97 Y:4E P:ED SP:F5 - 
C6E1  EA 08 48	 NOP impl			A:EA X:97 Y:4E P:ED SP:F5 - 
C6E2  08 48 1A	 PHP impl			A:EA X:97 Y:4E P:ED SP:F5 - 
C6E3  48 1A 3A	 PHA impl			A:EA X:97 Y:4E P:ED SP:F4 - 
C6E4  1A 3A 5A	 ILL			A:EA X:97 Y:4E P:ED SP:F3 - 
C6E6  5A 7A DA	 ILL			A:EA X:97 Y:4E P:ED SP:F3 - 
C6E8  DA FA 80	 ILL			A:EA X:97 Y:4E P:ED SP:F3 - 
C6EA  80 89 EA	 ILL			A:EA X:97 Y:4E P:ED SP:F3 - 
C6EC  EA EA EA	 NOP impl			A:EA X:97 Y:4E P:ED SP:F3 - 
C6ED  EA EA EA	 NOP impl			A:EA X:97 Y:4E P:ED SP:F3 - 
C6EE  EA EA 08	 NOP impl			A:EA X:97 Y:4E P:ED SP:F3 - 
C6EF  EA 08 48	 NOP impl			A:EA X:97 Y:4E P:ED SP:F3 - 
C6F0  08 48 1C	 PHP impl			A:EA X:97 Y:4E P:ED SP:F3 - 
C6F1  48 1C A9	 PHA impl			A:EA X:97 Y:4E P:ED SP:F2 - 
C6F2  1C A9 A9	 ILL			A:EA X:97 Y:4E P:ED SP:F1 - 
C6F4  A9 3C A9	 LDA #			A:EA X:97 Y:4E P:ED SP:F1 - 
C6F6  A9 A9 5C	 LDA #			A:3C X:97 Y:4E P:6D SP:F1 - 
C6F8  5C A9 A9	 ILL			A:A9 X:97 Y:4E P:ED SP:F1 - 
C6FA  A9 7C A9	 LDA #			A:A9 X:97 Y:4E P:ED SP:F1 - 
C6FC  A9 A9 DC	 LDA #			A:7C X:97 Y:4E P:6D SP:F1 - 
C6FE  DC A9 A9	 ILL			A:A9 X:97 Y:4E P:ED SP:F1 - 
C700  A9 FC A9	 LDA #			A:A9 X:97 Y:4E P:ED SP:F1 - 
C702  A9 A9 EA	 LDA #			A:FC X:97 Y:4E P:ED SP:F1 - 
C704  EA EA EA	 NOP impl			A:A9 X:97 Y:4E P:ED SP:F1 - 
C705  EA EA EA	 NOP impl			A:A9 X:97 Y:4E P:ED SP:F1 - 
C706  EA EA 08	 NOP impl			A:A9 X:97 Y:4E P:ED SP:F1 - 
C707  EA 08 48	 NOP impl			A:A9 X:97 Y:4E P:ED SP:F1 - 
C708  08 48 A2	 PHP impl			A:A9 X:97 Y:4E P:ED SP:F1 - 
C709  48 A2 05	 PHA impl			A:A9 X:97 Y:4E P:ED SP:F0 - 
C70A  A2 05 68	 LDX #			A:A9 X:97 Y:4E P:ED SP:EF - 
C70C  68 C9 55	 PLA impl			A:A9 X:05 Y:4E P:6D SP:EF - 
C70D  C9 55 F0	 CMP #			A:A9 X:05 Y:4E P:ED SP:F0 - 
C70F  F0 0A C9	 BEQ rel			A:A9 X:05 Y:4E P:6D SP:F0 - 
C711  C9 AA F0	 CMP #			A:A9 X:05 Y:4E P:6D SP:F0 - 
C713  F0 06 68	 BEQ rel			A:A9 X:05 Y:4E P:EC SP:F0 - 
C715  68 84 00	 PLA impl			A:A9 X:05 Y:4E P:EC SP:F0 - 
C716  84 00 4C	 STY zpg			A:FD X:05 Y:4E P:EC SP:F1 - 
C718  4C 28 C7	 JMP abs			A:FD X:05 Y:4E P:EC SP:F1 - 
C728  C8 CA D0	 INY impl			A:FD X:05 Y:4E P:EC SP:F1 - 
C729  CA D0 E0	 DEX impl			A:FD X:05 Y:4F P:6C SP:F1 - 
C72A  D0 E0 60	 BNE rel			A:FD X:04 Y:4F P:6C SP:F1 - 
C70C  68 C9 55	 PLA impl			A:FD X:04 Y:4F P:6C SP:F1 - 
C70D  C9 55 F0	 CMP #			A:EA X:04 Y:4F P:EC SP:F2 - 
C70F  F0 0A C9	 BEQ rel			A:EA X:04 Y:4F P:ED SP:F2 - 
C711  C9 AA F0	 CMP #			A:EA X:04 Y:4F P:ED SP:F2 - 
C713  F0 06 68	 BEQ rel			A:EA X:04 Y:4F P:6D SP:F2 - 
C715  68 84 00	 PLA impl			A:EA X:04 Y:4F P:6D SP:F2 - 
C716  84 00 4C	 STY zpg			A:FD X:04 Y:4F P:ED SP:F3 - 
C718  4C 28 C7	 JMP abs			A:FD X:04 Y:4F P:ED SP:F3 - 
C728  C8 CA D0	 INY impl			A:FD X:04 Y:4F P:ED SP:F3 - 
C729  CA D0 E0	 DEX impl			A:FD X:04 Y:50 P:6D SP:F3 - 
C72A  D0 E0 60	 BNE rel			A:FD X:03 Y:50 P:6D SP:F3 - 
C70C  68 C9 55	 PLA impl			A:FD X:03 Y:50 P:6D SP:F3 - 
C70D  C9 55 F0	 CMP #			A:EA X:03 Y:50 P:ED SP:F4 - 
C70F  F0 0A C9	 BEQ rel			A:EA X:03 Y:50 P:ED SP:F4 - 
C711  C9 AA F0	 CMP #			A:EA X:03 Y:50 P:ED SP:F4 - 
C713  F0 06 68	 BEQ rel			A:EA X:03 Y:50 P:6D SP:F4 - 
C715  68 84 00	 PLA impl			A:EA X:03 Y:50 P:6D SP:F4 - 
C716  84 00 4C	 STY zpg			A:FD X:03 Y:50 P:ED SP:F5 - 
C718  4C 28 C7	 JMP abs			A:FD X:03 Y:50 P:ED SP:F5 - 
C728  C8 CA D0	 INY impl			A:FD X:03 Y:50 P:ED SP:F5 - 
C729  CA D0 E0	 DEX impl			A:FD X:03 Y:51 P:6D SP:F5 - 
C72A  D0 E0 60	 BNE rel			A:FD X:02 Y:51 P:6D SP:F5 - 
C70C  68 C9 55	 PLA impl			A:FD X:02 Y:51 P:6D SP:F5 - 
C70D  C9 55 F0	 CMP #			A:EA X:02 Y:51 P:ED SP:F6 - 
C70F  F0 0A C9	 BEQ rel			A:EA X:02 Y:51 P:ED SP:F6 - 
C711  C9 AA F0	 CMP #			A:EA X:02 Y:51 P:ED SP:F6 - 
C713  F0 06 68	 BEQ rel			A:EA X:02 Y:51 P:6D SP:F6 - 
C715  68 84 00	 PLA impl			A:EA X:02 Y:51 P:6D SP:F6 - 
C716  84 00 4C	 STY zpg			A:FD X:02 Y:51 P:ED SP:F7 - 
C718  4C 28 C7	 JMP abs			A:FD X:02 Y:51 P:ED SP:F7 - 
C728  C8 CA D0	 INY impl			A:FD X:02 Y:51 P:ED SP:F7 - 
C729  CA D0 E0	 DEX impl			A:FD X:02 Y:52 P:6D SP:F7 - 
C72A  D0 E0 60	 BNE rel			A:FD X:01 Y:52 P:6D SP:F7 - 
C70C  68 C9 55	 PLA impl			A:FD X:01 Y:52 P:6D SP:F7 - 
C70D  C9 55 F0	 CMP #			A:AA X:01 Y:52 P:ED SP:F8 - 
C70F  F0 0A C9	 BEQ rel			A:AA X:01 Y:52 P:6D SP:F8 - 
C711  C9 AA F0	 CMP #			A:AA X:01 Y:52 P:6D SP:F8 - 
C713  F0 06 68	 BEQ rel			A:AA X:01 Y:52 P:6F SP:F8 - 
C71B  68 29 CB	 PLA impl			A:AA X:01 Y:52 P:6F SP:F8 - 
C71C  29 CB C9	 AND #			A:FF X:01 Y:52 P:ED SP:F9 - 
C71E  C9 00 F0	 CMP #			A:CB X:01 Y:52 P:ED SP:F9 - 
C720  F0 06 C9	 BEQ rel			A:CB X:01 Y:52 P:ED SP:F9 - 
C722  C9 CB F0	 CMP #			A:CB X:01 Y:52 P:ED SP:F9 - 
C724  F0 02 84	 BEQ rel			A:CB X:01 Y:52 P:6F SP:F9 - 
C728  C8 CA D0	 INY impl			A:CB X:01 Y:52 P:6F SP:F9 - 
C729  CA D0 E0	 DEX impl			A:CB X:01 Y:53 P:6D SP:F9 - 
C72A  D0 E0 60	 BNE rel			A:CB X:00 Y:53 P:6F SP:F9 - 
C72C  60 EA 38	 RTS impl			A:CB X:00 Y:53 P:6F SP:F9 - 
C6AC  20 B7 C6	 JSR abs			A:CB X:00 Y:53 P:6F SP:FB - 
C6B7  A9 34 48	 LDA #			A:CB X:00 Y:53 P:6F SP:F9 - 
C6B9  48 A9 55	 PHA impl			A:34 X:00 Y:53 P:6D SP:F9 - 
C6BA  A9 55 28	 LDA #			A:34 X:00 Y:53 P:6D SP:F8 - 
C6BC  28 04 A9	 PLP impl			A:55 X:00 Y:53 P:6D SP:F8 - 
C6BD  04 A9 44	 ILL			A:55 X:00 Y:53 P:24 SP:F9 - 
C6BF  44 A9 64	 ILL			A:55 X:00 Y:53 P:24 SP:F9 - 
C6C1  64 A9 EA	 ILL			A:55 X:00 Y:53 P:24 SP:F9 - 
C6C3  EA EA EA	 NOP impl			A:55 X:00 Y:53 P:24 SP:F9 - 
C6C4  EA EA EA	 NOP impl			A:55 X:00 Y:53 P:24 SP:F9 - 
C6C5  EA EA 08	 NOP impl			A:55 X:00 Y:53 P:24 SP:F9 - 
C6C6  EA 08 48	 NOP impl			A:55 X:00 Y:53 P:24 SP:F9 - 
C6C7  08 48 0C	 PHP impl			A:55 X:00 Y:53 P:24 SP:F9 - 
C6C8  48 0C A9	 PHA impl			A:55 X:00 Y:53 P:24 SP:F8 - 
C6C9  0C A9 A9	 ILL			A:55 X:00 Y:53 P:24 SP:F7 - 
C6CB  A9 EA EA	 LDA #			A:55 X:00 Y:53 P:24 SP:F7 - 
C6CD  EA EA EA	 NOP impl			A:EA X:00 Y:53 P:A4 SP:F7 - 
C6CE  EA EA 08	 NOP impl			A:EA X:00 Y:53 P:A4 SP:F7 - 
C6CF  EA 08 48	 NOP impl			A:EA X:00 Y:53 P:A4 SP:F7 - 
C6D0  08 48 14	 PHP impl			A:EA X:00 Y:53 P:A4 SP:F7 - 
C6D1  48 14 A9	 PHA impl			A:EA X:00 Y:53 P:A4 SP:F6 - 
C6D2  14 A9 34	 ILL			A:EA X:00 Y:53 P:A4 SP:F5 - 
C6D4  34 A9 54	 ILL			A:EA X:00 Y:53 P:A4 SP:F5 - 
C6D6  54 A9 74	 ILL			A:EA X:00 Y:53 P:A4 SP:F5 - 
C6D8  74 A9 D4	 ILL			A:EA X:00 Y:53 P:A4 SP:F5 - 
C6DA  D4 A9 F4	 ILL			A:EA X:00 Y:53 P:A4 SP:F5 - 
C6DC  F4 A9 EA	 ILL			A:EA X:00 Y:53 P:A4 SP:F5 - 
C6DE  EA EA EA	 NOP impl			A:EA X:00 Y:53 P:A4 SP:F5 - 
C6DF  EA EA EA	 NOP impl			A:EA X:00 Y:53 P:A4 SP:F5 - 
C6E0  EA EA 08	 NOP impl			A:EA X:00 Y:53 P:A4 SP:F5 - 
C6E1  EA 08 48	 NOP impl			A:EA X:00 Y:53 P:A4 SP:F5 - 
C6E2  08 48 1A	 PHP impl			A:EA X:00 Y:53 P:A4 SP:F5 - 
C6E3  48 1A 3A	 PHA impl			A:EA X:00 Y:53 P:A4 SP:F4 - 
C6E4  1A 3A 5A	 ILL			A:EA X:00 Y:53 P:A4 SP:F3 - 
C6E6  5A 7A DA	 ILL			A:EA X:00 Y:53 P:A4 SP:F3 - 
C6E8  DA FA 80	 ILL			A:EA X:00 Y:53 P:A4 SP:F3 - 
C6EA  80 89 EA	 ILL			A:EA X:00 Y:53 P:A4 SP:F3 - 
C6EC  EA EA EA	 NOP impl			A:EA X:00 Y:53 P:A4 SP:F3 - 
C6ED  EA EA EA	 NOP impl			A:EA X:00 Y:53 P:A4 SP:F3 - 
C6EE  EA EA 08	 NOP impl			A:EA X:00 Y:53 P:A4 SP:F3 - 
C6EF  EA 08 48	 NOP impl			A:EA X:00 Y:53 P:A4 SP:F3 - 
C6F0  08 48 1C	 PHP impl			A:EA X:00 Y:53 P:A4 SP:F3 - 
C6F1  48 1C A9	 PHA impl			A:EA X:00 Y:53 P:A4 SP:F2 - 
C6F2  1C A9 A9	 ILL			A:EA X:00 Y:53 P:A4 SP:F1 - 
C6F4  A9 3C A9	 LDA #			A:EA X:00 Y:53 P:A4 SP:F1 - 
C6F6  A9 A9 5C	 LDA #			A:3C X:00 Y:53 P:24 SP:F1 - 
C6F8  5C A9 A9	 ILL			A:A9 X:00 Y:53 P:A4 SP:F1 - 
C6FA  A9 7C A9	 LDA #			A:A9 X:00 Y:53 P:A4 SP:F1 - 
C6FC  A9 A9 DC	 LDA #			A:7C X:00 Y:53 P:24 SP:F1 - 
C6FE  DC A9 A9	 ILL			A:A9 X:00 Y:53 P:A4 SP:F1 - 
C700  A9 FC A9	 LDA #			A:A9 X:00 Y:53 P:A4 SP:F1 - 
C702  A9 A9 EA	 LDA #			A:FC X:00 Y:53 P:A4 SP:F1 - 
C704  EA EA EA	 NOP impl			A:A9 X:00 Y:53 P:A4 SP:F1 - 
C705  EA EA EA	 NOP impl			A:A9 X:00 Y:53 P:A4 SP:F1 - 
C706  EA EA 08	 NOP impl			A:A9 X:00 Y:53 P:A4 SP:F1 - 
C707  EA 08 48	 NOP impl			A:A9 X:00 Y:53 P:A4 SP:F1 - 
C708  08 48 A2	 PHP impl			A:A9 X:00 Y:53 P:A4 SP:F1 - 
C709  48 A2 05	 PHA impl			A:A9 X:00 Y:53 P:A4 SP:F0 - 
C70A  A2 05 68	 LDX #			A:A9 X:00 Y:53 P:A4 SP:EF - 
C70C  68 C9 55	 PLA impl			A:A9 X:05 Y:53 P:24 SP:EF - 
C70D  C9 55 F0	 CMP #			A:A9 X:05 Y:53 P:A4 SP:F0 - 
C70F  F0 0A C9	 BEQ rel			A:A9 X:05 Y:53 P:25 SP:F0 - 
C711  C9 AA F0	 CMP #			A:A9 X:05 Y:53 P:25 SP:F0 - 
C713  F0 06 68	 BEQ rel			A:A9 X:05 Y:53 P:A4 SP:F0 - 
C715  68 84 00	 PLA impl			A:A9 X:05 Y:53 P:A4 SP:F0 - 
C716  84 00 4C	 STY zpg			A:B4 X:05 Y:53 P:A4 SP:F1 - 
C718  4C 28 C7	 JMP abs			A:B4 X:05 Y:53 P:A4 SP:F1 - 
C728  C8 CA D0	 INY impl			A:B4 X:05 Y:53 P:A4 SP:F1 - 
C729  CA D0 E0	 DEX impl			A:B4 X:05 Y:54 P:24 SP:F1 - 
C72A  D0 E0 60	 BNE rel			A:B4 X:04 Y:54 P:24 SP:F1 - 
C70C  68 C9 55	 PLA impl			A:B4 X:04 Y:54 P:24 SP:F1 - 
C70D  C9 55 F0	 CMP #			A:EA X:04 Y:54 P:A4 SP:F2 - 
C70F  F0 0A C9	 BEQ rel			A:EA X:04 Y:54 P:A5 SP:F2 - 
C711  C9 AA F0	 CMP #			A:EA X:04 Y:54 P:A5 SP:F2 - 
C713  F0 06 68	 BEQ rel			A:EA X:04 Y:54 P:25 SP:F2 - 
C715  68 84 00	 PLA impl			A:EA X:04 Y:54 P:25 SP:F2 - 
C716  84 00 4C	 STY zpg			A:B4 X:04 Y:54 P:A5 SP:F3 - 
C718  4C 28 C7	 JMP abs			A:B4 X:04 Y:54 P:A5 SP:F3 - 
C728  C8 CA D0	 INY impl			A:B4 X:04 Y:54 P:A5 SP:F3 - 
C729  CA D0 E0	 DEX impl			A:B4 X:04 Y:55 P:25 SP:F3 - 
C72A  D0 E0 60	 BNE rel			A:B4 X:03 Y:55 P:25 SP:F3 - 
C70C  68 C9 55	 PLA impl			A:B4 X:03 Y:55 P:25 SP:F3 - 
C70D  C9 55 F0	 CMP #			A:EA X:03 Y:55 P:A5 SP:F4 - 
C70F  F0 0A C9	 BEQ rel			A:EA X:03 Y:55 P:A5 SP:F4 - 
C711  C9 AA F0	 CMP #			A:EA X:03 Y:55 P:A5 SP:F4 - 
C713  F0 06 68	 BEQ rel			A:EA X:03 Y:55 P:25 SP:F4 - 
C715  68 84 00	 PLA impl			A:EA X:03 Y:55 P:25 SP:F4 - 
C716  84 00 4C	 STY zpg			A:B4 X:03 Y:55 P:A5 SP:F5 - 
C718  4C 28 C7	 JMP abs			A:B4 X:03 Y:55 P:A5 SP:F5 - 
C728  C8 CA D0	 INY impl			A:B4 X:03 Y:55 P:A5 SP:F5 - 
C729  CA D0 E0	 DEX impl			A:B4 X:03 Y:56 P:25 SP:F5 - 
C72A  D0 E0 60	 BNE rel			A:B4 X:02 Y:56 P:25 SP:F5 - 
C70C  68 C9 55	 PLA impl			A:B4 X:02 Y:56 P:25 SP:F5 - 
C70D  C9 55 F0	 CMP #			A:EA X:02 Y:56 P:A5 SP:F6 - 
C70F  F0 0A C9	 BEQ rel			A:EA X:02 Y:56 P:A5 SP:F6 - 
C711  C9 AA F0	 CMP #			A:EA X:02 Y:56 P:A5 SP:F6 - 
C713  F0 06 68	 BEQ rel			A:EA X:02 Y:56 P:25 SP:F6 - 
C715  68 84 00	 PLA impl			A:EA X:02 Y:56 P:25 SP:F6 - 
C716  84 00 4C	 STY zpg			A:B4 X:02 Y:56 P:A5 SP:F7 - 
C718  4C 28 C7	 JMP abs			A:B4 X:02 Y:56 P:A5 SP:F7 - 
C728  C8 CA D0	 INY impl			A:B4 X:02 Y:56 P:A5 SP:F7 - 
C729  CA D0 E0	 DEX impl			A:B4 X:02 Y:57 P:25 SP:F7 - 
C72A  D0 E0 60	 BNE rel			A:B4 X:01 Y:57 P:25 SP:F7 - 
C70C  68 C9 55	 PLA impl			A:B4 X:01 Y:57 P:25 SP:F7 - 
C70D  C9 55 F0	 CMP #			A:55 X:01 Y:57 P:25 SP:F8 - 
C70F  F0 0A C9	 BEQ rel			A:55 X:01 Y:57 P:27 SP:F8 - 
C71B  68 29 CB	 PLA impl			A:55 X:01 Y:57 P:27 SP:F8 - 
C71C  29 CB C9	 AND #			A:34 X:01 Y:57 P:25 SP:F9 - 
C71E  C9 00 F0	 CMP #			A:00 X:01 Y:57 P:27 SP:F9 - 
C720  F0 06 C9	 BEQ rel			A:00 X:01 Y:57 P:27 SP:F9 - 
C728  C8 CA D0	 INY impl			A:00 X:01 Y:57 P:27 SP:F9 - 
C729  CA D0 E0	 DEX impl			A:00 X:01 Y:58 P:25 SP:F9 - 
C72A  D0 E0 60	 BNE rel			A:00 X:00 Y:58 P:27 SP:F9 - 
C72C  60 EA 38	 RTS impl			A:00 X:00 Y:58 P:27 SP:F9 - 
C6AF  60 A9 FF	 RTS impl			A:00 X:00 Y:58 P:27 SP:FB - 
C632  20 1E E5	 JSR abs			A:00 X:00 Y:58 P:27 SP:FD - 
E51E  A9 55 8D	 LDA #			A:00 X:00 Y:58 P:27 SP:FB - 
E520  8D 80 05	 STA abs			A:55 X:00 Y:58 P:25 SP:FB - 
E523  A9 AA 8D	 LDA #			A:55 X:00 Y:58 P:25 SP:FB - 
E525  8D 32 04	 STA abs			A:AA X:00 Y:58 P:A5 SP:FB - 
E528  A9 80 85	 LDA #			A:AA X:00 Y:58 P:A5 SP:FB - 
E52A  85 43 A9	 STA zpg			A:80 X:00 Y:58 P:A5 SP:FB - 
E52C  A9 05 85	 LDA #			A:80 X:00 Y:58 P:A5 SP:FB - 
E52E  85 44 A9	 STA zpg			A:05 X:00 Y:58 P:25 SP:FB - 
E530  A9 32 85	 LDA #			A:05 X:00 Y:58 P:25 SP:FB - 
E532  85 45 A9	 STA zpg			A:32 X:00 Y:58 P:25 SP:FB - 
E534  A9 04 85	 LDA #			A:32 X:00 Y:58 P:25 SP:FB - 
E536  85 46 A2	 STA zpg			A:04 X:00 Y:58 P:25 SP:FB - 
E538  A2 03 A0	 LDX #			A:04 X:00 Y:58 P:25 SP:FB - 
E53A  A0 77 A9	 LDY #			A:04 X:03 Y:58 P:25 SP:FB - 
E53C  A9 FF 85	 LDA #			A:04 X:03 Y:77 P:25 SP:FB - 
E53E  85 01 24	 STA zpg			A:FF X:03 Y:77 P:A5 SP:FB - 
E540  24 01 38	 BIT zpg			A:FF X:03 Y:77 P:A5 SP:FB - 
E542  38 A9 00	 SEC impl			A:FF X:03 Y:77 P:E5 SP:FB - 
E543  A9 00 A3	 LDA #			A:FF X:03 Y:77 P:E5 SP:FB - 
E545  A3 40 EA	 ILL			A:00 X:03 Y:77 P:67 SP:FB - 
E547  EA EA EA	 NOP impl			A:00 X:03 Y:77 P:67 SP:FB - 
E548  EA EA EA	 NOP impl			A:00 X:03 Y:77 P:67 SP:FB - 
E549  EA EA F0	 NOP impl			A:00 X:03 Y:77 P:67 SP:FB - 
E54A  EA F0 12	 NOP impl			A:00 X:03 Y:77 P:67 SP:FB - 
E54B  F0 12 30	 BEQ rel			A:00 X:03 Y:77 P:67 SP:FB - 
E55F  A9 7C 85	 LDA #			A:00 X:03 Y:77 P:67 SP:FB - 
E561  85 00 A2	 STA zpg			A:7C X:03 Y:77 P:65 SP:FB - 
E563  A2 05 A0	 LDX #			A:7C X:03 Y:77 P:65 SP:FB - 
E565  A0 33 B8	 LDY #			A:7C X:05 Y:77 P:65 SP:FB - 
E567  B8 18 A9	 CLV impl			A:7C X:05 Y:33 P:65 SP:FB - 
E568  18 A9 00	 CLC impl			A:7C X:05 Y:33 P:25 SP:FB - 
E569  A9 00 A3	 LDA #			A:7C X:05 Y:33 P:24 SP:FB - 
E56B  A3 40 EA	 ILL			A:00 X:05 Y:33 P:26 SP:FB - 
E56D  EA EA EA	 NOP impl			A:00 X:05 Y:33 P:26 SP:FB - 
E56E  EA EA EA	 NOP impl			A:00 X:05 Y:33 P:26 SP:FB - 
E56F  EA EA F0	 NOP impl			A:00 X:05 Y:33 P:26 SP:FB - 
E570  EA F0 12	 NOP impl			A:00 X:05 Y:33 P:26 SP:FB - 
E571  F0 12 10	 BEQ rel			A:00 X:05 Y:33 P:26 SP:FB - 
E585  A9 7D 85	 LDA #			A:00 X:05 Y:33 P:26 SP:FB - 
E587  85 00 A9	 STA zpg			A:7D X:05 Y:33 P:24 SP:FB - 
E589  A9 87 85	 LDA #			A:7D X:05 Y:33 P:24 SP:FB - 
E58B  85 67 A9	 STA zpg			A:87 X:05 Y:33 P:A4 SP:FB - 
E58D  A9 32 85	 LDA #			A:87 X:05 Y:33 P:A4 SP:FB - 
E58F  85 68 A0	 STA zpg			A:32 X:05 Y:33 P:24 SP:FB - 
E591  A0 57 24	 LDY #			A:32 X:05 Y:33 P:24 SP:FB - 
E593  24 01 38	 BIT zpg			A:32 X:05 Y:57 P:24 SP:FB - 
E595  38 A9 00	 SEC impl			A:32 X:05 Y:57 P:E4 SP:FB - 
E596  A9 00 A7	 LDA #			A:32 X:05 Y:57 P:E5 SP:FB - 
E598  A7 67 EA	 ILL			A:00 X:05 Y:57 P:67 SP:FB - 
E59A  EA EA EA	 NOP impl			A:00 X:05 Y:57 P:67 SP:FB - 
E59B  EA EA EA	 NOP impl			A:00 X:05 Y:57 P:67 SP:FB - 
E59C  EA EA F0	 NOP impl			A:00 X:05 Y:57 P:67 SP:FB - 
E59D  EA F0 12	 NOP impl			A:00 X:05 Y:57 P:67 SP:FB - 
E59E  F0 12 10	 BEQ rel			A:00 X:05 Y:57 P:67 SP:FB - 
E5B2  A9 7E 85	 LDA #			A:00 X:05 Y:57 P:67 SP:FB - 
E5B4  85 00 A0	 STA zpg			A:7E X:05 Y:57 P:65 SP:FB - 
E5B6  A0 53 B8	 LDY #			A:7E X:05 Y:57 P:65 SP:FB - 
E5B8  B8 18 A9	 CLV impl			A:7E X:05 Y:53 P:65 SP:FB - 
E5B9  18 A9 00	 CLC impl			A:7E X:05 Y:53 P:25 SP:FB - 
E5BA  A9 00 A7	 LDA #			A:7E X:05 Y:53 P:24 SP:FB - 
E5BC  A7 68 EA	 ILL			A:00 X:05 Y:53 P:26 SP:FB - 
E5BE  EA EA EA	 NOP impl			A:00 X:05 Y:53 P:26 SP:FB - 
E5BF  EA EA EA	 NOP impl			A:00 X:05 Y:53 P:26 SP:FB - 
E5C0  EA EA F0	 NOP impl			A:00 X:05 Y:53 P:26 SP:FB - 
E5C1  EA F0 12	 NOP impl			A:00 X:05 Y:53 P:26 SP:FB - 
E5C2  F0 12 30	 BEQ rel			A:00 X:05 Y:53 P:26 SP:FB - 
E5D6  A9 7F 85	 LDA #			A:00 X:05 Y:53 P:26 SP:FB - 
E5D8  85 00 A9	 STA zpg			A:7F X:05 Y:53 P:24 SP:FB - 
E5DA  A9 87 8D	 LDA #			A:7F X:05 Y:53 P:24 SP:FB - 
E5DC  8D 77 05	 STA abs			A:87 X:05 Y:53 P:A4 SP:FB - 
E5DF  A9 32 8D	 LDA #			A:87 X:05 Y:53 P:A4 SP:FB - 
E5E1  8D 78 05	 STA abs			A:32 X:05 Y:53 P:24 SP:FB - 
E5E4  A0 57 24	 LDY #			A:32 X:05 Y:53 P:24 SP:FB - 
E5E6  24 01 38	 BIT zpg			A:32 X:05 Y:57 P:24 SP:FB - 
E5E8  38 A9 00	 SEC impl			A:32 X:05 Y:57 P:E4 SP:FB - 
E5E9  A9 00 AF	 LDA #			A:32 X:05 Y:57 P:E5 SP:FB - 
E5EB  AF 77 05	 ILL			A:00 X:05 Y:57 P:67 SP:FB - 
E5ED  05 EA EA	 ORA zpg			A:00 X:05 Y:57 P:67 SP:FB - 
E5EF  EA EA EA	 NOP impl			A:FF X:05 Y:57 P:E5 SP:FB - 
E5F0  EA EA F0	 NOP impl			A:FF X:05 Y:57 P:E5 SP:FB - 
E5F1  EA F0 12	 NOP impl			A:FF X:05 Y:57 P:E5 SP:FB - 
E5F2  F0 12 10	 BEQ rel			A:FF X:05 Y:57 P:E5 SP:FB - 
E5F4  10 10 50	 BPL rel			A:FF X:05 Y:57 P:E5 SP:FB - 
E5F6  50 0E 90	 BVC rel			A:FF X:05 Y:57 P:E5 SP:FB - 
E5F8  90 0C C9	 BCC rel			A:FF X:05 Y:57 P:E5 SP:FB - 
E5FA  C9 87 D0	 CMP #			A:FF X:05 Y:57 P:E5 SP:FB - 
E5FC  D0 08 E0	 BNE rel			A:FF X:05 Y:57 P:65 SP:FB - 
E606  A9 80 85	 LDA #			A:FF X:05 Y:57 P:65 SP:FB - 
E608  85 00 A0	 STA zpg			A:80 X:05 Y:57 P:E5 SP:FB - 
E60A  A0 53 B8	 LDY #			A:80 X:05 Y:57 P:E5 SP:FB - 
E60C  B8 18 A9	 CLV impl			A:80 X:05 Y:53 P:65 SP:FB - 
E60D  18 A9 00	 CLC impl			A:80 X:05 Y:53 P:25 SP:FB - 
E60E  A9 00 AF	 LDA #			A:80 X:05 Y:53 P:24 SP:FB - 
E610  AF 78 05	 ILL			A:00 X:05 Y:53 P:26 SP:FB - 
E612  05 EA EA	 ORA zpg			A:00 X:05 Y:53 P:26 SP:FB - 
E614  EA EA EA	 NOP impl			A:FF X:05 Y:53 P:A4 SP:FB - 
E615  EA EA F0	 NOP impl			A:FF X:05 Y:53 P:A4 SP:FB - 
E616  EA F0 12	 NOP impl			A:FF X:05 Y:53 P:A4 SP:FB - 
E617  F0 12 30	 BEQ rel			A:FF X:05 Y:53 P:A4 SP:FB - 
E619  30 10 70	 BMI rel			A:FF X:05 Y:53 P:A4 SP:FB - 
E62B  A9 81 85	 LDA #			A:FF X:05 Y:53 P:A4 SP:FB - 
E62D  85 00 A9	 STA zpg			A:81 X:05 Y:53 P:A4 SP:FB - 
E62F  A9 FF 85	 LDA #			A:81 X:05 Y:53 P:A4 SP:FB - 
E631  85 43 A9	 STA zpg			A:FF X:05 Y:53 P:A4 SP:FB - 
E633  A9 04 85	 LDA #			A:FF X:05 Y:53 P:A4 SP:FB - 
E635  85 44 A9	 STA zpg			A:04 X:05 Y:53 P:24 SP:FB - 
E637  A9 32 85	 LDA #			A:04 X:05 Y:53 P:24 SP:FB - 
E639  85 45 A9	 STA zpg			A:32 X:05 Y:53 P:24 SP:FB - 
E63B  A9 04 85	 LDA #			A:32 X:05 Y:53 P:24 SP:FB - 
E63D  85 46 A9	 STA zpg			A:04 X:05 Y:53 P:24 SP:FB - 
E63F  A9 55 8D	 LDA #			A:04 X:05 Y:53 P:24 SP:FB - 
E641  8D 80 05	 STA abs			A:55 X:05 Y:53 P:24 SP:FB - 
E644  A9 AA 8D	 LDA #			A:55 X:05 Y:53 P:24 SP:FB - 
E646  8D 32 04	 STA abs			A:AA X:05 Y:53 P:A4 SP:FB - 
E649  A2 03 A0	 LDX #			A:AA X:05 Y:53 P:A4 SP:FB - 
E64B  A0 81 24	 LDY #			A:AA X:03 Y:53 P:24 SP:FB - 
E64D  24 01 38	 BIT zpg			A:AA X:03 Y:81 P:A4 SP:FB - 
E64F  38 A9 00	 SEC impl			A:AA X:03 Y:81 P:E4 SP:FB - 
E650  A9 00 B3	 LDA #			A:AA X:03 Y:81 P:E5 SP:FB - 
E652  B3 43 EA	 ILL			A:00 X:03 Y:81 P:67 SP:FB - 
E654  EA EA EA	 NOP impl			A:00 X:03 Y:81 P:67 SP:FB - 
E655  EA EA EA	 NOP impl			A:00 X:03 Y:81 P:67 SP:FB - 
E656  EA EA F0	 NOP impl			A:00 X:03 Y:81 P:67 SP:FB - 
E657  EA F0 12	 NOP impl			A:00 X:03 Y:81 P:67 SP:FB - 
E658  F0 12 30	 BEQ rel			A:00 X:03 Y:81 P:67 SP:FB - 
E66C  A9 82 85	 LDA #			A:00 X:03 Y:81 P:67 SP:FB - 
E66E  85 00 A2	 STA zpg			A:82 X:03 Y:81 P:E5 SP:FB - 
E670  A2 05 A0	 LDX #			A:82 X:03 Y:81 P:E5 SP:FB - 
E672  A0 00 B8	 LDY #			A:82 X:05 Y:81 P:65 SP:FB - 
E674  B8 18 A9	 CLV impl			A:82 X:05 Y:00 P:67 SP:FB - 
E675  18 A9 00	 CLC impl			A:82 X:05 Y:00 P:27 SP:FB - 
E676  A9 00 B3	 LDA #			A:82 X:05 Y:00 P:26 SP:FB - 
E678  B3 45 EA	 ILL			A:00 X:05 Y:00 P:26 SP:FB - 
E67A  EA EA EA	 NOP impl			A:00 X:05 Y:00 P:26 SP:FB - 
E67B  EA EA EA	 NOP impl			A:00 X:05 Y:00 P:26 SP:FB - 
E67C  EA EA F0	 NOP impl			A:00 X:05 Y:00 P:26 SP:FB - 
E67D  EA F0 12	 NOP impl			A:00 X:05 Y:00 P:26 SP:FB - 
E67E  F0 12 10	 BEQ rel			A:00 X:05 Y:00 P:26 SP:FB - 
E692  A9 83 85	 LDA #			A:00 X:05 Y:00 P:26 SP:FB - 
E694  85 00 A9	 STA zpg			A:83 X:05 Y:00 P:A4 SP:FB - 
E696  A9 87 85	 LDA #			A:83 X:05 Y:00 P:A4 SP:FB - 
E698  85 67 A9	 STA zpg			A:87 X:05 Y:00 P:A4 SP:FB - 
E69A  A9 32 85	 LDA #			A:87 X:05 Y:00 P:A4 SP:FB - 
E69C  85 68 A0	 STA zpg			A:32 X:05 Y:00 P:24 SP:FB - 
E69E  A0 57 24	 LDY #			A:32 X:05 Y:00 P:24 SP:FB - 
E6A0  24 01 38	 BIT zpg			A:32 X:05 Y:57 P:24 SP:FB - 
E6A2  38 A9 00	 SEC impl			A:32 X:05 Y:57 P:E4 SP:FB - 
E6A3  A9 00 B7	 LDA #			A:32 X:05 Y:57 P:E5 SP:FB - 
E6A5  B7 10 EA	 ILL			A:00 X:05 Y:57 P:67 SP:FB - 
E6A7  EA EA EA	 NOP impl			A:00 X:05 Y:57 P:67 SP:FB - 
E6A8  EA EA EA	 NOP impl			A:00 X:05 Y:57 P:67 SP:FB - 
E6A9  EA EA F0	 NOP impl			A:00 X:05 Y:57 P:67 SP:FB - 
E6AA  EA F0 12	 NOP impl			A:00 X:05 Y:57 P:67 SP:FB - 
E6AB  F0 12 10	 BEQ rel			A:00 X:05 Y:57 P:67 SP:FB - 
E6BF  A9 84 85	 LDA #			A:00 X:05 Y:57 P:67 SP:FB - 
E6C1  85 00 A0	 STA zpg			A:84 X:05 Y:57 P:E5 SP:FB - 
E6C3  A0 FF B8	 LDY #			A:84 X:05 Y:57 P:E5 SP:FB - 
E6C5  B8 18 A9	 CLV impl			A:84 X:05 Y:FF P:E5 SP:FB - 
E6C6  18 A9 00	 CLC impl			A:84 X:05 Y:FF P:A5 SP:FB - 
E6C7  A9 00 B7	 LDA #			A:84 X:05 Y:FF P:A4 SP:FB - 
E6C9  B7 69 EA	 ILL			A:00 X:05 Y:FF P:26 SP:FB - 
E6CB  EA EA EA	 NOP impl			A:00 X:05 Y:FF P:26 SP:FB - 
E6CC  EA EA EA	 NOP impl			A:00 X:05 Y:FF P:26 SP:FB - 
E6CD  EA EA F0	 NOP impl			A:00 X:05 Y:FF P:26 SP:FB - 
E6CE  EA F0 12	 NOP impl			A:00 X:05 Y:FF P:26 SP:FB - 
E6CF  F0 12 30	 BEQ rel			A:00 X:05 Y:FF P:26 SP:FB - 
E6E3  A9 85 85	 LDA #			A:00 X:05 Y:FF P:26 SP:FB - 
E6E5  85 00 A9	 STA zpg			A:85 X:05 Y:FF P:A4 SP:FB - 
E6E7  A9 87 8D	 LDA #			A:85 X:05 Y:FF P:A4 SP:FB - 
E6E9  8D 87 05	 STA abs			A:87 X:05 Y:FF P:A4 SP:FB - 
E6EC  A9 32 8D	 LDA #			A:87 X:05 Y:FF P:A4 SP:FB - 
E6EE  8D 88 05	 STA abs			A:32 X:05 Y:FF P:24 SP:FB - 
E6F1  A0 30 24	 LDY #			A:32 X:05 Y:FF P:24 SP:FB - 
E6F3  24 01 38	 BIT zpg			A:32 X:05 Y:30 P:24 SP:FB - 
E6F5  38 A9 00	 SEC impl			A:32 X:05 Y:30 P:E4 SP:FB - 
E6F6  A9 00 BF	 LDA #			A:32 X:05 Y:30 P:E5 SP:FB - 
E6F8  BF 57 05	 ILL			A:00 X:05 Y:30 P:67 SP:FB - 
E6FA  05 EA EA	 ORA zpg			A:00 X:05 Y:30 P:67 SP:FB - 
E6FC  EA EA EA	 NOP impl			A:FF X:05 Y:30 P:E5 SP:FB - 
E6FD  EA EA F0	 NOP impl			A:FF X:05 Y:30 P:E5 SP:FB - 
E6FE  EA F0 12	 NOP impl			A:FF X:05 Y:30 P:E5 SP:FB - 
E6FF  F0 12 10	 BEQ rel			A:FF X:05 Y:30 P:E5 SP:FB - 
E701  10 10 50	 BPL rel			A:FF X:05 Y:30 P:E5 SP:FB - 
E703  50 0E 90	 BVC rel			A:FF X:05 Y:30 P:E5 SP:FB - 
E705  90 0C C9	 BCC rel			A:FF X:05 Y:30 P:E5 SP:FB - 
E707  C9 87 D0	 CMP #			A:FF X:05 Y:30 P:E5 SP:FB - 
E709  D0 08 E0	 BNE rel			A:FF X:05 Y:30 P:65 SP:FB - 
E713  A9 86 85	 LDA #			A:FF X:05 Y:30 P:65 SP:FB - 
E715  85 00 A0	 STA zpg			A:86 X:05 Y:30 P:E5 SP:FB - 
E717  A0 40 B8	 LDY #			A:86 X:05 Y:30 P:E5 SP:FB - 
E719  B8 18 A9	 CLV impl			A:86 X:05 Y:40 P:65 SP:FB - 
E71A  18 A9 00	 CLC impl			A:86 X:05 Y:40 P:25 SP:FB - 
E71B  A9 00 BF	 LDA #			A:86 X:05 Y:40 P:24 SP:FB - 
E71D  BF 48 05	 ILL			A:00 X:05 Y:40 P:26 SP:FB - 
E71F  05 EA EA	 ORA zpg			A:00 X:05 Y:40 P:26 SP:FB - 
E721  EA EA EA	 NOP impl			A:FF X:05 Y:40 P:A4 SP:FB - 
E722  EA EA F0	 NOP impl			A:FF X:05 Y:40 P:A4 SP:FB - 
E723  EA F0 12	 NOP impl			A:FF X:05 Y:40 P:A4 SP:FB - 
E724  F0 12 30	 BEQ rel			A:FF X:05 Y:40 P:A4 SP:FB - 
E726  30 10 70	 BMI rel			A:FF X:05 Y:40 P:A4 SP:FB - 
E738  A9 87 85	 LDA #			A:FF X:05 Y:40 P:A4 SP:FB - 
E73A  85 00 60	 STA zpg			A:87 X:05 Y:40 P:A4 SP:FB - 
E73C  60 A9 C0	 RTS impl			A:87 X:05 Y:40 P:A4 SP:FB - 
C635  20 3D E7	 JSR abs			A:87 X:05 Y:40 P:A4 SP:FD - 
E73D  A9 C0 85	 LDA #			A:87 X:05 Y:40 P:A4 SP:FB - 
E73F  85 01 A9	 STA zpg			A:C0 X:05 Y:40 P:A4 SP:FB - 
E741  A9 00 8D	 LDA #			A:C0 X:05 Y:40 P:A4 SP:FB - 
E743  8D 89 04	 STA abs			A:00 X:05 Y:40 P:26 SP:FB - 
E746  A9 89 85	 LDA #			A:00 X:05 Y:40 P:26 SP:FB - 
E748  85 60 A9	 STA zpg			A:89 X:05 Y:40 P:A4 SP:FB - 
E74A  A9 04 85	 LDA #			A:89 X:05 Y:40 P:A4 SP:FB - 
E74C  85 61 A0	 STA zpg			A:04 X:05 Y:40 P:24 SP:FB - 
E74E  A0 44 A2	 LDY #			A:04 X:05 Y:40 P:24 SP:FB - 
E750  A2 17 A9	 LDX #			A:04 X:05 Y:44 P:24 SP:FB - 
E752  A9 3E 24	 LDA #			A:04 X:17 Y:44 P:24 SP:FB - 
E754  24 01 18	 BIT zpg			A:3E X:17 Y:44 P:24 SP:FB - 
E756  18 83 49	 CLC impl			A:3E X:17 Y:44 P:E6 SP:FB - 
E757  83 49 EA	 ILL			A:3E X:17 Y:44 P:E6 SP:FB - 
E759  EA EA EA	 NOP impl			A:3E X:17 Y:44 P:E6 SP:FB - 
E75A  EA EA EA	 NOP impl			A:3E X:17 Y:44 P:E6 SP:FB - 
E75B  EA EA D0	 NOP impl			A:3E X:17 Y:44 P:E6 SP:FB - 
E75C  EA D0 19	 NOP impl			A:3E X:17 Y:44 P:E6 SP:FB - 
E75D  D0 19 B0	 BNE rel			A:3E X:17 Y:44 P:E6 SP:FB - 
E75F  B0 17 50	 BCS rel			A:3E X:17 Y:44 P:E6 SP:FB - 
E761  50 15 10	 BVC rel			A:3E X:17 Y:44 P:E6 SP:FB - 
E763  10 13 C9	 BPL rel			A:3E X:17 Y:44 P:E6 SP:FB - 
E765  C9 3E D0	 CMP #			A:3E X:17 Y:44 P:E6 SP:FB - 
E767  D0 0F C0	 BNE rel			A:3E X:17 Y:44 P:67 SP:FB - 
E769  C0 44 D0	 CPY #			A:3E X:17 Y:44 P:67 SP:FB - 
E76B  D0 0B E0	 BNE rel			A:3E X:17 Y:44 P:67 SP:FB - 
E76D  E0 17 D0	 CPX #			A:3E X:17 Y:44 P:67 SP:FB - 
E76F  D0 07 AD	 BNE rel			A:3E X:17 Y:44 P:67 SP:FB - 
E771  AD 89 04	 LDA abs			A:3E X:17 Y:44 P:67 SP:FB - 
E774  C9 16 F0	 CMP #			A:00 X:17 Y:44 P:67 SP:FB - 
E776  F0 04 A9	 BEQ rel			A:00 X:17 Y:44 P:E4 SP:FB - 
E778  A9 88 85	 LDA #			A:00 X:17 Y:44 P:E4 SP:FB - 
E77A  85 00 A0	 STA zpg			A:88 X:17 Y:44 P:E4 SP:FB - 
E77C  A0 44 A2	 LDY #			A:88 X:17 Y:44 P:E4 SP:FB - 
E77E  A2 7A A9	 LDX #			A:88 X:17 Y:44 P:64 SP:FB - 
E780  A9 66 38	 LDA #			A:88 X:7A Y:44 P:64 SP:FB - 
E782  38 B8 83	 SEC impl			A:66 X:7A Y:44 P:64 SP:FB - 
E783  B8 83 E6	 CLV impl			A:66 X:7A Y:44 P:65 SP:FB - 
E784  83 E6 EA	 ILL			A:66 X:7A Y:44 P:25 SP:FB - 
E786  EA EA EA	 NOP impl			A:66 X:7A Y:44 P:25 SP:FB - 
E787  EA EA EA	 NOP impl			A:66 X:7A Y:44 P:25 SP:FB - 
E788  EA EA F0	 NOP impl			A:66 X:7A Y:44 P:25 SP:FB - 
E789  EA F0 19	 NOP impl			A:66 X:7A Y:44 P:25 SP:FB - 
E78A  F0 19 90	 BEQ rel			A:66 X:7A Y:44 P:25 SP:FB - 
E78C  90 17 70	 BCC rel			A:66 X:7A Y:44 P:25 SP:FB - 
E78E  70 15 30	 BVS rel			A:66 X:7A Y:44 P:25 SP:FB - 
E790  30 13 C9	 BMI rel			A:66 X:7A Y:44 P:25 SP:FB - 
E792  C9 66 D0	 CMP #			A:66 X:7A Y:44 P:25 SP:FB - 
E794  D0 0F C0	 BNE rel			A:66 X:7A Y:44 P:27 SP:FB - 
E796  C0 44 D0	 CPY #			A:66 X:7A Y:44 P:27 SP:FB - 
E798  D0 0B E0	 BNE rel			A:66 X:7A Y:44 P:27 SP:FB - 
E79A  E0 7A D0	 CPX #			A:66 X:7A Y:44 P:27 SP:FB - 
E79C  D0 07 AD	 BNE rel			A:66 X:7A Y:44 P:27 SP:FB - 
E79E  AD 89 04	 LDA abs			A:66 X:7A Y:44 P:27 SP:FB - 
E7A1  C9 62 F0	 CMP #			A:00 X:7A Y:44 P:27 SP:FB - 
E7A3  F0 04 A9	 BEQ rel			A:00 X:7A Y:44 P:A4 SP:FB - 
E7A5  A9 89 85	 LDA #			A:00 X:7A Y:44 P:A4 SP:FB - 
E7A7  85 00 A9	 STA zpg			A:89 X:7A Y:44 P:A4 SP:FB - 
E7A9  A9 FF 85	 LDA #			A:89 X:7A Y:44 P:A4 SP:FB - 
E7AB  85 49 A0	 STA zpg			A:FF X:7A Y:44 P:A4 SP:FB - 
E7AD  A0 44 A2	 LDY #			A:FF X:7A Y:44 P:A4 SP:FB - 
E7AF  A2 AA A9	 LDX #			A:FF X:7A Y:44 P:24 SP:FB - 
E7B1  A9 55 24	 LDA #			A:FF X:AA Y:44 P:A4 SP:FB - 
E7B3  24 01 18	 BIT zpg			A:55 X:AA Y:44 P:24 SP:FB - 
E7B5  18 87 49	 CLC impl			A:55 X:AA Y:44 P:E4 SP:FB - 
E7B6  87 49 EA	 ILL			A:55 X:AA Y:44 P:E4 SP:FB - 
E7B8  EA EA EA	 NOP impl			A:55 X:AA Y:44 P:E4 SP:FB - 
E7B9  EA EA EA	 NOP impl			A:55 X:AA Y:44 P:E4 SP:FB - 
E7BA  EA EA F0	 NOP impl			A:55 X:AA Y:44 P:E4 SP:FB - 
E7BB  EA F0 18	 NOP impl			A:55 X:AA Y:44 P:E4 SP:FB - 
E7BC  F0 18 B0	 BEQ rel			A:55 X:AA Y:44 P:E4 SP:FB - 
E7BE  B0 16 50	 BCS rel			A:55 X:AA Y:44 P:E4 SP:FB - 
E7C0  50 14 10	 BVC rel			A:55 X:AA Y:44 P:E4 SP:FB - 
E7C2  10 12 C9	 BPL rel			A:55 X:AA Y:44 P:E4 SP:FB - 
E7C4  C9 55 D0	 CMP #			A:55 X:AA Y:44 P:E4 SP:FB - 
E7C6  D0 0E C0	 BNE rel			A:55 X:AA Y:44 P:67 SP:FB - 
E7C8  C0 44 D0	 CPY #			A:55 X:AA Y:44 P:67 SP:FB - 
E7CA  D0 0A E0	 BNE rel			A:55 X:AA Y:44 P:67 SP:FB - 
E7CC  E0 AA D0	 CPX #			A:55 X:AA Y:44 P:67 SP:FB - 
E7CE  D0 06 A5	 BNE rel			A:55 X:AA Y:44 P:67 SP:FB - 
E7D0  A5 49 C9	 LDA zpg			A:55 X:AA Y:44 P:67 SP:FB - 
E7D2  C9 00 F0	 CMP #			A:FF X:AA Y:44 P:E5 SP:FB - 
E7D4  F0 04 A9	 BEQ rel			A:FF X:AA Y:44 P:E5 SP:FB - 
E7D6  A9 8A 85	 LDA #			A:FF X:AA Y:44 P:E5 SP:FB - 
E7D8  85 00 A9	 STA zpg			A:8A X:AA Y:44 P:E5 SP:FB - 
E7DA  A9 00 85	 LDA #			A:8A X:AA Y:44 P:E5 SP:FB - 
E7DC  85 56 A0	 STA zpg			A:00 X:AA Y:44 P:67 SP:FB - 
E7DE  A0 58 A2	 LDY #			A:00 X:AA Y:44 P:67 SP:FB - 
E7E0  A2 EF A9	 LDX #			A:00 X:AA Y:58 P:65 SP:FB - 
E7E2  A9 66 38	 LDA #			A:00 X:EF Y:58 P:E5 SP:FB - 
E7E4  38 B8 87	 SEC impl			A:66 X:EF Y:58 P:65 SP:FB - 
E7E5  B8 87 56	 CLV impl			A:66 X:EF Y:58 P:65 SP:FB - 
E7E6  87 56 EA	 ILL			A:66 X:EF Y:58 P:25 SP:FB - 
E7E8  EA EA EA	 NOP impl			A:66 X:EF Y:58 P:25 SP:FB - 
E7E9  EA EA EA	 NOP impl			A:66 X:EF Y:58 P:25 SP:FB - 
E7EA  EA EA F0	 NOP impl			A:66 X:EF Y:58 P:25 SP:FB - 
E7EB  EA F0 18	 NOP impl			A:66 X:EF Y:58 P:25 SP:FB - 
E7EC  F0 18 90	 BEQ rel			A:66 X:EF Y:58 P:25 SP:FB - 
E7EE  90 16 70	 BCC rel			A:66 X:EF Y:58 P:25 SP:FB - 
E7F0  70 14 30	 BVS rel			A:66 X:EF Y:58 P:25 SP:FB - 
E7F2  30 12 C9	 BMI rel			A:66 X:EF Y:58 P:25 SP:FB - 
E7F4  C9 66 D0	 CMP #			A:66 X:EF Y:58 P:25 SP:FB - 
E7F6  D0 0E C0	 BNE rel			A:66 X:EF Y:58 P:27 SP:FB - 
E7F8  C0 58 D0	 CPY #			A:66 X:EF Y:58 P:27 SP:FB - 
E7FA  D0 0A E0	 BNE rel			A:66 X:EF Y:58 P:27 SP:FB - 
E7FC  E0 EF D0	 CPX #			A:66 X:EF Y:58 P:27 SP:FB - 
E7FE  D0 06 A5	 BNE rel			A:66 X:EF Y:58 P:27 SP:FB - 
E800  A5 56 C9	 LDA zpg			A:66 X:EF Y:58 P:27 SP:FB - 
E802  C9 66 F0	 CMP #			A:00 X:EF Y:58 P:27 SP:FB - 
E804  F0 04 A9	 BEQ rel			A:00 X:EF Y:58 P:A4 SP:FB - 
E806  A9 8B 85	 LDA #			A:00 X:EF Y:58 P:A4 SP:FB - 
E808  85 00 A9	 STA zpg			A:8B X:EF Y:58 P:A4 SP:FB - 
E80A  A9 FF 8D	 LDA #			A:8B X:EF Y:58 P:A4 SP:FB - 
E80C  8D 49 05	 STA abs			A:FF X:EF Y:58 P:A4 SP:FB - 
E80F  A0 E5 A2	 LDY #			A:FF X:EF Y:58 P:A4 SP:FB - 
E811  A2 AF A9	 LDX #			A:FF X:EF Y:E5 P:A4 SP:FB - 
E813  A9 F5 24	 LDA #			A:FF X:AF Y:E5 P:A4 SP:FB - 
E815  24 01 18	 BIT zpg			A:F5 X:AF Y:E5 P:A4 SP:FB - 
E817  18 8F 49	 CLC impl			A:F5 X:AF Y:E5 P:E4 SP:FB - 
E818  8F 49 05	 ILL			A:F5 X:AF Y:E5 P:E4 SP:FB - 
E81A  05 EA EA	 ORA zpg			A:F5 X:AF Y:E5 P:E4 SP:FB - 
E81C  EA EA EA	 NOP impl			A:FF X:AF Y:E5 P:E4 SP:FB - 
E81D  EA EA F0	 NOP impl			A:FF X:AF Y:E5 P:E4 SP:FB - 
E81E  EA F0 19	 NOP impl			A:FF X:AF Y:E5 P:E4 SP:FB - 
E81F  F0 19 B0	 BEQ rel			A:FF X:AF Y:E5 P:E4 SP:FB - 
E821  B0 17 50	 BCS rel			A:FF X:AF Y:E5 P:E4 SP:FB - 
E823  50 15 10	 BVC rel			A:FF X:AF Y:E5 P:E4 SP:FB - 
E825  10 13 C9	 BPL rel			A:FF X:AF Y:E5 P:E4 SP:FB - 
E827  C9 F5 D0	 CMP #			A:FF X:AF Y:E5 P:E4 SP:FB - 
E829  D0 0F C0	 BNE rel			A:FF X:AF Y:E5 P:65 SP:FB - 
E83A  A9 8C 85	 LDA #			A:FF X:AF Y:E5 P:65 SP:FB - 
E83C  85 00 A9	 STA zpg			A:8C X:AF Y:E5 P:E5 SP:FB - 
E83E  A9 00 8D	 LDA #			A:8C X:AF Y:E5 P:E5 SP:FB - 
E840  8D 56 05	 STA abs			A:00 X:AF Y:E5 P:67 SP:FB - 
E843  A0 58 A2	 LDY #			A:00 X:AF Y:E5 P:67 SP:FB - 
E845  A2 B3 A9	 LDX #			A:00 X:AF Y:58 P:65 SP:FB - 
E847  A9 97 38	 LDA #			A:00 X:B3 Y:58 P:E5 SP:FB - 
E849  38 B8 8F	 SEC impl			A:97 X:B3 Y:58 P:E5 SP:FB - 
E84A  B8 8F 56	 CLV impl			A:97 X:B3 Y:58 P:E5 SP:FB - 
E84B  8F 56 05	 ILL			A:97 X:B3 Y:58 P:A5 SP:FB - 
E84D  05 EA EA	 ORA zpg			A:97 X:B3 Y:58 P:A5 SP:FB - 
E84F  EA EA EA	 NOP impl			A:FF X:B3 Y:58 P:A5 SP:FB - 
E850  EA EA F0	 NOP impl			A:FF X:B3 Y:58 P:A5 SP:FB - 
E851  EA F0 19	 NOP impl			A:FF X:B3 Y:58 P:A5 SP:FB - 
E852  F0 19 90	 BEQ rel			A:FF X:B3 Y:58 P:A5 SP:FB - 
E854  90 17 70	 BCC rel			A:FF X:B3 Y:58 P:A5 SP:FB - 
E856  70 15 10	 BVS rel			A:FF X:B3 Y:58 P:A5 SP:FB - 
E858  10 13 C9	 BPL rel			A:FF X:B3 Y:58 P:A5 SP:FB - 
E85A  C9 97 D0	 CMP #			A:FF X:B3 Y:58 P:A5 SP:FB - 
E85C  D0 0F C0	 BNE rel			A:FF X:B3 Y:58 P:25 SP:FB - 
E86D  A9 8D 85	 LDA #			A:FF X:B3 Y:58 P:25 SP:FB - 
E86F  85 00 A9	 STA zpg			A:8D X:B3 Y:58 P:A5 SP:FB - 
E871  A9 FF 85	 LDA #			A:8D X:B3 Y:58 P:A5 SP:FB - 
E873  85 49 A0	 STA zpg			A:FF X:B3 Y:58 P:A5 SP:FB - 
E875  A0 FF A2	 LDY #			A:FF X:B3 Y:58 P:A5 SP:FB - 
E877  A2 AA A9	 LDX #			A:FF X:B3 Y:FF P:A5 SP:FB - 
E879  A9 55 24	 LDA #			A:FF X:AA Y:FF P:A5 SP:FB - 
E87B  24 01 18	 BIT zpg			A:55 X:AA Y:FF P:25 SP:FB - 
E87D  18 97 4A	 CLC impl			A:55 X:AA Y:FF P:E5 SP:FB - 
E87E  97 4A EA	 ILL			A:55 X:AA Y:FF P:E4 SP:FB - 
E880  EA EA EA	 NOP impl			A:55 X:AA Y:FF P:E4 SP:FB - 
E881  EA EA EA	 NOP impl			A:55 X:AA Y:FF P:E4 SP:FB - 
E882  EA EA F0	 NOP impl			A:55 X:AA Y:FF P:E4 SP:FB - 
E883  EA F0 18	 NOP impl			A:55 X:AA Y:FF P:E4 SP:FB - 
E884  F0 18 B0	 BEQ rel			A:55 X:AA Y:FF P:E4 SP:FB - 
E886  B0 16 50	 BCS rel			A:55 X:AA Y:FF P:E4 SP:FB - 
E888  50 14 10	 BVC rel			A:55 X:AA Y:FF P:E4 SP:FB - 
E88A  10 12 C9	 BPL rel			A:55 X:AA Y:FF P:E4 SP:FB - 
E88C  C9 55 D0	 CMP #			A:55 X:AA Y:FF P:E4 SP:FB - 
E88E  D0 0E C0	 BNE rel			A:55 X:AA Y:FF P:67 SP:FB - 
E890  C0 FF D0	 CPY #			A:55 X:AA Y:FF P:67 SP:FB - 
E892  D0 0A E0	 BNE rel			A:55 X:AA Y:FF P:67 SP:FB - 
E894  E0 AA D0	 CPX #			A:55 X:AA Y:FF P:67 SP:FB - 
E896  D0 06 A5	 BNE rel			A:55 X:AA Y:FF P:67 SP:FB - 
E898  A5 49 C9	 LDA zpg			A:55 X:AA Y:FF P:67 SP:FB - 
E89A  C9 00 F0	 CMP #			A:FF X:AA Y:FF P:E5 SP:FB - 
E89C  F0 04 A9	 BEQ rel			A:FF X:AA Y:FF P:E5 SP:FB - 
E89E  A9 8E 85	 LDA #			A:FF X:AA Y:FF P:E5 SP:FB - 
E8A0  85 00 A9	 STA zpg			A:8E X:AA Y:FF P:E5 SP:FB - 
E8A2  A9 00 85	 LDA #			A:8E X:AA Y:FF P:E5 SP:FB - 
E8A4  85 56 A0	 STA zpg			A:00 X:AA Y:FF P:67 SP:FB - 
E8A6  A0 06 A2	 LDY #			A:00 X:AA Y:FF P:67 SP:FB - 
E8A8  A2 EF A9	 LDX #			A:00 X:AA Y:06 P:65 SP:FB - 
E8AA  A9 66 38	 LDA #			A:00 X:EF Y:06 P:E5 SP:FB - 
E8AC  38 B8 97	 SEC impl			A:66 X:EF Y:06 P:65 SP:FB - 
E8AD  B8 97 50	 CLV impl			A:66 X:EF Y:06 P:65 SP:FB - 
E8AE  97 50 EA	 ILL			A:66 X:EF Y:06 P:25 SP:FB - 
E8B0  EA EA EA	 NOP impl			A:66 X:EF Y:06 P:25 SP:FB - 
E8B1  EA EA EA	 NOP impl			A:66 X:EF Y:06 P:25 SP:FB - 
E8B2  EA EA F0	 NOP impl			A:66 X:EF Y:06 P:25 SP:FB - 
E8B3  EA F0 18	 NOP impl			A:66 X:EF Y:06 P:25 SP:FB - 
E8B4  F0 18 90	 BEQ rel			A:66 X:EF Y:06 P:25 SP:FB - 
E8B6  90 16 70	 BCC rel			A:66 X:EF Y:06 P:25 SP:FB - 
E8B8  70 14 30	 BVS rel			A:66 X:EF Y:06 P:25 SP:FB - 
E8BA  30 12 C9	 BMI rel			A:66 X:EF Y:06 P:25 SP:FB - 
E8BC  C9 66 D0	 CMP #			A:66 X:EF Y:06 P:25 SP:FB - 
E8BE  D0 0E C0	 BNE rel			A:66 X:EF Y:06 P:27 SP:FB - 
E8C0  C0 06 D0	 CPY #			A:66 X:EF Y:06 P:27 SP:FB - 
E8C2  D0 0A E0	 BNE rel			A:66 X:EF Y:06 P:27 SP:FB - 
E8C4  E0 EF D0	 CPX #			A:66 X:EF Y:06 P:27 SP:FB - 
E8C6  D0 06 A5	 BNE rel			A:66 X:EF Y:06 P:27 SP:FB - 
E8C8  A5 56 C9	 LDA zpg			A:66 X:EF Y:06 P:27 SP:FB - 
E8CA  C9 66 F0	 CMP #			A:00 X:EF Y:06 P:27 SP:FB - 
E8CC  F0 04 A9	 BEQ rel			A:00 X:EF Y:06 P:A4 SP:FB - 
E8CE  A9 8F 85	 LDA #			A:00 X:EF Y:06 P:A4 SP:FB - 
E8D0  85 00 60	 STA zpg			A:8F X:EF Y:06 P:A4 SP:FB - 
E8D2  60 A0 90	 RTS impl			A:8F X:EF Y:06 P:A4 SP:FB - 
C638  20 D3 E8	 JSR abs			A:8F X:EF Y:06 P:A4 SP:FD - 
E8D3  A0 90 20	 LDY #			A:8F X:EF Y:06 P:A4 SP:FB - 
E8D5  20 31 F9	 JSR abs			A:8F X:EF Y:90 P:A4 SP:FB - 
F931  24 01 A9	 BIT zpg			A:8F X:EF Y:90 P:A4 SP:F9 - 
F933  A9 40 38	 LDA #			A:8F X:EF Y:90 P:E4 SP:F9 - 
F935  38 60 30	 SEC impl			A:40 X:EF Y:90 P:64 SP:F9 - 
F936  60 30 0B	 RTS impl			A:40 X:EF Y:90 P:65 SP:F9 - 
E8D8  EB 40 EA	 ILL			A:40 X:EF Y:90 P:65 SP:FB - 
E8DA  EA EA EA	 NOP impl			A:40 X:EF Y:90 P:65 SP:FB - 
E8DB  EA EA EA	 NOP impl			A:40 X:EF Y:90 P:65 SP:FB - 
E8DC  EA EA 20	 NOP impl			A:40 X:EF Y:90 P:65 SP:FB - 
E8DD  EA 20 37	 NOP impl			A:40 X:EF Y:90 P:65 SP:FB - 
E8DE  20 37 F9	 JSR abs			A:40 X:EF Y:90 P:65 SP:FB - 
F937  30 0B 90	 BMI rel			A:40 X:EF Y:90 P:65 SP:F9 - 
F939  90 09 D0	 BCC rel			A:40 X:EF Y:90 P:65 SP:F9 - 
F93B  D0 07 70	 BNE rel			A:40 X:EF Y:90 P:65 SP:F9 - 
F944  84 00 60	 STY zpg			A:40 X:EF Y:90 P:65 SP:F9 - 
F946  60 B8 38	 RTS impl			A:40 X:EF Y:90 P:65 SP:F9 - 
E8E1  C8 20 47	 INY impl			A:40 X:EF Y:90 P:65 SP:FB - 
E8E2  20 47 F9	 JSR abs			A:40 X:EF Y:91 P:E5 SP:FB - 
F947  B8 38 A9	 CLV impl			A:40 X:EF Y:91 P:E5 SP:F9 - 
F948  38 A9 40	 SEC impl			A:40 X:EF Y:91 P:A5 SP:F9 - 
F949  A9 40 60	 LDA #			A:40 X:EF Y:91 P:A5 SP:F9 - 
F94B  60 F0 0B	 RTS impl			A:40 X:EF Y:91 P:25 SP:F9 - 
E8E5  EB 3F EA	 ILL			A:40 X:EF Y:91 P:25 SP:FB - 
E8E7  EA EA EA	 NOP impl			A:40 X:EF Y:91 P:25 SP:FB - 
E8E8  EA EA EA	 NOP impl			A:40 X:EF Y:91 P:25 SP:FB - 
E8E9  EA EA 20	 NOP impl			A:40 X:EF Y:91 P:25 SP:FB - 
E8EA  EA 20 4C	 NOP impl			A:40 X:EF Y:91 P:25 SP:FB - 
E8EB  20 4C F9	 JSR abs			A:40 X:EF Y:91 P:25 SP:FB - 
F94C  F0 0B 30	 BEQ rel			A:40 X:EF Y:91 P:25 SP:F9 - 
F94E  30 09 90	 BMI rel			A:40 X:EF Y:91 P:25 SP:F9 - 
F950  90 07 70	 BCC rel			A:40 X:EF Y:91 P:25 SP:F9 - 
F952  70 05 C9	 BVS rel			A:40 X:EF Y:91 P:25 SP:F9 - 
F954  C9 01 D0	 CMP #			A:40 X:EF Y:91 P:25 SP:F9 - 
F956  D0 01 60	 BNE rel			A:40 X:EF Y:91 P:25 SP:F9 - 
F959  84 00 60	 STY zpg			A:40 X:EF Y:91 P:25 SP:F9 - 
F95B  60 A9 40	 RTS impl			A:40 X:EF Y:91 P:25 SP:F9 - 
E8EE  C8 20 5C	 INY impl			A:40 X:EF Y:91 P:25 SP:FB - 
E8EF  20 5C F9	 JSR abs			A:40 X:EF Y:92 P:A5 SP:FB - 
F95C  A9 40 38	 LDA #			A:40 X:EF Y:92 P:A5 SP:F9 - 
F95E  38 24 01	 SEC impl			A:40 X:EF Y:92 P:25 SP:F9 - 
F95F  24 01 60	 BIT zpg			A:40 X:EF Y:92 P:25 SP:F9 - 
F961  60 B0 0B	 RTS impl			A:40 X:EF Y:92 P:E5 SP:F9 - 
E8F2  EB 41 EA	 ILL			A:40 X:EF Y:92 P:E5 SP:FB - 
E8F4  EA EA EA	 NOP impl			A:40 X:EF Y:92 P:E5 SP:FB - 
E8F5  EA EA EA	 NOP impl			A:40 X:EF Y:92 P:E5 SP:FB - 
E8F6  EA EA 20	 NOP impl			A:40 X:EF Y:92 P:E5 SP:FB - 
E8F7  EA 20 62	 NOP impl			A:40 X:EF Y:92 P:E5 SP:FB - 
E8F8  20 62 F9	 JSR abs			A:40 X:EF Y:92 P:E5 SP:FB - 
F962  B0 0B F0	 BCS rel			A:40 X:EF Y:92 P:E5 SP:F9 - 
F96F  84 00 60	 STY zpg			A:40 X:EF Y:92 P:E5 SP:F9 - 
F971  60 18 A9	 RTS impl			A:40 X:EF Y:92 P:E5 SP:F9 - 
E8FB  C8 20 72	 INY impl			A:40 X:EF Y:92 P:E5 SP:FB - 
E8FC  20 72 F9	 JSR abs			A:40 X:EF Y:93 P:E5 SP:FB - 
F972  18 A9 80	 CLC impl			A:40 X:EF Y:93 P:E5 SP:F9 - 
F973  A9 80 60	 LDA #			A:40 X:EF Y:93 P:E4 SP:F9 - 
F975  60 90 05	 RTS impl			A:80 X:EF Y:93 P:E4 SP:F9 - 
E8FF  EB 00 EA	 ILL			A:80 X:EF Y:93 P:E4 SP:FB - 
E901  EA EA EA	 NOP impl			A:80 X:EF Y:93 P:E4 SP:FB - 
E902  EA EA EA	 NOP impl			A:80 X:EF Y:93 P:E4 SP:FB - 
E903  EA EA 20	 NOP impl			A:80 X:EF Y:93 P:E4 SP:FB - 
E904  EA 20 76	 NOP impl			A:80 X:EF Y:93 P:E4 SP:FB - 
E905  20 76 F9	 JSR abs			A:80 X:EF Y:93 P:E4 SP:FB - 
F976  90 05 C9	 BCC rel			A:80 X:EF Y:93 P:E4 SP:F9 - 
F97D  84 00 60	 STY zpg			A:80 X:EF Y:93 P:E4 SP:F9 - 
F97F  60 38 A9	 RTS impl			A:80 X:EF Y:93 P:E4 SP:F9 - 
E908  C8 20 80	 INY impl			A:80 X:EF Y:93 P:E4 SP:FB - 
E909  20 80 F9	 JSR abs			A:80 X:EF Y:94 P:E4 SP:FB - 
F980  38 A9 81	 SEC impl			A:80 X:EF Y:94 P:E4 SP:F9 - 
F981  A9 81 60	 LDA #			A:80 X:EF Y:94 P:E5 SP:F9 - 
F983  60 50 07	 RTS impl			A:81 X:EF Y:94 P:E5 SP:F9 - 
E90C  EB 7F EA	 ILL			A:81 X:EF Y:94 P:E5 SP:FB - 
E90E  EA EA EA	 NOP impl			A:81 X:EF Y:94 P:E5 SP:FB - 
E90F  EA EA EA	 NOP impl			A:81 X:EF Y:94 P:E5 SP:FB - 
E910  EA EA 20	 NOP impl			A:81 X:EF Y:94 P:E5 SP:FB - 
E911  EA 20 84	 NOP impl			A:81 X:EF Y:94 P:E5 SP:FB - 
E912  20 84 F9	 JSR abs			A:81 X:EF Y:94 P:E5 SP:FB - 
F984  50 07 90	 BVC rel			A:81 X:EF Y:94 P:E5 SP:F9 - 
F986  90 05 C9	 BCC rel			A:81 X:EF Y:94 P:E5 SP:F9 - 
F988  C9 02 D0	 CMP #			A:81 X:EF Y:94 P:E5 SP:F9 - 
F98A  D0 01 60	 BNE rel			A:81 X:EF Y:94 P:65 SP:F9 - 
F98D  84 00 60	 STY zpg			A:81 X:EF Y:94 P:65 SP:F9 - 
F98F  60 A2 55	 RTS impl			A:81 X:EF Y:94 P:65 SP:F9 - 
E915  60 A9 FF	 RTS impl			A:81 X:EF Y:94 P:65 SP:FB - 
C63B  20 16 E9	 JSR abs			A:81 X:EF Y:94 P:65 SP:FD - 
E916  A9 FF 85	 LDA #			A:81 X:EF Y:94 P:65 SP:FB - 
E918  85 01 A0	 STA zpg			A:FF X:EF Y:94 P:E5 SP:FB - 
E91A  A0 95 A2	 LDY #			A:FF X:EF Y:94 P:E5 SP:FB - 
E91C  A2 02 A9	 LDX #			A:FF X:EF Y:95 P:E5 SP:FB - 
E91E  A9 47 85	 LDA #			A:FF X:02 Y:95 P:65 SP:FB - 
E920  85 47 A9	 STA zpg			A:47 X:02 Y:95 P:65 SP:FB - 
E922  A9 06 85	 LDA #			A:47 X:02 Y:95 P:65 SP:FB - 
E924  85 48 A9	 STA zpg			A:06 X:02 Y:95 P:65 SP:FB - 
E926  A9 EB 8D	 LDA #			A:06 X:02 Y:95 P:65 SP:FB - 
E928  8D 47 06	 STA abs			A:EB X:02 Y:95 P:E5 SP:FB - 
E92B  20 31 FA	 JSR abs			A:EB X:02 Y:95 P:E5 SP:FB - 
FA31  24 01 18	 BIT zpg			A:EB X:02 Y:95 P:E5 SP:F9 - 
FA33  18 A9 40	 CLC impl			A:EB X:02 Y:95 P:E5 SP:F9 - 
FA34  A9 40 60	 LDA #			A:EB X:02 Y:95 P:E4 SP:F9 - 
FA36  60 50 2C	 RTS impl			A:40 X:02 Y:95 P:64 SP:F9 - 
E92E  C3 45 EA	 ILL			A:40 X:02 Y:95 P:64 SP:FB - 
E930  EA EA EA	 NOP impl			A:40 X:02 Y:95 P:64 SP:FB - 
E931  EA EA EA	 NOP impl			A:40 X:02 Y:95 P:64 SP:FB - 
E932  EA EA 20	 NOP impl			A:40 X:02 Y:95 P:64 SP:FB - 
E933  EA 20 37	 NOP impl			A:40 X:02 Y:95 P:64 SP:FB - 
E934  20 37 FA	 JSR abs			A:40 X:02 Y:95 P:64 SP:FB - 
FA37  50 2C B0	 BVC rel			A:40 X:02 Y:95 P:64 SP:F9 - 
FA39  B0 2A 30	 BCS rel			A:40 X:02 Y:95 P:64 SP:F9 - 
FA3B  30 28 C9	 BMI rel			A:40 X:02 Y:95 P:64 SP:F9 - 
FA3D  C9 40 D0	 CMP #			A:40 X:02 Y:95 P:64 SP:F9 - 
FA3F  D0 24 60	 BNE rel			A:40 X:02 Y:95 P:67 SP:F9 - 
FA41  60 B8 38	 RTS impl			A:40 X:02 Y:95 P:67 SP:F9 - 
E937  AD 47 06	 LDA abs			A:40 X:02 Y:95 P:67 SP:FB - 
E93A  C9 EA F0	 CMP #			A:EB X:02 Y:95 P:E5 SP:FB - 
E93C  F0 02 84	 BEQ rel			A:EB X:02 Y:95 P:65 SP:FB - 
E93E  84 00 C8	 STY zpg			A:EB X:02 Y:95 P:65 SP:FB - 
E940  C8 A9 00	 INY impl			A:EB X:02 Y:95 P:65 SP:FB - 
E941  A9 00 8D	 LDA #			A:EB X:02 Y:96 P:E5 SP:FB - 
E943  8D 47 06	 STA abs			A:00 X:02 Y:96 P:67 SP:FB - 
E946  20 42 FA	 JSR abs			A:00 X:02 Y:96 P:67 SP:FB - 
FA42  B8 38 A9	 CLV impl			A:00 X:02 Y:96 P:67 SP:F9 - 
FA43  38 A9 FF	 SEC impl			A:00 X:02 Y:96 P:27 SP:F9 - 
FA44  A9 FF 60	 LDA #			A:00 X:02 Y:96 P:27 SP:F9 - 
FA46  60 70 1C	 RTS impl			A:FF X:02 Y:96 P:A5 SP:F9 - 
E949  C3 45 EA	 ILL			A:FF X:02 Y:96 P:A5 SP:FB - 
E94B  EA EA EA	 NOP impl			A:FF X:02 Y:96 P:A5 SP:FB - 
E94C  EA EA EA	 NOP impl			A:FF X:02 Y:96 P:A5 SP:FB - 
E94D  EA EA 20	 NOP impl			A:FF X:02 Y:96 P:A5 SP:FB - 
E94E  EA 20 47	 NOP impl			A:FF X:02 Y:96 P:A5 SP:FB - 
E94F  20 47 FA	 JSR abs			A:FF X:02 Y:96 P:A5 SP:FB - 
FA47  70 1C D0	 BVS rel			A:FF X:02 Y:96 P:A5 SP:F9 - 
FA49  D0 1A 30	 BNE rel			A:FF X:02 Y:96 P:A5 SP:F9 - 
FA65  84 00 60	 STY zpg			A:FF X:02 Y:96 P:A5 SP:F9 - 
FA67  60 24 01	 RTS impl			A:FF X:02 Y:96 P:A5 SP:F9 - 
E952  AD 47 06	 LDA abs			A:FF X:02 Y:96 P:A5 SP:FB - 
E955  C9 FF F0	 CMP #			A:00 X:02 Y:96 P:27 SP:FB - 
E957  F0 02 84	 BEQ rel			A:00 X:02 Y:96 P:24 SP:FB - 
E959  84 00 C8	 STY zpg			A:00 X:02 Y:96 P:24 SP:FB - 
E95B  C8 A9 37	 INY impl			A:00 X:02 Y:96 P:24 SP:FB - 
E95C  A9 37 8D	 LDA #			A:00 X:02 Y:97 P:A4 SP:FB - 
E95E  8D 47 06	 STA abs			A:37 X:02 Y:97 P:24 SP:FB - 
E961  20 54 FA	 JSR abs			A:37 X:02 Y:97 P:24 SP:FB - 
FA54  24 01 A9	 BIT zpg			A:37 X:02 Y:97 P:24 SP:F9 - 
FA56  A9 F0 60	 LDA #			A:37 X:02 Y:97 P:E4 SP:F9 - 
FA58  60 50 0A	 RTS impl			A:F0 X:02 Y:97 P:E4 SP:F9 - 
E964  C3 45 EA	 ILL			A:F0 X:02 Y:97 P:E4 SP:FB - 
E966  EA EA EA	 NOP impl			A:F0 X:02 Y:97 P:E4 SP:FB - 
E967  EA EA EA	 NOP impl			A:F0 X:02 Y:97 P:E4 SP:FB - 
E968  EA EA 20	 NOP impl			A:F0 X:02 Y:97 P:E4 SP:FB - 
E969  EA 20 59	 NOP impl			A:F0 X:02 Y:97 P:E4 SP:FB - 
E96A  20 59 FA	 JSR abs			A:F0 X:02 Y:97 P:E4 SP:FB - 
FA59  50 0A F0	 BVC rel			A:F0 X:02 Y:97 P:E4 SP:F9 - 
FA5B  F0 08 10	 BEQ rel			A:F0 X:02 Y:97 P:E4 SP:F9 - 
FA5D  10 06 90	 BPL rel			A:F0 X:02 Y:97 P:E4 SP:F9 - 
FA5F  90 04 C9	 BCC rel			A:F0 X:02 Y:97 P:E4 SP:F9 - 
FA65  84 00 60	 STY zpg			A:F0 X:02 Y:97 P:E4 SP:F9 - 
FA67  60 24 01	 RTS impl			A:F0 X:02 Y:97 P:E4 SP:F9 - 
E96D  AD 47 06	 LDA abs			A:F0 X:02 Y:97 P:E4 SP:FB - 
E970  C9 36 F0	 CMP #			A:37 X:02 Y:97 P:64 SP:FB - 
E972  F0 02 84	 BEQ rel			A:37 X:02 Y:97 P:65 SP:FB - 
E974  84 00 C8	 STY zpg			A:37 X:02 Y:97 P:65 SP:FB - 
E976  C8 A9 EB	 INY impl			A:37 X:02 Y:97 P:65 SP:FB - 
E977  A9 EB 85	 LDA #			A:37 X:02 Y:98 P:E5 SP:FB - 
E979  85 47 20	 STA zpg			A:EB X:02 Y:98 P:E5 SP:FB - 
E97B  20 31 FA	 JSR abs			A:EB X:02 Y:98 P:E5 SP:FB - 
FA31  24 01 18	 BIT zpg			A:EB X:02 Y:98 P:E5 SP:F9 - 
FA33  18 A9 40	 CLC impl			A:EB X:02 Y:98 P:E5 SP:F9 - 
FA34  A9 40 60	 LDA #			A:EB X:02 Y:98 P:E4 SP:F9 - 
FA36  60 50 2C	 RTS impl			A:40 X:02 Y:98 P:64 SP:F9 - 
E97E  C7 47 EA	 ILL			A:40 X:02 Y:98 P:64 SP:FB - 
E980  EA EA EA	 NOP impl			A:40 X:02 Y:98 P:64 SP:FB - 
E981  EA EA EA	 NOP impl			A:40 X:02 Y:98 P:64 SP:FB - 
E982  EA EA 20	 NOP impl			A:40 X:02 Y:98 P:64 SP:FB - 
E983  EA 20 37	 NOP impl			A:40 X:02 Y:98 P:64 SP:FB - 
E984  20 37 FA	 JSR abs			A:40 X:02 Y:98 P:64 SP:FB - 
FA37  50 2C B0	 BVC rel			A:40 X:02 Y:98 P:64 SP:F9 - 
FA39  B0 2A 30	 BCS rel			A:40 X:02 Y:98 P:64 SP:F9 - 
FA3B  30 28 C9	 BMI rel			A:40 X:02 Y:98 P:64 SP:F9 - 
FA3D  C9 40 D0	 CMP #			A:40 X:02 Y:98 P:64 SP:F9 - 
FA3F  D0 24 60	 BNE rel			A:40 X:02 Y:98 P:67 SP:F9 - 
FA41  60 B8 38	 RTS impl			A:40 X:02 Y:98 P:67 SP:F9 - 
E987  A5 47 C9	 LDA zpg			A:40 X:02 Y:98 P:67 SP:FB - 
E989  C9 EA F0	 CMP #			A:EB X:02 Y:98 P:E5 SP:FB - 
E98B  F0 02 84	 BEQ rel			A:EB X:02 Y:98 P:65 SP:FB - 
E98D  84 00 C8	 STY zpg			A:EB X:02 Y:98 P:65 SP:FB - 
E98F  C8 A9 00	 INY impl			A:EB X:02 Y:98 P:65 SP:FB - 
E990  A9 00 85	 LDA #			A:EB X:02 Y:99 P:E5 SP:FB - 
E992  85 47 20	 STA zpg			A:00 X:02 Y:99 P:67 SP:FB - 
E994  20 42 FA	 JSR abs			A:00 X:02 Y:99 P:67 SP:FB - 
FA42  B8 38 A9	 CLV impl			A:00 X:02 Y:99 P:67 SP:F9 - 
FA43  38 A9 FF	 SEC impl			A:00 X:02 Y:99 P:27 SP:F9 - 
FA44  A9 FF 60	 LDA #			A:00 X:02 Y:99 P:27 SP:F9 - 
FA46  60 70 1C	 RTS impl			A:FF X:02 Y:99 P:A5 SP:F9 - 
E997  C7 47 EA	 ILL			A:FF X:02 Y:99 P:A5 SP:FB - 
E999  EA EA EA	 NOP impl			A:FF X:02 Y:99 P:A5 SP:FB - 
E99A  EA EA EA	 NOP impl			A:FF X:02 Y:99 P:A5 SP:FB - 
E99B  EA EA 20	 NOP impl			A:FF X:02 Y:99 P:A5 SP:FB - 
E99C  EA 20 47	 NOP impl			A:FF X:02 Y:99 P:A5 SP:FB - 
E99D  20 47 FA	 JSR abs			A:FF X:02 Y:99 P:A5 SP:FB - 
FA47  70 1C D0	 BVS rel			A:FF X:02 Y:99 P:A5 SP:F9 - 
FA49  D0 1A 30	 BNE rel			A:FF X:02 Y:99 P:A5 SP:F9 - 
FA65  84 00 60	 STY zpg			A:FF X:02 Y:99 P:A5 SP:F9 - 
FA67  60 24 01	 RTS impl			A:FF X:02 Y:99 P:A5 SP:F9 - 
E9A0  A5 47 C9	 LDA zpg			A:FF X:02 Y:99 P:A5 SP:FB - 
E9A2  C9 FF F0	 CMP #			A:00 X:02 Y:99 P:27 SP:FB - 
E9A4  F0 02 84	 BEQ rel			A:00 X:02 Y:99 P:24 SP:FB - 
E9A6  84 00 C8	 STY zpg			A:00 X:02 Y:99 P:24 SP:FB - 
E9A8  C8 A9 37	 INY impl			A:00 X:02 Y:99 P:24 SP:FB - 
E9A9  A9 37 85	 LDA #			A:00 X:02 Y:9A P:A4 SP:FB - 
E9AB  85 47 20	 STA zpg			A:37 X:02 Y:9A P:24 SP:FB - 
E9AD  20 54 FA	 JSR abs			A:37 X:02 Y:9A P:24 SP:FB - 
FA54  24 01 A9	 BIT zpg			A:37 X:02 Y:9A P:24 SP:F9 - 
FA56  A9 F0 60	 LDA #			A:37 X:02 Y:9A P:E4 SP:F9 - 
FA58  60 50 0A	 RTS impl			A:F0 X:02 Y:9A P:E4 SP:F9 - 
E9B0  C7 47 EA	 ILL			A:F0 X:02 Y:9A P:E4 SP:FB - 
E9B2  EA EA EA	 NOP impl			A:F0 X:02 Y:9A P:E4 SP:FB - 
E9B3  EA EA EA	 NOP impl			A:F0 X:02 Y:9A P:E4 SP:FB - 
E9B4  EA EA 20	 NOP impl			A:F0 X:02 Y:9A P:E4 SP:FB - 
E9B5  EA 20 59	 NOP impl			A:F0 X:02 Y:9A P:E4 SP:FB - 
E9B6  20 59 FA	 JSR abs			A:F0 X:02 Y:9A P:E4 SP:FB - 
FA59  50 0A F0	 BVC rel			A:F0 X:02 Y:9A P:E4 SP:F9 - 
FA5B  F0 08 10	 BEQ rel			A:F0 X:02 Y:9A P:E4 SP:F9 - 
FA5D  10 06 90	 BPL rel			A:F0 X:02 Y:9A P:E4 SP:F9 - 
FA5F  90 04 C9	 BCC rel			A:F0 X:02 Y:9A P:E4 SP:F9 - 
FA65  84 00 60	 STY zpg			A:F0 X:02 Y:9A P:E4 SP:F9 - 
FA67  60 24 01	 RTS impl			A:F0 X:02 Y:9A P:E4 SP:F9 - 
E9B9  A5 47 C9	 LDA zpg			A:F0 X:02 Y:9A P:E4 SP:FB - 
E9BB  C9 36 F0	 CMP #			A:37 X:02 Y:9A P:64 SP:FB - 
E9BD  F0 02 84	 BEQ rel			A:37 X:02 Y:9A P:65 SP:FB - 
E9BF  84 00 C8	 STY zpg			A:37 X:02 Y:9A P:65 SP:FB - 
E9C1  C8 A9 EB	 INY impl			A:37 X:02 Y:9A P:65 SP:FB - 
E9C2  A9 EB 8D	 LDA #			A:37 X:02 Y:9B P:E5 SP:FB - 
E9C4  8D 47 06	 STA abs			A:EB X:02 Y:9B P:E5 SP:FB - 
E9C7  20 31 FA	 JSR abs			A:EB X:02 Y:9B P:E5 SP:FB - 
FA31  24 01 18	 BIT zpg			A:EB X:02 Y:9B P:E5 SP:F9 - 
FA33  18 A9 40	 CLC impl			A:EB X:02 Y:9B P:E5 SP:F9 - 
FA34  A9 40 60	 LDA #			A:EB X:02 Y:9B P:E4 SP:F9 - 
FA36  60 50 2C	 RTS impl			A:40 X:02 Y:9B P:64 SP:F9 - 
E9CA  CF 47 06	 ILL			A:40 X:02 Y:9B P:64 SP:FB - 
E9CC  06 EA EA	 ASL zpg			A:40 X:02 Y:9B P:64 SP:FB - 
E9CE  EA EA EA	 NOP impl			A:40 X:02 Y:9B P:E5 SP:FB - 
E9CF  EA EA 20	 NOP impl			A:40 X:02 Y:9B P:E5 SP:FB - 
E9D0  EA 20 37	 NOP impl			A:40 X:02 Y:9B P:E5 SP:FB - 
E9D1  20 37 FA	 JSR abs			A:40 X:02 Y:9B P:E5 SP:FB - 
FA37  50 2C B0	 BVC rel			A:40 X:02 Y:9B P:E5 SP:F9 - 
FA39  B0 2A 30	 BCS rel			A:40 X:02 Y:9B P:E5 SP:F9 - 
FA65  84 00 60	 STY zpg			A:40 X:02 Y:9B P:E5 SP:F9 - 
FA67  60 24 01	 RTS impl			A:40 X:02 Y:9B P:E5 SP:F9 - 
E9D4  AD 47 06	 LDA abs			A:40 X:02 Y:9B P:E5 SP:FB - 
E9D7  C9 EA F0	 CMP #			A:EB X:02 Y:9B P:E5 SP:FB - 
E9D9  F0 02 84	 BEQ rel			A:EB X:02 Y:9B P:65 SP:FB - 
E9DB  84 00 C8	 STY zpg			A:EB X:02 Y:9B P:65 SP:FB - 
E9DD  C8 A9 00	 INY impl			A:EB X:02 Y:9B P:65 SP:FB - 
E9DE  A9 00 8D	 LDA #			A:EB X:02 Y:9C P:E5 SP:FB - 
E9E0  8D 47 06	 STA abs			A:00 X:02 Y:9C P:67 SP:FB - 
E9E3  20 42 FA	 JSR abs			A:00 X:02 Y:9C P:67 SP:FB - 
FA42  B8 38 A9	 CLV impl			A:00 X:02 Y:9C P:67 SP:F9 - 
FA43  38 A9 FF	 SEC impl			A:00 X:02 Y:9C P:27 SP:F9 - 
FA44  A9 FF 60	 LDA #			A:00 X:02 Y:9C P:27 SP:F9 - 
FA46  60 70 1C	 RTS impl			A:FF X:02 Y:9C P:A5 SP:F9 - 
E9E6  CF 47 06	 ILL			A:FF X:02 Y:9C P:A5 SP:FB - 
E9E8  06 EA EA	 ASL zpg			A:FF X:02 Y:9C P:A5 SP:FB - 
E9EA  EA EA EA	 NOP impl			A:FF X:02 Y:9C P:A5 SP:FB - 
E9EB  EA EA 20	 NOP impl			A:FF X:02 Y:9C P:A5 SP:FB - 
E9EC  EA 20 47	 NOP impl			A:FF X:02 Y:9C P:A5 SP:FB - 
E9ED  20 47 FA	 JSR abs			A:FF X:02 Y:9C P:A5 SP:FB - 
FA47  70 1C D0	 BVS rel			A:FF X:02 Y:9C P:A5 SP:F9 - 
FA49  D0 1A 30	 BNE rel			A:FF X:02 Y:9C P:A5 SP:F9 - 
FA65  84 00 60	 STY zpg			A:FF X:02 Y:9C P:A5 SP:F9 - 
FA67  60 24 01	 RTS impl			A:FF X:02 Y:9C P:A5 SP:F9 - 
E9F0  AD 47 06	 LDA abs			A:FF X:02 Y:9C P:A5 SP:FB - 
E9F3  C9 FF F0	 CMP #			A:00 X:02 Y:9C P:27 SP:FB - 
E9F5  F0 02 84	 BEQ rel			A:00 X:02 Y:9C P:24 SP:FB - 
E9F7  84 00 C8	 STY zpg			A:00 X:02 Y:9C P:24 SP:FB - 
E9F9  C8 A9 37	 INY impl			A:00 X:02 Y:9C P:24 SP:FB - 
E9FA  A9 37 8D	 LDA #			A:00 X:02 Y:9D P:A4 SP:FB - 
E9FC  8D 47 06	 STA abs			A:37 X:02 Y:9D P:24 SP:FB - 
E9FF  20 54 FA	 JSR abs			A:37 X:02 Y:9D P:24 SP:FB - 
FA54  24 01 A9	 BIT zpg			A:37 X:02 Y:9D P:24 SP:F9 - 
FA56  A9 F0 60	 LDA #			A:37 X:02 Y:9D P:E4 SP:F9 - 
FA58  60 50 0A	 RTS impl			A:F0 X:02 Y:9D P:E4 SP:F9 - 
EA02  CF 47 06	 ILL			A:F0 X:02 Y:9D P:E4 SP:FB - 
EA04  06 EA EA	 ASL zpg			A:F0 X:02 Y:9D P:E4 SP:FB - 
EA06  EA EA EA	 NOP impl			A:F0 X:02 Y:9D P:E5 SP:FB - 
EA07  EA EA 20	 NOP impl			A:F0 X:02 Y:9D P:E5 SP:FB - 
EA08  EA 20 59	 NOP impl			A:F0 X:02 Y:9D P:E5 SP:FB - 
EA09  20 59 FA	 JSR abs			A:F0 X:02 Y:9D P:E5 SP:FB - 
FA59  50 0A F0	 BVC rel			A:F0 X:02 Y:9D P:E5 SP:F9 - 
FA5B  F0 08 10	 BEQ rel			A:F0 X:02 Y:9D P:E5 SP:F9 - 
FA5D  10 06 90	 BPL rel			A:F0 X:02 Y:9D P:E5 SP:F9 - 
FA5F  90 04 C9	 BCC rel			A:F0 X:02 Y:9D P:E5 SP:F9 - 
FA61  C9 F0 F0	 CMP #			A:F0 X:02 Y:9D P:E5 SP:F9 - 
FA63  F0 02 84	 BEQ rel			A:F0 X:02 Y:9D P:67 SP:F9 - 
FA67  60 24 01	 RTS impl			A:F0 X:02 Y:9D P:67 SP:F9 - 
EA0C  AD 47 06	 LDA abs			A:F0 X:02 Y:9D P:67 SP:FB - 
EA0F  C9 36 F0	 CMP #			A:37 X:02 Y:9D P:65 SP:FB - 
EA11  F0 02 84	 BEQ rel			A:37 X:02 Y:9D P:65 SP:FB - 
EA13  84 00 A9	 STY zpg			A:37 X:02 Y:9D P:65 SP:FB - 
EA15  A9 EB 8D	 LDA #			A:37 X:02 Y:9D P:65 SP:FB - 
EA17  8D 47 06	 STA abs			A:EB X:02 Y:9D P:E5 SP:FB - 
EA1A  A9 48 85	 LDA #			A:EB X:02 Y:9D P:E5 SP:FB - 
EA1C  85 45 A9	 STA zpg			A:48 X:02 Y:9D P:65 SP:FB - 
EA1E  A9 05 85	 LDA #			A:48 X:02 Y:9D P:65 SP:FB - 
EA20  85 46 A0	 STA zpg			A:05 X:02 Y:9D P:65 SP:FB - 
EA22  A0 FF 20	 LDY #			A:05 X:02 Y:9D P:65 SP:FB - 
EA24  20 31 FA	 JSR abs			A:05 X:02 Y:FF P:E5 SP:FB - 
FA31  24 01 18	 BIT zpg			A:05 X:02 Y:FF P:E5 SP:F9 - 
FA33  18 A9 40	 CLC impl			A:05 X:02 Y:FF P:E5 SP:F9 - 
FA34  A9 40 60	 LDA #			A:05 X:02 Y:FF P:E4 SP:F9 - 
FA36  60 50 2C	 RTS impl			A:40 X:02 Y:FF P:64 SP:F9 - 
EA27  D3 45 EA	 ILL			A:40 X:02 Y:FF P:64 SP:FB - 
EA29  EA EA 08	 NOP impl			A:40 X:02 Y:FF P:64 SP:FB - 
EA2A  EA 08 48	 NOP impl			A:40 X:02 Y:FF P:64 SP:FB - 
EA2B  08 48 A0	 PHP impl			A:40 X:02 Y:FF P:64 SP:FB - 
EA2C  48 A0 9E	 PHA impl			A:40 X:02 Y:FF P:64 SP:FA - 
EA2D  A0 9E 68	 LDY #			A:40 X:02 Y:FF P:64 SP:F9 - 
EA2F  68 28 20	 PLA impl			A:40 X:02 Y:9E P:E4 SP:F9 - 
EA30  28 20 37	 PLP impl			A:40 X:02 Y:9E P:64 SP:FA - 
EA31  20 37 FA	 JSR abs			A:40 X:02 Y:9E P:64 SP:FB - 
FA37  50 2C B0	 BVC rel			A:40 X:02 Y:9E P:64 SP:F9 - 
FA39  B0 2A 30	 BCS rel			A:40 X:02 Y:9E P:64 SP:F9 - 
FA3B  30 28 C9	 BMI rel			A:40 X:02 Y:9E P:64 SP:F9 - 
FA3D  C9 40 D0	 CMP #			A:40 X:02 Y:9E P:64 SP:F9 - 
FA3F  D0 24 60	 BNE rel			A:40 X:02 Y:9E P:67 SP:F9 - 
FA41  60 B8 38	 RTS impl			A:40 X:02 Y:9E P:67 SP:F9 - 
EA34  AD 47 06	 LDA abs			A:40 X:02 Y:9E P:67 SP:FB - 
EA37  C9 EA F0	 CMP #			A:EB X:02 Y:9E P:E5 SP:FB - 
EA39  F0 02 84	 BEQ rel			A:EB X:02 Y:9E P:65 SP:FB - 
EA3B  84 00 A0	 STY zpg			A:EB X:02 Y:9E P:65 SP:FB - 
EA3D  A0 FF A9	 LDY #			A:EB X:02 Y:9E P:65 SP:FB - 
EA3F  A9 00 8D	 LDA #			A:EB X:02 Y:FF P:E5 SP:FB - 
EA41  8D 47 06	 STA abs			A:00 X:02 Y:FF P:67 SP:FB - 
EA44  20 42 FA	 JSR abs			A:00 X:02 Y:FF P:67 SP:FB - 
FA42  B8 38 A9	 CLV impl			A:00 X:02 Y:FF P:67 SP:F9 - 
FA43  38 A9 FF	 SEC impl			A:00 X:02 Y:FF P:27 SP:F9 - 
FA44  A9 FF 60	 LDA #			A:00 X:02 Y:FF P:27 SP:F9 - 
FA46  60 70 1C	 RTS impl			A:FF X:02 Y:FF P:A5 SP:F9 - 
EA47  D3 45 EA	 ILL			A:FF X:02 Y:FF P:A5 SP:FB - 
EA49  EA EA 08	 NOP impl			A:FF X:02 Y:FF P:A5 SP:FB - 
EA4A  EA 08 48	 NOP impl			A:FF X:02 Y:FF P:A5 SP:FB - 
EA4B  08 48 A0	 PHP impl			A:FF X:02 Y:FF P:A5 SP:FB - 
EA4C  48 A0 9F	 PHA impl			A:FF X:02 Y:FF P:A5 SP:FA - 
EA4D  A0 9F 68	 LDY #			A:FF X:02 Y:FF P:A5 SP:F9 - 
EA4F  68 28 20	 PLA impl			A:FF X:02 Y:9F P:A5 SP:F9 - 
EA50  28 20 47	 PLP impl			A:FF X:02 Y:9F P:A5 SP:FA - 
EA51  20 47 FA	 JSR abs			A:FF X:02 Y:9F P:A5 SP:FB - 
FA47  70 1C D0	 BVS rel			A:FF X:02 Y:9F P:A5 SP:F9 - 
FA49  D0 1A 30	 BNE rel			A:FF X:02 Y:9F P:A5 SP:F9 - 
FA65  84 00 60	 STY zpg			A:FF X:02 Y:9F P:A5 SP:F9 - 
FA67  60 24 01	 RTS impl			A:FF X:02 Y:9F P:A5 SP:F9 - 
EA54  AD 47 06	 LDA abs			A:FF X:02 Y:9F P:A5 SP:FB - 
EA57  C9 FF F0	 CMP #			A:00 X:02 Y:9F P:27 SP:FB - 
EA59  F0 02 84	 BEQ rel			A:00 X:02 Y:9F P:24 SP:FB - 
EA5B  84 00 A0	 STY zpg			A:00 X:02 Y:9F P:24 SP:FB - 
EA5D  A0 FF A9	 LDY #			A:00 X:02 Y:9F P:24 SP:FB - 
EA5F  A9 37 8D	 LDA #			A:00 X:02 Y:FF P:A4 SP:FB - 
EA61  8D 47 06	 STA abs			A:37 X:02 Y:FF P:24 SP:FB - 
EA64  20 54 FA	 JSR abs			A:37 X:02 Y:FF P:24 SP:FB - 
FA54  24 01 A9	 BIT zpg			A:37 X:02 Y:FF P:24 SP:F9 - 
FA56  A9 F0 60	 LDA #			A:37 X:02 Y:FF P:E4 SP:F9 - 
FA58  60 50 0A	 RTS impl			A:F0 X:02 Y:FF P:E4 SP:F9 - 
EA67  D3 45 EA	 ILL			A:F0 X:02 Y:FF P:E4 SP:FB - 
EA69  EA EA 08	 NOP impl			A:F0 X:02 Y:FF P:E4 SP:FB - 
EA6A  EA 08 48	 NOP impl			A:F0 X:02 Y:FF P:E4 SP:FB - 
EA6B  08 48 A0	 PHP impl			A:F0 X:02 Y:FF P:E4 SP:FB - 
EA6C  48 A0 A0	 PHA impl			A:F0 X:02 Y:FF P:E4 SP:FA - 
EA6D  A0 A0 68	 LDY #			A:F0 X:02 Y:FF P:E4 SP:F9 - 
EA6F  68 28 20	 PLA impl			A:F0 X:02 Y:A0 P:E4 SP:F9 - 
EA70  28 20 59	 PLP impl			A:F0 X:02 Y:A0 P:E4 SP:FA - 
EA71  20 59 FA	 JSR abs			A:F0 X:02 Y:A0 P:E4 SP:FB - 
FA59  50 0A F0	 BVC rel			A:F0 X:02 Y:A0 P:E4 SP:F9 - 
FA5B  F0 08 10	 BEQ rel			A:F0 X:02 Y:A0 P:E4 SP:F9 - 
FA5D  10 06 90	 BPL rel			A:F0 X:02 Y:A0 P:E4 SP:F9 - 
FA5F  90 04 C9	 BCC rel			A:F0 X:02 Y:A0 P:E4 SP:F9 - 
FA65  84 00 60	 STY zpg			A:F0 X:02 Y:A0 P:E4 SP:F9 - 
FA67  60 24 01	 RTS impl			A:F0 X:02 Y:A0 P:E4 SP:F9 - 
EA74  AD 47 06	 LDA abs			A:F0 X:02 Y:A0 P:E4 SP:FB - 
EA77  C9 36 F0	 CMP #			A:37 X:02 Y:A0 P:64 SP:FB - 
EA79  F0 02 84	 BEQ rel			A:37 X:02 Y:A0 P:65 SP:FB - 
EA7B  84 00 A0	 STY zpg			A:37 X:02 Y:A0 P:65 SP:FB - 
EA7D  A0 A1 A2	 LDY #			A:37 X:02 Y:A0 P:65 SP:FB - 
EA7F  A2 FF A9	 LDX #			A:37 X:02 Y:A1 P:E5 SP:FB - 
EA81  A9 EB 85	 LDA #			A:37 X:FF Y:A1 P:E5 SP:FB - 
EA83  85 47 20	 STA zpg			A:EB X:FF Y:A1 P:E5 SP:FB - 
EA85  20 31 FA	 JSR abs			A:EB X:FF Y:A1 P:E5 SP:FB - 
FA31  24 01 18	 BIT zpg			A:EB X:FF Y:A1 P:E5 SP:F9 - 
FA33  18 A9 40	 CLC impl			A:EB X:FF Y:A1 P:E5 SP:F9 - 
FA34  A9 40 60	 LDA #			A:EB X:FF Y:A1 P:E4 SP:F9 - 
FA36  60 50 2C	 RTS impl			A:40 X:FF Y:A1 P:64 SP:F9 - 
EA88  D7 48 EA	 ILL			A:40 X:FF Y:A1 P:64 SP:FB - 
EA8A  EA EA EA	 NOP impl			A:40 X:FF Y:A1 P:64 SP:FB - 
EA8B  EA EA EA	 NOP impl			A:40 X:FF Y:A1 P:64 SP:FB - 
EA8C  EA EA 20	 NOP impl			A:40 X:FF Y:A1 P:64 SP:FB - 
EA8D  EA 20 37	 NOP impl			A:40 X:FF Y:A1 P:64 SP:FB - 
EA8E  20 37 FA	 JSR abs			A:40 X:FF Y:A1 P:64 SP:FB - 
FA37  50 2C B0	 BVC rel			A:40 X:FF Y:A1 P:64 SP:F9 - 
FA39  B0 2A 30	 BCS rel			A:40 X:FF Y:A1 P:64 SP:F9 - 
FA3B  30 28 C9	 BMI rel			A:40 X:FF Y:A1 P:64 SP:F9 - 
FA3D  C9 40 D0	 CMP #			A:40 X:FF Y:A1 P:64 SP:F9 - 
FA3F  D0 24 60	 BNE rel			A:40 X:FF Y:A1 P:67 SP:F9 - 
FA41  60 B8 38	 RTS impl			A:40 X:FF Y:A1 P:67 SP:F9 - 
EA91  A5 47 C9	 LDA zpg			A:40 X:FF Y:A1 P:67 SP:FB - 
EA93  C9 EA F0	 CMP #			A:EB X:FF Y:A1 P:E5 SP:FB - 
EA95  F0 02 84	 BEQ rel			A:EB X:FF Y:A1 P:65 SP:FB - 
EA97  84 00 C8	 STY zpg			A:EB X:FF Y:A1 P:65 SP:FB - 
EA99  C8 A9 00	 INY impl			A:EB X:FF Y:A1 P:65 SP:FB - 
EA9A  A9 00 85	 LDA #			A:EB X:FF Y:A2 P:E5 SP:FB - 
EA9C  85 47 20	 STA zpg			A:00 X:FF Y:A2 P:67 SP:FB - 
EA9E  20 42 FA	 JSR abs			A:00 X:FF Y:A2 P:67 SP:FB - 
FA42  B8 38 A9	 CLV impl			A:00 X:FF Y:A2 P:67 SP:F9 - 
FA43  38 A9 FF	 SEC impl			A:00 X:FF Y:A2 P:27 SP:F9 - 
FA44  A9 FF 60	 LDA #			A:00 X:FF Y:A2 P:27 SP:F9 - 
FA46  60 70 1C	 RTS impl			A:FF X:FF Y:A2 P:A5 SP:F9 - 
EAA1  D7 48 EA	 ILL			A:FF X:FF Y:A2 P:A5 SP:FB - 
EAA3  EA EA EA	 NOP impl			A:FF X:FF Y:A2 P:A5 SP:FB - 
EAA4  EA EA EA	 NOP impl			A:FF X:FF Y:A2 P:A5 SP:FB - 
EAA5  EA EA 20	 NOP impl			A:FF X:FF Y:A2 P:A5 SP:FB - 
EAA6  EA 20 47	 NOP impl			A:FF X:FF Y:A2 P:A5 SP:FB - 
EAA7  20 47 FA	 JSR abs			A:FF X:FF Y:A2 P:A5 SP:FB - 
FA47  70 1C D0	 BVS rel			A:FF X:FF Y:A2 P:A5 SP:F9 - 
FA49  D0 1A 30	 BNE rel			A:FF X:FF Y:A2 P:A5 SP:F9 - 
FA65  84 00 60	 STY zpg			A:FF X:FF Y:A2 P:A5 SP:F9 - 
FA67  60 24 01	 RTS impl			A:FF X:FF Y:A2 P:A5 SP:F9 - 
EAAA  A5 47 C9	 LDA zpg			A:FF X:FF Y:A2 P:A5 SP:FB - 
EAAC  C9 FF F0	 CMP #			A:00 X:FF Y:A2 P:27 SP:FB - 
EAAE  F0 02 84	 BEQ rel			A:00 X:FF Y:A2 P:24 SP:FB - 
EAB0  84 00 C8	 STY zpg			A:00 X:FF Y:A2 P:24 SP:FB - 
EAB2  C8 A9 37	 INY impl			A:00 X:FF Y:A2 P:24 SP:FB - 
EAB3  A9 37 85	 LDA #			A:00 X:FF Y:A3 P:A4 SP:FB - 
EAB5  85 47 20	 STA zpg			A:37 X:FF Y:A3 P:24 SP:FB - 
EAB7  20 54 FA	 JSR abs			A:37 X:FF Y:A3 P:24 SP:FB - 
FA54  24 01 A9	 BIT zpg			A:37 X:FF Y:A3 P:24 SP:F9 - 
FA56  A9 F0 60	 LDA #			A:37 X:FF Y:A3 P:E4 SP:F9 - 
FA58  60 50 0A	 RTS impl			A:F0 X:FF Y:A3 P:E4 SP:F9 - 
EABA  D7 48 EA	 ILL			A:F0 X:FF Y:A3 P:E4 SP:FB - 
EABC  EA EA EA	 NOP impl			A:F0 X:FF Y:A3 P:E4 SP:FB - 
EABD  EA EA EA	 NOP impl			A:F0 X:FF Y:A3 P:E4 SP:FB - 
EABE  EA EA 20	 NOP impl			A:F0 X:FF Y:A3 P:E4 SP:FB - 
EABF  EA 20 59	 NOP impl			A:F0 X:FF Y:A3 P:E4 SP:FB - 
EAC0  20 59 FA	 JSR abs			A:F0 X:FF Y:A3 P:E4 SP:FB - 
FA59  50 0A F0	 BVC rel			A:F0 X:FF Y:A3 P:E4 SP:F9 - 
FA5B  F0 08 10	 BEQ rel			A:F0 X:FF Y:A3 P:E4 SP:F9 - 
FA5D  10 06 90	 BPL rel			A:F0 X:FF Y:A3 P:E4 SP:F9 - 
FA5F  90 04 C9	 BCC rel			A:F0 X:FF Y:A3 P:E4 SP:F9 - 
FA65  84 00 60	 STY zpg			A:F0 X:FF Y:A3 P:E4 SP:F9 - 
FA67  60 24 01	 RTS impl			A:F0 X:FF Y:A3 P:E4 SP:F9 - 
EAC3  A5 47 C9	 LDA zpg			A:F0 X:FF Y:A3 P:E4 SP:FB - 
EAC5  C9 36 F0	 CMP #			A:37 X:FF Y:A3 P:64 SP:FB - 
EAC7  F0 02 84	 BEQ rel			A:37 X:FF Y:A3 P:65 SP:FB - 
EAC9  84 00 A9	 STY zpg			A:37 X:FF Y:A3 P:65 SP:FB - 
EACB  A9 EB 8D	 LDA #			A:37 X:FF Y:A3 P:65 SP:FB - 
EACD  8D 47 06	 STA abs			A:EB X:FF Y:A3 P:E5 SP:FB - 
EAD0  A0 FF 20	 LDY #			A:EB X:FF Y:A3 P:E5 SP:FB - 
EAD2  20 31 FA	 JSR abs			A:EB X:FF Y:FF P:E5 SP:FB - 
FA31  24 01 18	 BIT zpg			A:EB X:FF Y:FF P:E5 SP:F9 - 
FA33  18 A9 40	 CLC impl			A:EB X:FF Y:FF P:E5 SP:F9 - 
FA34  A9 40 60	 LDA #			A:EB X:FF Y:FF P:E4 SP:F9 - 
FA36  60 50 2C	 RTS impl			A:40 X:FF Y:FF P:64 SP:F9 - 
EAD5  DB 48 05	 ILL			A:40 X:FF Y:FF P:64 SP:FB - 
EAD7  05 EA EA	 ORA zpg			A:40 X:FF Y:FF P:64 SP:FB - 
EAD9  EA 08 48	 NOP impl			A:F8 X:FF Y:FF P:E4 SP:FB - 
EADA  08 48 A0	 PHP impl			A:F8 X:FF Y:FF P:E4 SP:FB - 
EADB  48 A0 A4	 PHA impl			A:F8 X:FF Y:FF P:E4 SP:FA - 
EADC  A0 A4 68	 LDY #			A:F8 X:FF Y:FF P:E4 SP:F9 - 
EADE  68 28 20	 PLA impl			A:F8 X:FF Y:A4 P:E4 SP:F9 - 
EADF  28 20 37	 PLP impl			A:F8 X:FF Y:A4 P:E4 SP:FA - 
EAE0  20 37 FA	 JSR abs			A:F8 X:FF Y:A4 P:E4 SP:FB - 
FA37  50 2C B0	 BVC rel			A:F8 X:FF Y:A4 P:E4 SP:F9 - 
FA39  B0 2A 30	 BCS rel			A:F8 X:FF Y:A4 P:E4 SP:F9 - 
FA3B  30 28 C9	 BMI rel			A:F8 X:FF Y:A4 P:E4 SP:F9 - 
FA65  84 00 60	 STY zpg			A:F8 X:FF Y:A4 P:E4 SP:F9 - 
FA67  60 24 01	 RTS impl			A:F8 X:FF Y:A4 P:E4 SP:F9 - 
EAE3  AD 47 06	 LDA abs			A:F8 X:FF Y:A4 P:E4 SP:FB - 
EAE6  C9 EA F0	 CMP #			A:EB X:FF Y:A4 P:E4 SP:FB - 
EAE8  F0 02 84	 BEQ rel			A:EB X:FF Y:A4 P:65 SP:FB - 
EAEA  84 00 A0	 STY zpg			A:EB X:FF Y:A4 P:65 SP:FB - 
EAEC  A0 FF A9	 LDY #			A:EB X:FF Y:A4 P:65 SP:FB - 
EAEE  A9 00 8D	 LDA #			A:EB X:FF Y:FF P:E5 SP:FB - 
EAF0  8D 47 06	 STA abs			A:00 X:FF Y:FF P:67 SP:FB - 
EAF3  20 42 FA	 JSR abs			A:00 X:FF Y:FF P:67 SP:FB - 
FA42  B8 38 A9	 CLV impl			A:00 X:FF Y:FF P:67 SP:F9 - 
FA43  38 A9 FF	 SEC impl			A:00 X:FF Y:FF P:27 SP:F9 - 
FA44  A9 FF 60	 LDA #			A:00 X:FF Y:FF P:27 SP:F9 - 
FA46  60 70 1C	 RTS impl			A:FF X:FF Y:FF P:A5 SP:F9 - 
EAF6  DB 48 05	 ILL			A:FF X:FF Y:FF P:A5 SP:FB - 
EAF8  05 EA EA	 ORA zpg			A:FF X:FF Y:FF P:A5 SP:FB - 
EAFA  EA 08 48	 NOP impl			A:FF X:FF Y:FF P:A5 SP:FB - 
EAFB  08 48 A0	 PHP impl			A:FF X:FF Y:FF P:A5 SP:FB - 
EAFC  48 A0 A5	 PHA impl			A:FF X:FF Y:FF P:A5 SP:FA - 
EAFD  A0 A5 68	 LDY #			A:FF X:FF Y:FF P:A5 SP:F9 - 
EAFF  68 28 20	 PLA impl			A:FF X:FF Y:A5 P:A5 SP:F9 - 
EB00  28 20 47	 PLP impl			A:FF X:FF Y:A5 P:A5 SP:FA - 
EB01  20 47 FA	 JSR abs			A:FF X:FF Y:A5 P:A5 SP:FB - 
FA47  70 1C D0	 BVS rel			A:FF X:FF Y:A5 P:A5 SP:F9 - 
FA49  D0 1A 30	 BNE rel			A:FF X:FF Y:A5 P:A5 SP:F9 - 
FA65  84 00 60	 STY zpg			A:FF X:FF Y:A5 P:A5 SP:F9 - 
FA67  60 24 01	 RTS impl			A:FF X:FF Y:A5 P:A5 SP:F9 - 
EB04  AD 47 06	 LDA abs			A:FF X:FF Y:A5 P:A5 SP:FB - 
EB07  C9 FF F0	 CMP #			A:00 X:FF Y:A5 P:27 SP:FB - 
EB09  F0 02 84	 BEQ rel			A:00 X:FF Y:A5 P:24 SP:FB - 
EB0B  84 00 A0	 STY zpg			A:00 X:FF Y:A5 P:24 SP:FB - 
EB0D  A0 FF A9	 LDY #			A:00 X:FF Y:A5 P:24 SP:FB - 
EB0F  A9 37 8D	 LDA #			A:00 X:FF Y:FF P:A4 SP:FB - 
EB11  8D 47 06	 STA abs			A:37 X:FF Y:FF P:24 SP:FB - 
EB14  20 54 FA	 JSR abs			A:37 X:FF Y:FF P:24 SP:FB - 
FA54  24 01 A9	 BIT zpg			A:37 X:FF Y:FF P:24 SP:F9 - 
FA56  A9 F0 60	 LDA #			A:37 X:FF Y:FF P:E4 SP:F9 - 
FA58  60 50 0A	 RTS impl			A:F0 X:FF Y:FF P:E4 SP:F9 - 
EB17  DB 48 05	 ILL			A:F0 X:FF Y:FF P:E4 SP:FB - 
EB19  05 EA EA	 ORA zpg			A:F0 X:FF Y:FF P:E4 SP:FB - 
EB1B  EA 08 48	 NOP impl			A:F8 X:FF Y:FF P:E4 SP:FB - 
EB1C  08 48 A0	 PHP impl			A:F8 X:FF Y:FF P:E4 SP:FB - 
EB1D  48 A0 A6	 PHA impl			A:F8 X:FF Y:FF P:E4 SP:FA - 
EB1E  A0 A6 68	 LDY #			A:F8 X:FF Y:FF P:E4 SP:F9 - 
EB20  68 28 20	 PLA impl			A:F8 X:FF Y:A6 P:E4 SP:F9 - 
EB21  28 20 59	 PLP impl			A:F8 X:FF Y:A6 P:E4 SP:FA - 
EB22  20 59 FA	 JSR abs			A:F8 X:FF Y:A6 P:E4 SP:FB - 
FA59  50 0A F0	 BVC rel			A:F8 X:FF Y:A6 P:E4 SP:F9 - 
FA5B  F0 08 10	 BEQ rel			A:F8 X:FF Y:A6 P:E4 SP:F9 - 
FA5D  10 06 90	 BPL rel			A:F8 X:FF Y:A6 P:E4 SP:F9 - 
FA5F  90 04 C9	 BCC rel			A:F8 X:FF Y:A6 P:E4 SP:F9 - 
FA65  84 00 60	 STY zpg			A:F8 X:FF Y:A6 P:E4 SP:F9 - 
FA67  60 24 01	 RTS impl			A:F8 X:FF Y:A6 P:E4 SP:F9 - 
EB25  AD 47 06	 LDA abs			A:F8 X:FF Y:A6 P:E4 SP:FB - 
EB28  C9 36 F0	 CMP #			A:37 X:FF Y:A6 P:64 SP:FB - 
EB2A  F0 02 84	 BEQ rel			A:37 X:FF Y:A6 P:65 SP:FB - 
EB2C  84 00 A0	 STY zpg			A:37 X:FF Y:A6 P:65 SP:FB - 
EB2E  A0 A7 A2	 LDY #			A:37 X:FF Y:A6 P:65 SP:FB - 
EB30  A2 FF A9	 LDX #			A:37 X:FF Y:A7 P:E5 SP:FB - 
EB32  A9 EB 8D	 LDA #			A:37 X:FF Y:A7 P:E5 SP:FB - 
EB34  8D 47 06	 STA abs			A:EB X:FF Y:A7 P:E5 SP:FB - 
EB37  20 31 FA	 JSR abs			A:EB X:FF Y:A7 P:E5 SP:FB - 
FA31  24 01 18	 BIT zpg			A:EB X:FF Y:A7 P:E5 SP:F9 - 
FA33  18 A9 40	 CLC impl			A:EB X:FF Y:A7 P:E5 SP:F9 - 
FA34  A9 40 60	 LDA #			A:EB X:FF Y:A7 P:E4 SP:F9 - 
FA36  60 50 2C	 RTS impl			A:40 X:FF Y:A7 P:64 SP:F9 - 
EB3A  DF 48 05	 ILL			A:40 X:FF Y:A7 P:64 SP:FB - 
EB3C  05 EA EA	 ORA zpg			A:40 X:FF Y:A7 P:64 SP:FB - 
EB3E  EA EA EA	 NOP impl			A:F8 X:FF Y:A7 P:E4 SP:FB - 
EB3F  EA EA 20	 NOP impl			A:F8 X:FF Y:A7 P:E4 SP:FB - 
EB40  EA 20 37	 NOP impl			A:F8 X:FF Y:A7 P:E4 SP:FB - 
EB41  20 37 FA	 JSR abs			A:F8 X:FF Y:A7 P:E4 SP:FB - 
FA37  50 2C B0	 BVC rel			A:F8 X:FF Y:A7 P:E4 SP:F9 - 
FA39  B0 2A 30	 BCS rel			A:F8 X:FF Y:A7 P:E4 SP:F9 - 
FA3B  30 28 C9	 BMI rel			A:F8 X:FF Y:A7 P:E4 SP:F9 - 
FA65  84 00 60	 STY zpg			A:F8 X:FF Y:A7 P:E4 SP:F9 - 
FA67  60 24 01	 RTS impl			A:F8 X:FF Y:A7 P:E4 SP:F9 - 
EB44  AD 47 06	 LDA abs			A:F8 X:FF Y:A7 P:E4 SP:FB - 
EB47  C9 EA F0	 CMP #			A:EB X:FF Y:A7 P:E4 SP:FB - 
EB49  F0 02 84	 BEQ rel			A:EB X:FF Y:A7 P:65 SP:FB - 
EB4B  84 00 C8	 STY zpg			A:EB X:FF Y:A7 P:65 SP:FB - 
EB4D  C8 A9 00	 INY impl			A:EB X:FF Y:A7 P:65 SP:FB - 
EB4E  A9 00 8D	 LDA #			A:EB X:FF Y:A8 P:E5 SP:FB - 
EB50  8D 47 06	 STA abs			A:00 X:FF Y:A8 P:67 SP:FB - 
EB53  20 42 FA	 JSR abs			A:00 X:FF Y:A8 P:67 SP:FB - 
FA42  B8 38 A9	 CLV impl			A:00 X:FF Y:A8 P:67 SP:F9 - 
FA43  38 A9 FF	 SEC impl			A:00 X:FF Y:A8 P:27 SP:F9 - 
FA44  A9 FF 60	 LDA #			A:00 X:FF Y:A8 P:27 SP:F9 - 
FA46  60 70 1C	 RTS impl			A:FF X:FF Y:A8 P:A5 SP:F9 - 
EB56  DF 48 05	 ILL			A:FF X:FF Y:A8 P:A5 SP:FB - 
EB58  05 EA EA	 ORA zpg			A:FF X:FF Y:A8 P:A5 SP:FB - 
EB5A  EA EA EA	 NOP impl			A:FF X:FF Y:A8 P:A5 SP:FB - 
EB5B  EA EA 20	 NOP impl			A:FF X:FF Y:A8 P:A5 SP:FB - 
EB5C  EA 20 47	 NOP impl			A:FF X:FF Y:A8 P:A5 SP:FB - 
EB5D  20 47 FA	 JSR abs			A:FF X:FF Y:A8 P:A5 SP:FB - 
FA47  70 1C D0	 BVS rel			A:FF X:FF Y:A8 P:A5 SP:F9 - 
FA49  D0 1A 30	 BNE rel			A:FF X:FF Y:A8 P:A5 SP:F9 - 
FA65  84 00 60	 STY zpg			A:FF X:FF Y:A8 P:A5 SP:F9 - 
FA67  60 24 01	 RTS impl			A:FF X:FF Y:A8 P:A5 SP:F9 - 
EB60  AD 47 06	 LDA abs			A:FF X:FF Y:A8 P:A5 SP:FB - 
EB63  C9 FF F0	 CMP #			A:00 X:FF Y:A8 P:27 SP:FB - 
EB65  F0 02 84	 BEQ rel			A:00 X:FF Y:A8 P:24 SP:FB - 
EB67  84 00 C8	 STY zpg			A:00 X:FF Y:A8 P:24 SP:FB - 
EB69  C8 A9 37	 INY impl			A:00 X:FF Y:A8 P:24 SP:FB - 
EB6A  A9 37 8D	 LDA #			A:00 X:FF Y:A9 P:A4 SP:FB - 
EB6C  8D 47 06	 STA abs			A:37 X:FF Y:A9 P:24 SP:FB - 
EB6F  20 54 FA	 JSR abs			A:37 X:FF Y:A9 P:24 SP:FB - 
FA54  24 01 A9	 BIT zpg			A:37 X:FF Y:A9 P:24 SP:F9 - 
FA56  A9 F0 60	 LDA #			A:37 X:FF Y:A9 P:E4 SP:F9 - 
FA58  60 50 0A	 RTS impl			A:F0 X:FF Y:A9 P:E4 SP:F9 - 
EB72  DF 48 05	 ILL			A:F0 X:FF Y:A9 P:E4 SP:FB - 
EB74  05 EA EA	 ORA zpg			A:F0 X:FF Y:A9 P:E4 SP:FB - 
EB76  EA EA EA	 NOP impl			A:F8 X:FF Y:A9 P:E4 SP:FB - 
EB77  EA EA 20	 NOP impl			A:F8 X:FF Y:A9 P:E4 SP:FB - 
EB78  EA 20 59	 NOP impl			A:F8 X:FF Y:A9 P:E4 SP:FB - 
EB79  20 59 FA	 JSR abs			A:F8 X:FF Y:A9 P:E4 SP:FB - 
FA59  50 0A F0	 BVC rel			A:F8 X:FF Y:A9 P:E4 SP:F9 - 
FA5B  F0 08 10	 BEQ rel			A:F8 X:FF Y:A9 P:E4 SP:F9 - 
FA5D  10 06 90	 BPL rel			A:F8 X:FF Y:A9 P:E4 SP:F9 - 
FA5F  90 04 C9	 BCC rel			A:F8 X:FF Y:A9 P:E4 SP:F9 - 
FA65  84 00 60	 STY zpg			A:F8 X:FF Y:A9 P:E4 SP:F9 - 
FA67  60 24 01	 RTS impl			A:F8 X:FF Y:A9 P:E4 SP:F9 - 
EB7C  AD 47 06	 LDA abs			A:F8 X:FF Y:A9 P:E4 SP:FB - 
EB7F  C9 36 F0	 CMP #			A:37 X:FF Y:A9 P:64 SP:FB - 
EB81  F0 02 84	 BEQ rel			A:37 X:FF Y:A9 P:65 SP:FB - 
EB83  84 00 60	 STY zpg			A:37 X:FF Y:A9 P:65 SP:FB - 
EB85  60 A9 FF	 RTS impl			A:37 X:FF Y:A9 P:65 SP:FB - 
C63E  20 86 EB	 JSR abs			A:37 X:FF Y:A9 P:65 SP:FD - 
EB86  A9 FF 85	 LDA #			A:37 X:FF Y:A9 P:65 SP:FB - 
EB88  85 01 A0	 STA zpg			A:FF X:FF Y:A9 P:E5 SP:FB - 
EB8A  A0 AA A2	 LDY #			A:FF X:FF Y:A9 P:E5 SP:FB - 
EB8C  A2 02 A9	 LDX #			A:FF X:FF Y:AA P:E5 SP:FB - 
EB8E  A9 47 85	 LDA #			A:FF X:02 Y:AA P:65 SP:FB - 
EB90  85 47 A9	 STA zpg			A:47 X:02 Y:AA P:65 SP:FB - 
EB92  A9 06 85	 LDA #			A:47 X:02 Y:AA P:65 SP:FB - 
EB94  85 48 A9	 STA zpg			A:06 X:02 Y:AA P:65 SP:FB - 
EB96  A9 EB 8D	 LDA #			A:06 X:02 Y:AA P:65 SP:FB - 
EB98  8D 47 06	 STA abs			A:EB X:02 Y:AA P:E5 SP:FB - 
EB9B  20 B1 FA	 JSR abs			A:EB X:02 Y:AA P:E5 SP:FB - 
FAB1  24 01 18	 BIT zpg			A:EB X:02 Y:AA P:E5 SP:F9 - 
FAB3  18 A9 40	 CLC impl			A:EB X:02 Y:AA P:E5 SP:F9 - 
FAB4  A9 40 60	 LDA #			A:EB X:02 Y:AA P:E4 SP:F9 - 
FAB6  60 70 2D	 RTS impl			A:40 X:02 Y:AA P:64 SP:F9 - 
EB9E  E3 45 EA	 ILL			A:40 X:02 Y:AA P:64 SP:FB - 
EBA0  EA EA EA	 NOP impl			A:40 X:02 Y:AA P:64 SP:FB - 
EBA1  EA EA EA	 NOP impl			A:40 X:02 Y:AA P:64 SP:FB - 
EBA2  EA EA 20	 NOP impl			A:40 X:02 Y:AA P:64 SP:FB - 
EBA3  EA 20 B7	 NOP impl			A:40 X:02 Y:AA P:64 SP:FB - 
EBA4  20 B7 FA	 JSR abs			A:40 X:02 Y:AA P:64 SP:FB - 
FAB7  70 2D B0	 BVS rel			A:40 X:02 Y:AA P:64 SP:F9 - 
FAE6  84 00 60	 STY zpg			A:40 X:02 Y:AA P:64 SP:F9 - 
FAE8  60 24 01	 RTS impl			A:40 X:02 Y:AA P:64 SP:F9 - 
EBA7  AD 47 06	 LDA abs			A:40 X:02 Y:AA P:64 SP:FB - 
EBAA  C9 EC F0	 CMP #			A:EB X:02 Y:AA P:E4 SP:FB - 
EBAC  F0 02 84	 BEQ rel			A:EB X:02 Y:AA P:E4 SP:FB - 
EBAE  84 00 C8	 STY zpg			A:EB X:02 Y:AA P:E4 SP:FB - 
EBB0  C8 A9 FF	 INY impl			A:EB X:02 Y:AA P:E4 SP:FB - 
EBB1  A9 FF 8D	 LDA #			A:EB X:02 Y:AB P:E4 SP:FB - 
EBB3  8D 47 06	 STA abs			A:FF X:02 Y:AB P:E4 SP:FB - 
EBB6  20 C2 FA	 JSR abs			A:FF X:02 Y:AB P:E4 SP:FB - 
FAC2  B8 38 A9	 CLV impl			A:FF X:02 Y:AB P:E4 SP:F9 - 
FAC3  38 A9 FF	 SEC impl			A:FF X:02 Y:AB P:A4 SP:F9 - 
FAC4  A9 FF 60	 LDA #			A:FF X:02 Y:AB P:A5 SP:F9 - 
FAC6  60 70 1D	 RTS impl			A:FF X:02 Y:AB P:A5 SP:F9 - 
EBB9  E3 45 EA	 ILL			A:FF X:02 Y:AB P:A5 SP:FB - 
EBBB  EA EA EA	 NOP impl			A:FF X:02 Y:AB P:A5 SP:FB - 
EBBC  EA EA EA	 NOP impl			A:FF X:02 Y:AB P:A5 SP:FB - 
EBBD  EA EA 20	 NOP impl			A:FF X:02 Y:AB P:A5 SP:FB - 
EBBE  EA 20 C7	 NOP impl			A:FF X:02 Y:AB P:A5 SP:FB - 
EBBF  20 C7 FA	 JSR abs			A:FF X:02 Y:AB P:A5 SP:FB - 
FAC7  70 1D F0	 BVS rel			A:FF X:02 Y:AB P:A5 SP:F9 - 
FAC9  F0 1B 10	 BEQ rel			A:FF X:02 Y:AB P:A5 SP:F9 - 
FACB  10 19 90	 BPL rel			A:FF X:02 Y:AB P:A5 SP:F9 - 
FACD  90 17 C9	 BCC rel			A:FF X:02 Y:AB P:A5 SP:F9 - 
FACF  C9 FF D0	 CMP #			A:FF X:02 Y:AB P:A5 SP:F9 - 
FAD1  D0 13 60	 BNE rel			A:FF X:02 Y:AB P:27 SP:F9 - 
FAD3  60 24 01	 RTS impl			A:FF X:02 Y:AB P:27 SP:F9 - 
EBC2  AD 47 06	 LDA abs			A:FF X:02 Y:AB P:27 SP:FB - 
EBC5  C9 00 F0	 CMP #			A:FF X:02 Y:AB P:A5 SP:FB - 
EBC7  F0 02 84	 BEQ rel			A:FF X:02 Y:AB P:A5 SP:FB - 
EBC9  84 00 C8	 STY zpg			A:FF X:02 Y:AB P:A5 SP:FB - 
EBCB  C8 A9 37	 INY impl			A:FF X:02 Y:AB P:A5 SP:FB - 
EBCC  A9 37 8D	 LDA #			A:FF X:02 Y:AC P:A5 SP:FB - 
EBCE  8D 47 06	 STA abs			A:37 X:02 Y:AC P:25 SP:FB - 
EBD1  20 D4 FA	 JSR abs			A:37 X:02 Y:AC P:25 SP:FB - 
FAD4  24 01 38	 BIT zpg			A:37 X:02 Y:AC P:25 SP:F9 - 
FAD6  38 A9 F0	 SEC impl			A:37 X:02 Y:AC P:E5 SP:F9 - 
FAD7  A9 F0 60	 LDA #			A:37 X:02 Y:AC P:E5 SP:F9 - 
FAD9  60 70 0A	 RTS impl			A:F0 X:02 Y:AC P:E5 SP:F9 - 
EBD4  E3 45 EA	 ILL			A:F0 X:02 Y:AC P:E5 SP:FB - 
EBD6  EA EA EA	 NOP impl			A:F0 X:02 Y:AC P:E5 SP:FB - 
EBD7  EA EA EA	 NOP impl			A:F0 X:02 Y:AC P:E5 SP:FB - 
EBD8  EA EA 20	 NOP impl			A:F0 X:02 Y:AC P:E5 SP:FB - 
EBD9  EA 20 DA	 NOP impl			A:F0 X:02 Y:AC P:E5 SP:FB - 
EBDA  20 DA FA	 JSR abs			A:F0 X:02 Y:AC P:E5 SP:FB - 
FADA  70 0A F0	 BVS rel			A:F0 X:02 Y:AC P:E5 SP:F9 - 
FAE6  84 00 60	 STY zpg			A:F0 X:02 Y:AC P:E5 SP:F9 - 
FAE8  60 24 01	 RTS impl			A:F0 X:02 Y:AC P:E5 SP:F9 - 
EBDD  AD 47 06	 LDA abs			A:F0 X:02 Y:AC P:E5 SP:FB - 
EBE0  C9 38 F0	 CMP #			A:37 X:02 Y:AC P:65 SP:FB - 
EBE2  F0 02 84	 BEQ rel			A:37 X:02 Y:AC P:E4 SP:FB - 
EBE4  84 00 C8	 STY zpg			A:37 X:02 Y:AC P:E4 SP:FB - 
EBE6  C8 A9 EB	 INY impl			A:37 X:02 Y:AC P:E4 SP:FB - 
EBE7  A9 EB 85	 LDA #			A:37 X:02 Y:AD P:E4 SP:FB - 
EBE9  85 47 20	 STA zpg			A:EB X:02 Y:AD P:E4 SP:FB - 
EBEB  20 B1 FA	 JSR abs			A:EB X:02 Y:AD P:E4 SP:FB - 
FAB1  24 01 18	 BIT zpg			A:EB X:02 Y:AD P:E4 SP:F9 - 
FAB3  18 A9 40	 CLC impl			A:EB X:02 Y:AD P:E4 SP:F9 - 
FAB4  A9 40 60	 LDA #			A:EB X:02 Y:AD P:E4 SP:F9 - 
FAB6  60 70 2D	 RTS impl			A:40 X:02 Y:AD P:64 SP:F9 - 
EBEE  E7 47 EA	 ILL			A:40 X:02 Y:AD P:64 SP:FB - 
EBF0  EA EA EA	 NOP impl			A:40 X:02 Y:AD P:64 SP:FB - 
EBF1  EA EA EA	 NOP impl			A:40 X:02 Y:AD P:64 SP:FB - 
EBF2  EA EA 20	 NOP impl			A:40 X:02 Y:AD P:64 SP:FB - 
EBF3  EA 20 B7	 NOP impl			A:40 X:02 Y:AD P:64 SP:FB - 
EBF4  20 B7 FA	 JSR abs			A:40 X:02 Y:AD P:64 SP:FB - 
FAB7  70 2D B0	 BVS rel			A:40 X:02 Y:AD P:64 SP:F9 - 
FAE6  84 00 60	 STY zpg			A:40 X:02 Y:AD P:64 SP:F9 - 
FAE8  60 24 01	 RTS impl			A:40 X:02 Y:AD P:64 SP:F9 - 
EBF7  A5 47 C9	 LDA zpg			A:40 X:02 Y:AD P:64 SP:FB - 
EBF9  C9 EC F0	 CMP #			A:EB X:02 Y:AD P:E4 SP:FB - 
EBFB  F0 02 84	 BEQ rel			A:EB X:02 Y:AD P:E4 SP:FB - 
EBFD  84 00 C8	 STY zpg			A:EB X:02 Y:AD P:E4 SP:FB - 
EBFF  C8 A9 FF	 INY impl			A:EB X:02 Y:AD P:E4 SP:FB - 
EC00  A9 FF 85	 LDA #			A:EB X:02 Y:AE P:E4 SP:FB - 
EC02  85 47 20	 STA zpg			A:FF X:02 Y:AE P:E4 SP:FB - 
EC04  20 C2 FA	 JSR abs			A:FF X:02 Y:AE P:E4 SP:FB - 
FAC2  B8 38 A9	 CLV impl			A:FF X:02 Y:AE P:E4 SP:F9 - 
FAC3  38 A9 FF	 SEC impl			A:FF X:02 Y:AE P:A4 SP:F9 - 
FAC4  A9 FF 60	 LDA #			A:FF X:02 Y:AE P:A5 SP:F9 - 
FAC6  60 70 1D	 RTS impl			A:FF X:02 Y:AE P:A5 SP:F9 - 
EC07  E7 47 EA	 ILL			A:FF X:02 Y:AE P:A5 SP:FB - 
EC09  EA EA EA	 NOP impl			A:FF X:02 Y:AE P:A5 SP:FB - 
EC0A  EA EA EA	 NOP impl			A:FF X:02 Y:AE P:A5 SP:FB - 
EC0B  EA EA 20	 NOP impl			A:FF X:02 Y:AE P:A5 SP:FB - 
EC0C  EA 20 C7	 NOP impl			A:FF X:02 Y:AE P:A5 SP:FB - 
EC0D  20 C7 FA	 JSR abs			A:FF X:02 Y:AE P:A5 SP:FB - 
FAC7  70 1D F0	 BVS rel			A:FF X:02 Y:AE P:A5 SP:F9 - 
FAC9  F0 1B 10	 BEQ rel			A:FF X:02 Y:AE P:A5 SP:F9 - 
FACB  10 19 90	 BPL rel			A:FF X:02 Y:AE P:A5 SP:F9 - 
FACD  90 17 C9	 BCC rel			A:FF X:02 Y:AE P:A5 SP:F9 - 
FACF  C9 FF D0	 CMP #			A:FF X:02 Y:AE P:A5 SP:F9 - 
FAD1  D0 13 60	 BNE rel			A:FF X:02 Y:AE P:27 SP:F9 - 
FAD3  60 24 01	 RTS impl			A:FF X:02 Y:AE P:27 SP:F9 - 
EC10  A5 47 C9	 LDA zpg			A:FF X:02 Y:AE P:27 SP:FB - 
EC12  C9 00 F0	 CMP #			A:FF X:02 Y:AE P:A5 SP:FB - 
EC14  F0 02 84	 BEQ rel			A:FF X:02 Y:AE P:A5 SP:FB - 
EC16  84 00 C8	 STY zpg			A:FF X:02 Y:AE P:A5 SP:FB - 
EC18  C8 A9 37	 INY impl			A:FF X:02 Y:AE P:A5 SP:FB - 
EC19  A9 37 85	 LDA #			A:FF X:02 Y:AF P:A5 SP:FB - 
EC1B  85 47 20	 STA zpg			A:37 X:02 Y:AF P:25 SP:FB - 
EC1D  20 D4 FA	 JSR abs			A:37 X:02 Y:AF P:25 SP:FB - 
FAD4  24 01 38	 BIT zpg			A:37 X:02 Y:AF P:25 SP:F9 - 
FAD6  38 A9 F0	 SEC impl			A:37 X:02 Y:AF P:E5 SP:F9 - 
FAD7  A9 F0 60	 LDA #			A:37 X:02 Y:AF P:E5 SP:F9 - 
FAD9  60 70 0A	 RTS impl			A:F0 X:02 Y:AF P:E5 SP:F9 - 
EC20  E7 47 EA	 ILL			A:F0 X:02 Y:AF P:E5 SP:FB - 
EC22  EA EA EA	 NOP impl			A:F0 X:02 Y:AF P:E5 SP:FB - 
EC23  EA EA EA	 NOP impl			A:F0 X:02 Y:AF P:E5 SP:FB - 
EC24  EA EA 20	 NOP impl			A:F0 X:02 Y:AF P:E5 SP:FB - 
EC25  EA 20 DA	 NOP impl			A:F0 X:02 Y:AF P:E5 SP:FB - 
EC26  20 DA FA	 JSR abs			A:F0 X:02 Y:AF P:E5 SP:FB - 
FADA  70 0A F0	 BVS rel			A:F0 X:02 Y:AF P:E5 SP:F9 - 
FAE6  84 00 60	 STY zpg			A:F0 X:02 Y:AF P:E5 SP:F9 - 
FAE8  60 24 01	 RTS impl			A:F0 X:02 Y:AF P:E5 SP:F9 - 
EC29  A5 47 C9	 LDA zpg			A:F0 X:02 Y:AF P:E5 SP:FB - 
EC2B  C9 38 F0	 CMP #			A:37 X:02 Y:AF P:65 SP:FB - 
EC2D  F0 02 84	 BEQ rel			A:37 X:02 Y:AF P:E4 SP:FB - 
EC2F  84 00 C8	 STY zpg			A:37 X:02 Y:AF P:E4 SP:FB - 
EC31  C8 A9 EB	 INY impl			A:37 X:02 Y:AF P:E4 SP:FB - 
EC32  A9 EB 8D	 LDA #			A:37 X:02 Y:B0 P:E4 SP:FB - 
EC34  8D 47 06	 STA abs			A:EB X:02 Y:B0 P:E4 SP:FB - 
EC37  20 B1 FA	 JSR abs			A:EB X:02 Y:B0 P:E4 SP:FB - 
FAB1  24 01 18	 BIT zpg			A:EB X:02 Y:B0 P:E4 SP:F9 - 
FAB3  18 A9 40	 CLC impl			A:EB X:02 Y:B0 P:E4 SP:F9 - 
FAB4  A9 40 60	 LDA #			A:EB X:02 Y:B0 P:E4 SP:F9 - 
FAB6  60 70 2D	 RTS impl			A:40 X:02 Y:B0 P:64 SP:F9 - 
EC3A  EF 47 06	 ILL			A:40 X:02 Y:B0 P:64 SP:FB - 
EC3C  06 EA EA	 ASL zpg			A:40 X:02 Y:B0 P:64 SP:FB - 
EC3E  EA EA EA	 NOP impl			A:40 X:02 Y:B0 P:E5 SP:FB - 
EC3F  EA EA 20	 NOP impl			A:40 X:02 Y:B0 P:E5 SP:FB - 
EC40  EA 20 B7	 NOP impl			A:40 X:02 Y:B0 P:E5 SP:FB - 
EC41  20 B7 FA	 JSR abs			A:40 X:02 Y:B0 P:E5 SP:FB - 
FAB7  70 2D B0	 BVS rel			A:40 X:02 Y:B0 P:E5 SP:F9 - 
FAE6  84 00 60	 STY zpg			A:40 X:02 Y:B0 P:E5 SP:F9 - 
FAE8  60 24 01	 RTS impl			A:40 X:02 Y:B0 P:E5 SP:F9 - 
EC44  AD 47 06	 LDA abs			A:40 X:02 Y:B0 P:E5 SP:FB - 
EC47  C9 EC F0	 CMP #			A:EB X:02 Y:B0 P:E5 SP:FB - 
EC49  F0 02 84	 BEQ rel			A:EB X:02 Y:B0 P:E4 SP:FB - 
EC4B  84 00 C8	 STY zpg			A:EB X:02 Y:B0 P:E4 SP:FB - 
EC4D  C8 A9 FF	 INY impl			A:EB X:02 Y:B0 P:E4 SP:FB - 
EC4E  A9 FF 8D	 LDA #			A:EB X:02 Y:B1 P:E4 SP:FB - 
EC50  8D 47 06	 STA abs			A:FF X:02 Y:B1 P:E4 SP:FB - 
EC53  20 C2 FA	 JSR abs			A:FF X:02 Y:B1 P:E4 SP:FB - 
FAC2  B8 38 A9	 CLV impl			A:FF X:02 Y:B1 P:E4 SP:F9 - 
FAC3  38 A9 FF	 SEC impl			A:FF X:02 Y:B1 P:A4 SP:F9 - 
FAC4  A9 FF 60	 LDA #			A:FF X:02 Y:B1 P:A5 SP:F9 - 
FAC6  60 70 1D	 RTS impl			A:FF X:02 Y:B1 P:A5 SP:F9 - 
EC56  EF 47 06	 ILL			A:FF X:02 Y:B1 P:A5 SP:FB - 
EC58  06 EA EA	 ASL zpg			A:FF X:02 Y:B1 P:A5 SP:FB - 
EC5A  EA EA EA	 NOP impl			A:FF X:02 Y:B1 P:A5 SP:FB - 
EC5B  EA EA 20	 NOP impl			A:FF X:02 Y:B1 P:A5 SP:FB - 
EC5C  EA 20 C7	 NOP impl			A:FF X:02 Y:B1 P:A5 SP:FB - 
EC5D  20 C7 FA	 JSR abs			A:FF X:02 Y:B1 P:A5 SP:FB - 
FAC7  70 1D F0	 BVS rel			A:FF X:02 Y:B1 P:A5 SP:F9 - 
FAC9  F0 1B 10	 BEQ rel			A:FF X:02 Y:B1 P:A5 SP:F9 - 
FACB  10 19 90	 BPL rel			A:FF X:02 Y:B1 P:A5 SP:F9 - 
FACD  90 17 C9	 BCC rel			A:FF X:02 Y:B1 P:A5 SP:F9 - 
FACF  C9 FF D0	 CMP #			A:FF X:02 Y:B1 P:A5 SP:F9 - 
FAD1  D0 13 60	 BNE rel			A:FF X:02 Y:B1 P:27 SP:F9 - 
FAD3  60 24 01	 RTS impl			A:FF X:02 Y:B1 P:27 SP:F9 - 
EC60  AD 47 06	 LDA abs			A:FF X:02 Y:B1 P:27 SP:FB - 
EC63  C9 00 F0	 CMP #			A:FF X:02 Y:B1 P:A5 SP:FB - 
EC65  F0 02 84	 BEQ rel			A:FF X:02 Y:B1 P:A5 SP:FB - 
EC67  84 00 C8	 STY zpg			A:FF X:02 Y:B1 P:A5 SP:FB - 
EC69  C8 A9 37	 INY impl			A:FF X:02 Y:B1 P:A5 SP:FB - 
EC6A  A9 37 8D	 LDA #			A:FF X:02 Y:B2 P:A5 SP:FB - 
EC6C  8D 47 06	 STA abs			A:37 X:02 Y:B2 P:25 SP:FB - 
EC6F  20 D4 FA	 JSR abs			A:37 X:02 Y:B2 P:25 SP:FB - 
FAD4  24 01 38	 BIT zpg			A:37 X:02 Y:B2 P:25 SP:F9 - 
FAD6  38 A9 F0	 SEC impl			A:37 X:02 Y:B2 P:E5 SP:F9 - 
FAD7  A9 F0 60	 LDA #			A:37 X:02 Y:B2 P:E5 SP:F9 - 
FAD9  60 70 0A	 RTS impl			A:F0 X:02 Y:B2 P:E5 SP:F9 - 
EC72  EF 47 06	 ILL			A:F0 X:02 Y:B2 P:E5 SP:FB - 
EC74  06 EA EA	 ASL zpg			A:F0 X:02 Y:B2 P:E5 SP:FB - 
EC76  EA EA EA	 NOP impl			A:F0 X:02 Y:B2 P:E5 SP:FB - 
EC77  EA EA 20	 NOP impl			A:F0 X:02 Y:B2 P:E5 SP:FB - 
EC78  EA 20 DA	 NOP impl			A:F0 X:02 Y:B2 P:E5 SP:FB - 
EC79  20 DA FA	 JSR abs			A:F0 X:02 Y:B2 P:E5 SP:FB - 
FADA  70 0A F0	 BVS rel			A:F0 X:02 Y:B2 P:E5 SP:F9 - 
FAE6  84 00 60	 STY zpg			A:F0 X:02 Y:B2 P:E5 SP:F9 - 
FAE8  60 24 01	 RTS impl			A:F0 X:02 Y:B2 P:E5 SP:F9 - 
EC7C  AD 47 06	 LDA abs			A:F0 X:02 Y:B2 P:E5 SP:FB - 
EC7F  C9 38 F0	 CMP #			A:37 X:02 Y:B2 P:65 SP:FB - 
EC81  F0 02 84	 BEQ rel			A:37 X:02 Y:B2 P:E4 SP:FB - 
EC83  84 00 A9	 STY zpg			A:37 X:02 Y:B2 P:E4 SP:FB - 
EC85  A9 EB 8D	 LDA #			A:37 X:02 Y:B2 P:E4 SP:FB - 
EC87  8D 47 06	 STA abs			A:EB X:02 Y:B2 P:E4 SP:FB - 
EC8A  A9 48 85	 LDA #			A:EB X:02 Y:B2 P:E4 SP:FB - 
EC8C  85 45 A9	 STA zpg			A:48 X:02 Y:B2 P:64 SP:FB - 
EC8E  A9 05 85	 LDA #			A:48 X:02 Y:B2 P:64 SP:FB - 
EC90  85 46 A0	 STA zpg			A:05 X:02 Y:B2 P:64 SP:FB - 
EC92  A0 FF 20	 LDY #			A:05 X:02 Y:B2 P:64 SP:FB - 
EC94  20 B1 FA	 JSR abs			A:05 X:02 Y:FF P:E4 SP:FB - 
FAB1  24 01 18	 BIT zpg			A:05 X:02 Y:FF P:E4 SP:F9 - 
FAB3  18 A9 40	 CLC impl			A:05 X:02 Y:FF P:E4 SP:F9 - 
FAB4  A9 40 60	 LDA #			A:05 X:02 Y:FF P:E4 SP:F9 - 
FAB6  60 70 2D	 RTS impl			A:40 X:02 Y:FF P:64 SP:F9 - 
EC97  F3 45 EA	 ILL			A:40 X:02 Y:FF P:64 SP:FB - 
EC99  EA EA 08	 NOP impl			A:40 X:02 Y:FF P:64 SP:FB - 
EC9A  EA 08 48	 NOP impl			A:40 X:02 Y:FF P:64 SP:FB - 
EC9B  08 48 A0	 PHP impl			A:40 X:02 Y:FF P:64 SP:FB - 
EC9C  48 A0 B3	 PHA impl			A:40 X:02 Y:FF P:64 SP:FA - 
EC9D  A0 B3 68	 LDY #			A:40 X:02 Y:FF P:64 SP:F9 - 
EC9F  68 28 20	 PLA impl			A:40 X:02 Y:B3 P:E4 SP:F9 - 
ECA0  28 20 B7	 PLP impl			A:40 X:02 Y:B3 P:64 SP:FA - 
ECA1  20 B7 FA	 JSR abs			A:40 X:02 Y:B3 P:64 SP:FB - 
FAB7  70 2D B0	 BVS rel			A:40 X:02 Y:B3 P:64 SP:F9 - 
FAE6  84 00 60	 STY zpg			A:40 X:02 Y:B3 P:64 SP:F9 - 
FAE8  60 24 01	 RTS impl			A:40 X:02 Y:B3 P:64 SP:F9 - 
ECA4  AD 47 06	 LDA abs			A:40 X:02 Y:B3 P:64 SP:FB - 
ECA7  C9 EC F0	 CMP #			A:EB X:02 Y:B3 P:E4 SP:FB - 
ECA9  F0 02 84	 BEQ rel			A:EB X:02 Y:B3 P:E4 SP:FB - 
ECAB  84 00 A0	 STY zpg			A:EB X:02 Y:B3 P:E4 SP:FB - 
ECAD  A0 FF A9	 LDY #			A:EB X:02 Y:B3 P:E4 SP:FB - 
ECAF  A9 FF 8D	 LDA #			A:EB X:02 Y:FF P:E4 SP:FB - 
ECB1  8D 47 06	 STA abs			A:FF X:02 Y:FF P:E4 SP:FB - 
ECB4  20 C2 FA	 JSR abs			A:FF X:02 Y:FF P:E4 SP:FB - 
FAC2  B8 38 A9	 CLV impl			A:FF X:02 Y:FF P:E4 SP:F9 - 
FAC3  38 A9 FF	 SEC impl			A:FF X:02 Y:FF P:A4 SP:F9 - 
FAC4  A9 FF 60	 LDA #			A:FF X:02 Y:FF P:A5 SP:F9 - 
FAC6  60 70 1D	 RTS impl			A:FF X:02 Y:FF P:A5 SP:F9 - 
ECB7  F3 45 EA	 ILL			A:FF X:02 Y:FF P:A5 SP:FB - 
ECB9  EA EA 08	 NOP impl			A:FF X:02 Y:FF P:A5 SP:FB - 
ECBA  EA 08 48	 NOP impl			A:FF X:02 Y:FF P:A5 SP:FB - 
ECBB  08 48 A0	 PHP impl			A:FF X:02 Y:FF P:A5 SP:FB - 
ECBC  48 A0 B4	 PHA impl			A:FF X:02 Y:FF P:A5 SP:FA - 
ECBD  A0 B4 68	 LDY #			A:FF X:02 Y:FF P:A5 SP:F9 - 
ECBF  68 28 20	 PLA impl			A:FF X:02 Y:B4 P:A5 SP:F9 - 
ECC0  28 20 C7	 PLP impl			A:FF X:02 Y:B4 P:A5 SP:FA - 
ECC1  20 C7 FA	 JSR abs			A:FF X:02 Y:B4 P:A5 SP:FB - 
FAC7  70 1D F0	 BVS rel			A:FF X:02 Y:B4 P:A5 SP:F9 - 
FAC9  F0 1B 10	 BEQ rel			A:FF X:02 Y:B4 P:A5 SP:F9 - 
FACB  10 19 90	 BPL rel			A:FF X:02 Y:B4 P:A5 SP:F9 - 
FACD  90 17 C9	 BCC rel			A:FF X:02 Y:B4 P:A5 SP:F9 - 
FACF  C9 FF D0	 CMP #			A:FF X:02 Y:B4 P:A5 SP:F9 - 
FAD1  D0 13 60	 BNE rel			A:FF X:02 Y:B4 P:27 SP:F9 - 
FAD3  60 24 01	 RTS impl			A:FF X:02 Y:B4 P:27 SP:F9 - 
ECC4  AD 47 06	 LDA abs			A:FF X:02 Y:B4 P:27 SP:FB - 
ECC7  C9 00 F0	 CMP #			A:FF X:02 Y:B4 P:A5 SP:FB - 
ECC9  F0 02 84	 BEQ rel			A:FF X:02 Y:B4 P:A5 SP:FB - 
ECCB  84 00 A0	 STY zpg			A:FF X:02 Y:B4 P:A5 SP:FB - 
ECCD  A0 FF A9	 LDY #			A:FF X:02 Y:B4 P:A5 SP:FB - 
ECCF  A9 37 8D	 LDA #			A:FF X:02 Y:FF P:A5 SP:FB - 
ECD1  8D 47 06	 STA abs			A:37 X:02 Y:FF P:25 SP:FB - 
ECD4  20 D4 FA	 JSR abs			A:37 X:02 Y:FF P:25 SP:FB - 
FAD4  24 01 38	 BIT zpg			A:37 X:02 Y:FF P:25 SP:F9 - 
FAD6  38 A9 F0	 SEC impl			A:37 X:02 Y:FF P:E5 SP:F9 - 
FAD7  A9 F0 60	 LDA #			A:37 X:02 Y:FF P:E5 SP:F9 - 
FAD9  60 70 0A	 RTS impl			A:F0 X:02 Y:FF P:E5 SP:F9 - 
ECD7  F3 45 EA	 ILL			A:F0 X:02 Y:FF P:E5 SP:FB - 
ECD9  EA EA 08	 NOP impl			A:F0 X:02 Y:FF P:E5 SP:FB - 
ECDA  EA 08 48	 NOP impl			A:F0 X:02 Y:FF P:E5 SP:FB - 
ECDB  08 48 A0	 PHP impl			A:F0 X:02 Y:FF P:E5 SP:FB - 
ECDC  48 A0 B5	 PHA impl			A:F0 X:02 Y:FF P:E5 SP:FA - 
ECDD  A0 B5 68	 LDY #			A:F0 X:02 Y:FF P:E5 SP:F9 - 
ECDF  68 28 20	 PLA impl			A:F0 X:02 Y:B5 P:E5 SP:F9 - 
ECE0  28 20 DA	 PLP impl			A:F0 X:02 Y:B5 P:E5 SP:FA - 
ECE1  20 DA FA	 JSR abs			A:F0 X:02 Y:B5 P:E5 SP:FB - 
FADA  70 0A F0	 BVS rel			A:F0 X:02 Y:B5 P:E5 SP:F9 - 
FAE6  84 00 60	 STY zpg			A:F0 X:02 Y:B5 P:E5 SP:F9 - 
FAE8  60 24 01	 RTS impl			A:F0 X:02 Y:B5 P:E5 SP:F9 - 
ECE4  AD 47 06	 LDA abs			A:F0 X:02 Y:B5 P:E5 SP:FB - 
ECE7  C9 38 F0	 CMP #			A:37 X:02 Y:B5 P:65 SP:FB - 
ECE9  F0 02 84	 BEQ rel			A:37 X:02 Y:B5 P:E4 SP:FB - 
ECEB  84 00 A0	 STY zpg			A:37 X:02 Y:B5 P:E4 SP:FB - 
ECED  A0 B6 A2	 LDY #			A:37 X:02 Y:B5 P:E4 SP:FB - 
ECEF  A2 FF A9	 LDX #			A:37 X:02 Y:B6 P:E4 SP:FB - 
ECF1  A9 EB 85	 LDA #			A:37 X:FF Y:B6 P:E4 SP:FB - 
ECF3  85 47 20	 STA zpg			A:EB X:FF Y:B6 P:E4 SP:FB - 
ECF5  20 B1 FA	 JSR abs			A:EB X:FF Y:B6 P:E4 SP:FB - 
FAB1  24 01 18	 BIT zpg			A:EB X:FF Y:B6 P:E4 SP:F9 - 
FAB3  18 A9 40	 CLC impl			A:EB X:FF Y:B6 P:E4 SP:F9 - 
FAB4  A9 40 60	 LDA #			A:EB X:FF Y:B6 P:E4 SP:F9 - 
FAB6  60 70 2D	 RTS impl			A:40 X:FF Y:B6 P:64 SP:F9 - 
ECF8  F7 48 EA	 ILL			A:40 X:FF Y:B6 P:64 SP:FB - 
ECFA  EA EA EA	 NOP impl			A:40 X:FF Y:B6 P:64 SP:FB - 
ECFB  EA EA EA	 NOP impl			A:40 X:FF Y:B6 P:64 SP:FB - 
ECFC  EA EA 20	 NOP impl			A:40 X:FF Y:B6 P:64 SP:FB - 
ECFD  EA 20 B7	 NOP impl			A:40 X:FF Y:B6 P:64 SP:FB - 
ECFE  20 B7 FA	 JSR abs			A:40 X:FF Y:B6 P:64 SP:FB - 
FAB7  70 2D B0	 BVS rel			A:40 X:FF Y:B6 P:64 SP:F9 - 
FAE6  84 00 60	 STY zpg			A:40 X:FF Y:B6 P:64 SP:F9 - 
FAE8  60 24 01	 RTS impl			A:40 X:FF Y:B6 P:64 SP:F9 - 
ED01  A5 47 C9	 LDA zpg			A:40 X:FF Y:B6 P:64 SP:FB - 
ED03  C9 EC F0	 CMP #			A:EB X:FF Y:B6 P:E4 SP:FB - 
ED05  F0 02 84	 BEQ rel			A:EB X:FF Y:B6 P:E4 SP:FB - 
ED07  84 00 C8	 STY zpg			A:EB X:FF Y:B6 P:E4 SP:FB - 
ED09  C8 A9 FF	 INY impl			A:EB X:FF Y:B6 P:E4 SP:FB - 
ED0A  A9 FF 85	 LDA #			A:EB X:FF Y:B7 P:E4 SP:FB - 
ED0C  85 47 20	 STA zpg			A:FF X:FF Y:B7 P:E4 SP:FB - 
ED0E  20 C2 FA	 JSR abs			A:FF X:FF Y:B7 P:E4 SP:FB - 
FAC2  B8 38 A9	 CLV impl			A:FF X:FF Y:B7 P:E4 SP:F9 - 
FAC3  38 A9 FF	 SEC impl			A:FF X:FF Y:B7 P:A4 SP:F9 - 
FAC4  A9 FF 60	 LDA #			A:FF X:FF Y:B7 P:A5 SP:F9 - 
FAC6  60 70 1D	 RTS impl			A:FF X:FF Y:B7 P:A5 SP:F9 - 
ED11  F7 48 EA	 ILL			A:FF X:FF Y:B7 P:A5 SP:FB - 
ED13  EA EA EA	 NOP impl			A:FF X:FF Y:B7 P:A5 SP:FB - 
ED14  EA EA EA	 NOP impl			A:FF X:FF Y:B7 P:A5 SP:FB - 
ED15  EA EA 20	 NOP impl			A:FF X:FF Y:B7 P:A5 SP:FB - 
ED16  EA 20 C7	 NOP impl			A:FF X:FF Y:B7 P:A5 SP:FB - 
ED17  20 C7 FA	 JSR abs			A:FF X:FF Y:B7 P:A5 SP:FB - 
FAC7  70 1D F0	 BVS rel			A:FF X:FF Y:B7 P:A5 SP:F9 - 
FAC9  F0 1B 10	 BEQ rel			A:FF X:FF Y:B7 P:A5 SP:F9 - 
FACB  10 19 90	 BPL rel			A:FF X:FF Y:B7 P:A5 SP:F9 - 
FACD  90 17 C9	 BCC rel			A:FF X:FF Y:B7 P:A5 SP:F9 - 
FACF  C9 FF D0	 CMP #			A:FF X:FF Y:B7 P:A5 SP:F9 - 
FAD1  D0 13 60	 BNE rel			A:FF X:FF Y:B7 P:27 SP:F9 - 
FAD3  60 24 01	 RTS impl			A:FF X:FF Y:B7 P:27 SP:F9 - 
ED1A  A5 47 C9	 LDA zpg			A:FF X:FF Y:B7 P:27 SP:FB - 
ED1C  C9 00 F0	 CMP #			A:FF X:FF Y:B7 P:A5 SP:FB - 
ED1E  F0 02 84	 BEQ rel			A:FF X:FF Y:B7 P:A5 SP:FB - 
ED20  84 00 C8	 STY zpg			A:FF X:FF Y:B7 P:A5 SP:FB - 
ED22  C8 A9 37	 INY impl			A:FF X:FF Y:B7 P:A5 SP:FB - 
ED23  A9 37 85	 LDA #			A:FF X:FF Y:B8 P:A5 SP:FB - 
ED25  85 47 20	 STA zpg			A:37 X:FF Y:B8 P:25 SP:FB - 
ED27  20 D4 FA	 JSR abs			A:37 X:FF Y:B8 P:25 SP:FB - 
FAD4  24 01 38	 BIT zpg			A:37 X:FF Y:B8 P:25 SP:F9 - 
FAD6  38 A9 F0	 SEC impl			A:37 X:FF Y:B8 P:E5 SP:F9 - 
FAD7  A9 F0 60	 LDA #			A:37 X:FF Y:B8 P:E5 SP:F9 - 
FAD9  60 70 0A	 RTS impl			A:F0 X:FF Y:B8 P:E5 SP:F9 - 
ED2A  F7 48 EA	 ILL			A:F0 X:FF Y:B8 P:E5 SP:FB - 
ED2C  EA EA EA	 NOP impl			A:F0 X:FF Y:B8 P:E5 SP:FB - 
ED2D  EA EA EA	 NOP impl			A:F0 X:FF Y:B8 P:E5 SP:FB - 
ED2E  EA EA 20	 NOP impl			A:F0 X:FF Y:B8 P:E5 SP:FB - 
ED2F  EA 20 DA	 NOP impl			A:F0 X:FF Y:B8 P:E5 SP:FB - 
ED30  20 DA FA	 JSR abs			A:F0 X:FF Y:B8 P:E5 SP:FB - 
FADA  70 0A F0	 BVS rel			A:F0 X:FF Y:B8 P:E5 SP:F9 - 
FAE6  84 00 60	 STY zpg			A:F0 X:FF Y:B8 P:E5 SP:F9 - 
FAE8  60 24 01	 RTS impl			A:F0 X:FF Y:B8 P:E5 SP:F9 - 
ED33  A5 47 C9	 LDA zpg			A:F0 X:FF Y:B8 P:E5 SP:FB - 
ED35  C9 38 F0	 CMP #			A:37 X:FF Y:B8 P:65 SP:FB - 
ED37  F0 02 84	 BEQ rel			A:37 X:FF Y:B8 P:E4 SP:FB - 
ED39  84 00 A9	 STY zpg			A:37 X:FF Y:B8 P:E4 SP:FB - 
ED3B  A9 EB 8D	 LDA #			A:37 X:FF Y:B8 P:E4 SP:FB - 
ED3D  8D 47 06	 STA abs			A:EB X:FF Y:B8 P:E4 SP:FB - 
ED40  A0 FF 20	 LDY #			A:EB X:FF Y:B8 P:E4 SP:FB - 
ED42  20 B1 FA	 JSR abs			A:EB X:FF Y:FF P:E4 SP:FB - 
FAB1  24 01 18	 BIT zpg			A:EB X:FF Y:FF P:E4 SP:F9 - 
FAB3  18 A9 40	 CLC impl			A:EB X:FF Y:FF P:E4 SP:F9 - 
FAB4  A9 40 60	 LDA #			A:EB X:FF Y:FF P:E4 SP:F9 - 
FAB6  60 70 2D	 RTS impl			A:40 X:FF Y:FF P:64 SP:F9 - 
ED45  FB 48 05	 ILL			A:40 X:FF Y:FF P:64 SP:FB - 
ED47  05 EA EA	 ORA zpg			A:40 X:FF Y:FF P:64 SP:FB - 
ED49  EA 08 48	 NOP impl			A:C0 X:FF Y:FF P:E4 SP:FB - 
ED4A  08 48 A0	 PHP impl			A:C0 X:FF Y:FF P:E4 SP:FB - 
ED4B  48 A0 B9	 PHA impl			A:C0 X:FF Y:FF P:E4 SP:FA - 
ED4C  A0 B9 68	 LDY #			A:C0 X:FF Y:FF P:E4 SP:F9 - 
ED4E  68 28 20	 PLA impl			A:C0 X:FF Y:B9 P:E4 SP:F9 - 
ED4F  28 20 B7	 PLP impl			A:C0 X:FF Y:B9 P:E4 SP:FA - 
ED50  20 B7 FA	 JSR abs			A:C0 X:FF Y:B9 P:E4 SP:FB - 
FAB7  70 2D B0	 BVS rel			A:C0 X:FF Y:B9 P:E4 SP:F9 - 
FAE6  84 00 60	 STY zpg			A:C0 X:FF Y:B9 P:E4 SP:F9 - 
FAE8  60 24 01	 RTS impl			A:C0 X:FF Y:B9 P:E4 SP:F9 - 
ED53  AD 47 06	 LDA abs			A:C0 X:FF Y:B9 P:E4 SP:FB - 
ED56  C9 EC F0	 CMP #			A:EB X:FF Y:B9 P:E4 SP:FB - 
ED58  F0 02 84	 BEQ rel			A:EB X:FF Y:B9 P:E4 SP:FB - 
ED5A  84 00 A0	 STY zpg			A:EB X:FF Y:B9 P:E4 SP:FB - 
ED5C  A0 FF A9	 LDY #			A:EB X:FF Y:B9 P:E4 SP:FB - 
ED5E  A9 FF 8D	 LDA #			A:EB X:FF Y:FF P:E4 SP:FB - 
ED60  8D 47 06	 STA abs			A:FF X:FF Y:FF P:E4 SP:FB - 
ED63  20 C2 FA	 JSR abs			A:FF X:FF Y:FF P:E4 SP:FB - 
FAC2  B8 38 A9	 CLV impl			A:FF X:FF Y:FF P:E4 SP:F9 - 
FAC3  38 A9 FF	 SEC impl			A:FF X:FF Y:FF P:A4 SP:F9 - 
FAC4  A9 FF 60	 LDA #			A:FF X:FF Y:FF P:A5 SP:F9 - 
FAC6  60 70 1D	 RTS impl			A:FF X:FF Y:FF P:A5 SP:F9 - 
ED66  FB 48 05	 ILL			A:FF X:FF Y:FF P:A5 SP:FB - 
ED68  05 EA EA	 ORA zpg			A:FF X:FF Y:FF P:A5 SP:FB - 
ED6A  EA 08 48	 NOP impl			A:FF X:FF Y:FF P:A5 SP:FB - 
ED6B  08 48 A0	 PHP impl			A:FF X:FF Y:FF P:A5 SP:FB - 
ED6C  48 A0 BA	 PHA impl			A:FF X:FF Y:FF P:A5 SP:FA - 
ED6D  A0 BA 68	 LDY #			A:FF X:FF Y:FF P:A5 SP:F9 - 
ED6F  68 28 20	 PLA impl			A:FF X:FF Y:BA P:A5 SP:F9 - 
ED70  28 20 C7	 PLP impl			A:FF X:FF Y:BA P:A5 SP:FA - 
ED71  20 C7 FA	 JSR abs			A:FF X:FF Y:BA P:A5 SP:FB - 
FAC7  70 1D F0	 BVS rel			A:FF X:FF Y:BA P:A5 SP:F9 - 
FAC9  F0 1B 10	 BEQ rel			A:FF X:FF Y:BA P:A5 SP:F9 - 
FACB  10 19 90	 BPL rel			A:FF X:FF Y:BA P:A5 SP:F9 - 
FACD  90 17 C9	 BCC rel			A:FF X:FF Y:BA P:A5 SP:F9 - 
FACF  C9 FF D0	 CMP #			A:FF X:FF Y:BA P:A5 SP:F9 - 
FAD1  D0 13 60	 BNE rel			A:FF X:FF Y:BA P:27 SP:F9 - 
FAD3  60 24 01	 RTS impl			A:FF X:FF Y:BA P:27 SP:F9 - 
ED74  AD 47 06	 LDA abs			A:FF X:FF Y:BA P:27 SP:FB - 
ED77  C9 00 F0	 CMP #			A:FF X:FF Y:BA P:A5 SP:FB - 
ED79  F0 02 84	 BEQ rel			A:FF X:FF Y:BA P:A5 SP:FB - 
ED7B  84 00 A0	 STY zpg			A:FF X:FF Y:BA P:A5 SP:FB - 
ED7D  A0 FF A9	 LDY #			A:FF X:FF Y:BA P:A5 SP:FB - 
ED7F  A9 37 8D	 LDA #			A:FF X:FF Y:FF P:A5 SP:FB - 
ED81  8D 47 06	 STA abs			A:37 X:FF Y:FF P:25 SP:FB - 
ED84  20 D4 FA	 JSR abs			A:37 X:FF Y:FF P:25 SP:FB - 
FAD4  24 01 38	 BIT zpg			A:37 X:FF Y:FF P:25 SP:F9 - 
FAD6  38 A9 F0	 SEC impl			A:37 X:FF Y:FF P:E5 SP:F9 - 
FAD7  A9 F0 60	 LDA #			A:37 X:FF Y:FF P:E5 SP:F9 - 
FAD9  60 70 0A	 RTS impl			A:F0 X:FF Y:FF P:E5 SP:F9 - 
ED87  FB 48 05	 ILL			A:F0 X:FF Y:FF P:E5 SP:FB - 
ED89  05 EA EA	 ORA zpg			A:F0 X:FF Y:FF P:E5 SP:FB - 
ED8B  EA 08 48	 NOP impl			A:F0 X:FF Y:FF P:E5 SP:FB - 
ED8C  08 48 A0	 PHP impl			A:F0 X:FF Y:FF P:E5 SP:FB - 
ED8D  48 A0 BB	 PHA impl			A:F0 X:FF Y:FF P:E5 SP:FA - 
ED8E  A0 BB 68	 LDY #			A:F0 X:FF Y:FF P:E5 SP:F9 - 
ED90  68 28 20	 PLA impl			A:F0 X:FF Y:BB P:E5 SP:F9 - 
ED91  28 20 DA	 PLP impl			A:F0 X:FF Y:BB P:E5 SP:FA - 
ED92  20 DA FA	 JSR abs			A:F0 X:FF Y:BB P:E5 SP:FB - 
FADA  70 0A F0	 BVS rel			A:F0 X:FF Y:BB P:E5 SP:F9 - 
FAE6  84 00 60	 STY zpg			A:F0 X:FF Y:BB P:E5 SP:F9 - 
FAE8  60 24 01	 RTS impl			A:F0 X:FF Y:BB P:E5 SP:F9 - 
ED95  AD 47 06	 LDA abs			A:F0 X:FF Y:BB P:E5 SP:FB - 
ED98  C9 38 F0	 CMP #			A:37 X:FF Y:BB P:65 SP:FB - 
ED9A  F0 02 84	 BEQ rel			A:37 X:FF Y:BB P:E4 SP:FB - 
ED9C  84 00 A0	 STY zpg			A:37 X:FF Y:BB P:E4 SP:FB - 
ED9E  A0 BC A2	 LDY #			A:37 X:FF Y:BB P:E4 SP:FB - 
EDA0  A2 FF A9	 LDX #			A:37 X:FF Y:BC P:E4 SP:FB - 
EDA2  A9 EB 8D	 LDA #			A:37 X:FF Y:BC P:E4 SP:FB - 
EDA4  8D 47 06	 STA abs			A:EB X:FF Y:BC P:E4 SP:FB - 
EDA7  20 B1 FA	 JSR abs			A:EB X:FF Y:BC P:E4 SP:FB - 
FAB1  24 01 18	 BIT zpg			A:EB X:FF Y:BC P:E4 SP:F9 - 
FAB3  18 A9 40	 CLC impl			A:EB X:FF Y:BC P:E4 SP:F9 - 
FAB4  A9 40 60	 LDA #			A:EB X:FF Y:BC P:E4 SP:F9 - 
FAB6  60 70 2D	 RTS impl			A:40 X:FF Y:BC P:64 SP:F9 - 
EDAA  FF 48 05	 ILL			A:40 X:FF Y:BC P:64 SP:FB - 
